;***********************************************************************
; Atari 7800 Robotron Disassembly
;     by Dan Boris (dboris@home.com)
;
; Extra disassembly work by Scott T (tunstals@hotmail.com)
; 
;
; Note: This game is copyrighted material, this source is being released
;       for eductional purposes.
;************************************************************************

;Variables:

$40-$43     ; Player 1 score
$44-$47     ; Player 2 score
$48,$4A,$4C ; Player 1 next life score
$49,$4B,$4D ; Player 2 next life score


$59,$5A	    ; Pointer to next DLI routine
$5B			; Number of family on screen (see also $1907 - $1909) 


CURPLAY		$61  ;Current Player
CURPLAYERS	$62  ;Current Number of Players		
SKILL		$64  ;Skill Level
NUMPLAYERS      $6C  ;Number of Players at Start	


; These variables are set based on the skill level selected
$6E  ; Skill Variable
$6F  ; Skill Variable
$70  ; Skill Variable
$71  ; Skill Variable
$72  ; Skill Variable
$73  ; Skill Vairable
$75  ; Skill Variable

$74  ;1 = Play mode

$A0 - 

$AA : temp field used to hold object X when calling a function
$AB : temp field used to hold object X + its width (x extent) when calling a function
$AC  ; temp field used to hold object  Y  when calling a function
$AD : temp field used to hold player Y + its height (y extent) when calling a function
$AE : temp field used as current object index when calling a function

$b7  ; used in collision detection routine, if set to 1 then collision has occurred.
$BE  ; temp field used to hold object X when calling a function
$BF  ; temp field used to hold object  Y  when calling a function
$C0  ; temp field used to hold object X + its width (x extent)
$C1  ; temp field used to hold object Y + its height (y extent)

$C2  ; 

$C3  ; used to save random X pos generated by $D3BD and $D3D8 functions
$c4  ; used to save random Y pos generated by $D3BD	and $D3D8 functions
$c5  ; used to save a random number generated by $D3A8

$CC  ; used for grunts when computing move delay. I think this is the minimum number of frames to wait - same as in original source
$CD  ; used for family members when computing move delay. Strange though, its the Hulk routine that sets it (always to 10)

$D6  ; Sprite index of first Human
$D7  ; Sprite index of first Hulk
$D8  ; Sprite index of first Spheroid
$DF  ; Sprite index of first Electrode

$E0  ; Player 1 lives
$E1  ; Player 2 lives
$E2  ; Play State	0 = Normal, 1 = Screen being drawn
$E3  ; 1 = Attract mode
$E8  ; Level player 1
$E9  ; Level player 2


$1906	;Number of sprites of each type to put on current players screen
$1907	;Number of Mommies
$1908	;Number of Daddies
$1909	;Number of Mikies
$190A   ; Hulk count
$190B	; Spheroid count
$1914	; Electrode type for current screen
$1915   ; Number of electrodes
$1916 	;Number of sprites of each type to put on inactive players screen

;Sprite table
;	Sprite 0 = Player

SPRITE_X 	$1ACF  ;Sprite X position of left side of Sprite	
SPRITE_Y	$1B26  ;Sprite Y Position of top of sprite
SPRITE_X_EXTENT	$1EE3  ;Sprite X position of right side of Sprite
SPRITE_Y_EXTENT 	$1F3A  ;Sprite Y position of bottom of sprite

$1B7D  ;Number of frames before sprite can move 
$1BD4  ;Direction sprite is facing, first byte is player
$1C82  ;Human walk count table. each byte is decremented until 0. When 0 the human changes direction
$1CD9  ;Sprite animation frame
$1D30  ;Sprite image table
$1E8C  ;Sprite type Table
	0 = player
	1 = Grunt
	2 = Mommy
	3 = Daddy
	4 = Mikie
	5 = Hulk
	6 = Spheroid
	7 = Quark
	8 = Enforcer
	9 = Tank
	A = Brain
	B = Prog
	C = Enforcer shot
	D = Brain shot
	E = Tank shot
	F = Electrode style
	10 = Electrode

SPRITE_STATE_1F91	$1F91  ;Sprite state Table. Bit flag   - bit 0 set = active, bit 1 = dying 
; states 


$EBE5 - jump table for handlers for sprite types. Use (sprite type index) - 1 to calculate as player has own routine and is not in jump table
$ED34 - Electrode width lookup table, $1914 is index into lookup
$ED3C - Electrode height lookup table
$EDBC - Hulk related, unsure what
$EE02 - Hulk related, unsure what

	
;Display memory
$2100 - $2106    ; Player 1 score
$2107 - $210D	 ; Player 2 score
$210E - $2114	 ; Lives display Player 1
$2115 - $211B	 ; Lives display Player 2
$211C - $211D	 ; Level player 1
$2123 - $2124    ; Level player 2


;Graphics Data
8000: BF       ill  $BF
8001: FF       ill  $FF
8002: FF       ill  $FF
8003: 80       ill  $80
8004: 2F       ill  $2F
8005: 80       ill  $80
8006: 02       ill  $02
8007: F8       sed  
8008: 0B       ill  $0B
8009: FF       ill  $FF
800A: FF       ill  $FF
800B: FE 02 F8 inc  $F802,x
800E: 00 2F    brk  #$2F
8010: 80       ill  $80
8011: 00 0B    brk  #$0B
8013: F8       sed  
8014: 00 0B    brk  #$0B
8016: FF       ill  $FF
8017: FF       ill  $FF
8018: F8       sed  
8019: 02       ill  $02
801A: F8       sed  
801B: 00 2F    brk  #$2F
801D: 80       ill  $80
801E: BF       ill  $BF
801F: 80       ill  $80
8020: 0B       ill  $0B
8021: E0 00    cpx  #$00
8023: 00 2A    brk  #$2A
8025: 00 02    brk  #$02
8027: 80       ill  $80
8028: 0A       asl  a
8029: AA       tax  
802A: AA       tax  
802B: A0 02    ldy  #$02
802D: AA       tax  
802E: AA       tax  
802F: A8       tay  
8030: 00 AA    brk  #$AA
8032: AA       tax  
8033: AA       tax  
8034: 00 00    brk  #$00
8036: 02       ill  $02
8037: A0 00    ldy  #$00
8039: 02       ill  $02
803A: A0 00    ldy  #$00
803C: 28       plp  
803D: 00 AA    brk  #$AA
803F: AA       tax  
8040: AA       tax  
8041: 00 2A    brk  #$2A
8043: 00 02    brk  #$02
8045: 80       ill  $80
8046: 00 00    brk  #$00
8048: 0F       ill  $0F
8049: FF       ill  $FF
804A: C0 FA    cpy  #$FA
804C: BC 0E AC ldy  $AC0E,x
804F: AA       tax  
8050: EA       nop  
8051: 8E AF FA stx  $FAAF
8054: AF       ill  $AF
8055: 3E AB C0 rol  $C0AB,x
8058: 00 00    brk  #$00
805A: 00 00    brk  #$00
805C: 00 00    brk  #$00
805E: 00 00    brk  #$00
8060: 0F       ill  $0F
8061: AA       tax  
8062: EA       nop  
8063: BC 00 00 ldy  $0000,x
8066: 00 00    brk  #$00
8068: 00 00    brk  #$00
806A: 00 00    brk  #$00
806C: 00 00    brk  #$00
806E: 00 00    brk  #$00
8070: 00 00    brk  #$00
8072: 00 00    brk  #$00
8074: 00 00    brk  #$00
8076: 00 00    brk  #$00
8078: 00 00    brk  #$00
807A: 00 00    brk  #$00
807C: 00 00    brk  #$00
807E: 00 00    brk  #$00
8080: 00 00    brk  #$00
8082: 00 00    brk  #$00
8084: 00 00    brk  #$00
8086: 00 00    brk  #$00
8088: 00 00    brk  #$00
808A: 00 00    brk  #$00
808C: 00 00    brk  #$00
808E: 00 00    brk  #$00
8090: 00 00    brk  #$00
8092: 00 00    brk  #$00
8094: 00 00    brk  #$00
8096: 00 00    brk  #$00
8098: 00 00    brk  #$00
809A: 00 00    brk  #$00
809C: 00 00    brk  #$00
809E: 00 00    brk  #$00
80A0: 00 00    brk  #$00
80A2: 00 00    brk  #$00
80A4: 00 00    brk  #$00
80A6: 00 00    brk  #$00
80A8: 00 00    brk  #$00
80AA: 00 00    brk  #$00
80AC: 00 00    brk  #$00
80AE: 00 00    brk  #$00
80B0: 00 00    brk  #$00
80B2: 00 00    brk  #$00
80B4: 00 00    brk  #$00
80B6: 00 00    brk  #$00
80B8: 00 00    brk  #$00
80BA: 00 00    brk  #$00
80BC: 00 00    brk  #$00
80BE: 00 00    brk  #$00
80C0: 00 00    brk  #$00
80C2: 00 00    brk  #$00
80C4: 00 00    brk  #$00
80C6: 00 00    brk  #$00
80C8: 00 00    brk  #$00
80CA: 00 00    brk  #$00
80CC: 00 00    brk  #$00
80CE: 00 00    brk  #$00
80D0: 00 00    brk  #$00
80D2: 00 00    brk  #$00
80D4: 00 00    brk  #$00
80D6: 3E 94 16 rol  $1694,x
80D9: BC 00 00 ldy  $0000,x
80DC: 00 00    brk  #$00
80DE: 00 00    brk  #$00
80E0: FF       ill  $FF
80E1: FF       ill  $FF
80E2: FF       ill  $FF
80E3: FF       ill  $FF
80E4: FF       ill  $FF
80E5: FF       ill  $FF
80E6: FF       ill  $FF
80E7: FF       ill  $FF
80E8: FF       ill  $FF
80E9: FF       ill  $FF
80EA: FF       ill  $FF
80EB: FF       ill  $FF
80EC: FF       ill  $FF
80ED: FF       ill  $FF
80EE: FF       ill  $FF
80EF: FF       ill  $FF
80F0: FF       ill  $FF
80F1: FF       ill  $FF
80F2: FF       ill  $FF
80F3: FF       ill  $FF
80F4: FF       ill  $FF
80F5: FF       ill  $FF
80F6: FF       ill  $FF
80F7: FF       ill  $FF
80F8: FF       ill  $FF
80F9: FF       ill  $FF
80FA: FF       ill  $FF
80FB: FF       ill  $FF
80FC: FF       ill  $FF
80FD: FF       ill  $FF
80FE: FF       ill  $FF
80FF: FF       ill  $FF
8100: BF       ill  $BF
8101: FF       ill  $FF
8102: FF       ill  $FF
8103: 80       ill  $80
8104: 2F       ill  $2F
8105: 80       ill  $80
8106: 02       ill  $02
8107: F8       sed  
8108: 0B       ill  $0B
8109: FF       ill  $FF
810A: FF       ill  $FF
810B: FA       ill  $FA
810C: 02       ill  $02
810D: F8       sed  
810E: 00 2F    brk  #$2F
8110: 80       ill  $80
8111: 00 0B    brk  #$0B
8113: F8       sed  
8114: 00 0B    brk  #$0B
8116: FF       ill  $FF
8117: FF       ill  $FF
8118: F8       sed  
8119: 02       ill  $02
811A: F8       sed  
811B: 00 2F    brk  #$2F
811D: 80       ill  $80
811E: BF       ill  $BF
811F: 80       ill  $80
8120: 0B       ill  $0B
8121: E0 00    cpx  #$00
8123: 00 AE    brk  #$AE
8125: 80       ill  $80
8126: 0B       ill  $0B
8127: A0 2B    ldy  #$2B
8129: FF       ill  $FF
812A: FF       ill  $FF
812B: E8       inx  
812C: 0A       asl  a
812D: FF       ill  $FF
812E: FF       ill  $FF
812F: FA       ill  $FA
8130: 02       ill  $02
8131: BF       ill  $BF
8132: FF       ill  $FF
8133: FE 80 00 inc  $0080,x
8136: 0A       asl  a
8137: E8       inx  
8138: 00 0A    brk  #$0A
813A: E0 00    cpx  #$00
813C: BA       tsx  
813D: 02       ill  $02
813E: BF       ill  $BF
813F: FF       ill  $FF
8140: FE 80 AE inc  $AE80,x
8143: 80       ill  $80
8144: 0B       ill  $0B
8145: A0 00    ldy  #$00
8147: 00 0F    brk  #$0F
8149: AA       tax  
814A: FF       ill  $FF
814B: FA       ill  $FA
814C: BC 0E AC ldy  $AC0E,x
814F: AA       tax  
8150: EA       nop  
8151: 8E AF 3E stx  $3EAF
8154: AB       ill  $AB
8155: FE AB C0 inc  $C0AB,x
8158: 00 00    brk  #$00
815A: 00 00    brk  #$00
815C: 00 00    brk  #$00
815E: 00 00    brk  #$00
8160: 3E AA EA rol  $EAAA,x
8163: AF       ill  $AF
8164: 00 00    brk  #$00
8166: 00 00    brk  #$00
8168: 00 00    brk  #$00
816A: 00 00    brk  #$00
816C: 00 00    brk  #$00
816E: 00 00    brk  #$00
8170: 00 00    brk  #$00
8172: 00 00    brk  #$00
8174: 00 00    brk  #$00
8176: 00 00    brk  #$00
8178: 00 00    brk  #$00
817A: 00 00    brk  #$00
817C: 00 00    brk  #$00
817E: 00 00    brk  #$00
8180: 00 00    brk  #$00
8182: 00 00    brk  #$00
8184: 00 00    brk  #$00
8186: 00 00    brk  #$00
8188: 00 00    brk  #$00
818A: 00 00    brk  #$00
818C: 00 00    brk  #$00
818E: 00 00    brk  #$00
8190: 00 00    brk  #$00
8192: 00 00    brk  #$00
8194: 00 00    brk  #$00
8196: 00 00    brk  #$00
8198: 00 00    brk  #$00
819A: 00 00    brk  #$00
819C: 00 00    brk  #$00
819E: 00 00    brk  #$00
81A0: 00 00    brk  #$00
81A2: 00 00    brk  #$00
81A4: 00 00    brk  #$00
81A6: 00 00    brk  #$00
81A8: 00 00    brk  #$00
81AA: 00 00    brk  #$00
81AC: 00 00    brk  #$00
81AE: 00 00    brk  #$00
81B0: 00 00    brk  #$00
81B2: 00 00    brk  #$00
81B4: 00 00    brk  #$00
81B6: 00 00    brk  #$00
81B8: 00 00    brk  #$00
81BA: 00 00    brk  #$00
81BC: 00 00    brk  #$00
81BE: 00 00    brk  #$00
81C0: 00 00    brk  #$00
81C2: 00 00    brk  #$00
81C4: 00 00    brk  #$00
81C6: 00 00    brk  #$00
81C8: 00 00    brk  #$00
81CA: 00 00    brk  #$00
81CC: 00 00    brk  #$00
81CE: 00 00    brk  #$00
81D0: 00 00    brk  #$00
81D2: 00 00    brk  #$00
81D4: 00 00    brk  #$00
81D6: 3E 94 16 rol  $1694,x
81D9: BC FF FF ldy  $FFFF,x
81DC: 55 55    eor  $55,x
81DE: 00 00    brk  #$00
81E0: FF       ill  $FF
81E1: FF       ill  $FF
81E2: FF       ill  $FF
81E3: FF       ill  $FF
81E4: FF       ill  $FF
81E5: FF       ill  $FF
81E6: FF       ill  $FF
81E7: FF       ill  $FF
81E8: FF       ill  $FF
81E9: FF       ill  $FF
81EA: FF       ill  $FF
81EB: FF       ill  $FF
81EC: FF       ill  $FF
81ED: FF       ill  $FF
81EE: FF       ill  $FF
81EF: FF       ill  $FF
81F0: FF       ill  $FF
81F1: FF       ill  $FF
81F2: FF       ill  $FF
81F3: FF       ill  $FF
81F4: FF       ill  $FF
81F5: FF       ill  $FF
81F6: FF       ill  $FF
81F7: FF       ill  $FF
81F8: FF       ill  $FF
81F9: FF       ill  $FF
81FA: FF       ill  $FF
81FB: FF       ill  $FF
81FC: FF       ill  $FF
81FD: FF       ill  $FF
81FE: FF       ill  $FF
81FF: FF       ill  $FF
8200: BF       ill  $BF
8201: FF       ill  $FF
8202: FF       ill  $FF
8203: 80       ill  $80
8204: 2F       ill  $2F
8205: 80       ill  $80
8206: 02       ill  $02
8207: F8       sed  
8208: 0B       ill  $0B
8209: FF       ill  $FF
820A: FF       ill  $FF
820B: F8       sed  
820C: 02       ill  $02
820D: F8       sed  
820E: 00 2F    brk  #$2F
8210: 80       ill  $80
8211: 00 0B    brk  #$0B
8213: E8       inx  
8214: 00 0B    brk  #$0B
8216: FF       ill  $FF
8217: FF       ill  $FF
8218: F8       sed  
8219: 02       ill  $02
821A: F8       sed  
821B: 00 2F    brk  #$2F
821D: 80       ill  $80
821E: BE 00 0B ldx  $0B00,y
8221: E0 00    cpx  #$00
8223: 00 BF    brk  #$BF
8225: 80       ill  $80
8226: 0B       ill  $0B
8227: E0 2F    cpx  #$2F
8229: FF       ill  $FF
822A: FF       ill  $FF
822B: F8       sed  
822C: 0B       ill  $0B
822D: FF       ill  $FF
822E: FF       ill  $FF
822F: FE 02 FF inc  $FF02,x
8232: FF       ill  $FF
8233: FF       ill  $FF
8234: 80       ill  $80
8235: 00 0B    brk  #$0B
8237: F8       sed  
8238: 00 0B    brk  #$0B
823A: F8       sed  
823B: 00 BE    brk  #$BE
823D: 02       ill  $02
823E: FF       ill  $FF
823F: FF       ill  $FF
8240: FF       ill  $FF
8241: 80       ill  $80
8242: BF       ill  $BF
8243: 80       ill  $80
8244: 0B       ill  $0B
8245: E0 00    cpx  #$00
8247: 00 03    brk  #$03
8249: EA       nop  
824A: AA       tax  
824B: AA       tax  
824C: BC 0E AB ldy  $AB0E,x
824F: AA       tax  
8250: EA       nop  
8251: BA       tsx  
8252: AF       ill  $AF
8253: 0F       ill  $0F
8254: AA       tax  
8255: FE AB C0 inc  $C0AB,x
8258: 00 00    brk  #$00
825A: 00 00    brk  #$00
825C: 00 00    brk  #$00
825E: 00 00    brk  #$00
8260: FA       ill  $FA
8261: AA       tax  
8262: EA       nop  
8263: AB       ill  $AB
8264: C0 00    cpy  #$00
8266: 00 00    brk  #$00
8268: 00 00    brk  #$00
826A: 00 00    brk  #$00
826C: 00 00    brk  #$00
826E: 00 00    brk  #$00
8270: 00 00    brk  #$00
8272: 00 00    brk  #$00
8274: 00 00    brk  #$00
8276: 00 00    brk  #$00
8278: 00 00    brk  #$00
827A: 00 00    brk  #$00
827C: 00 00    brk  #$00
827E: 00 00    brk  #$00
8280: 00 00    brk  #$00
8282: 00 00    brk  #$00
8284: 00 00    brk  #$00
8286: 00 00    brk  #$00
8288: 00 00    brk  #$00
828A: 00 00    brk  #$00
828C: 00 00    brk  #$00
828E: 00 00    brk  #$00
8290: 00 00    brk  #$00
8292: 00 00    brk  #$00
8294: 00 00    brk  #$00
8296: 00 00    brk  #$00
8298: 00 00    brk  #$00
829A: 00 00    brk  #$00
829C: 00 00    brk  #$00
829E: 00 00    brk  #$00
82A0: 00 00    brk  #$00
82A2: 00 00    brk  #$00
82A4: 00 00    brk  #$00
82A6: 00 00    brk  #$00
82A8: 00 00    brk  #$00
82AA: 00 00    brk  #$00
82AC: 00 00    brk  #$00
82AE: 00 00    brk  #$00
82B0: 00 00    brk  #$00
82B2: 00 00    brk  #$00
82B4: 00 00    brk  #$00
82B6: 00 00    brk  #$00
82B8: 00 00    brk  #$00
82BA: 00 00    brk  #$00
82BC: 00 00    brk  #$00
82BE: 00 00    brk  #$00
82C0: 00 00    brk  #$00
82C2: 00 00    brk  #$00
82C4: 00 00    brk  #$00
82C6: 00 00    brk  #$00
82C8: 00 00    brk  #$00
82CA: 00 00    brk  #$00
82CC: 00 00    brk  #$00
82CE: 00 00    brk  #$00
82D0: 00 00    brk  #$00
82D2: 00 00    brk  #$00
82D4: 00 00    brk  #$00
82D6: 3E 94 16 rol  $1694,x
82D9: BC FF FF ldy  $FFFF,x
82DC: 55 55    eor  $55,x
82DE: 00 00    brk  #$00
82E0: FF       ill  $FF
82E1: FF       ill  $FF
82E2: FF       ill  $FF
82E3: FF       ill  $FF
82E4: FF       ill  $FF
82E5: FF       ill  $FF
82E6: FF       ill  $FF
82E7: FF       ill  $FF
82E8: FF       ill  $FF
82E9: FF       ill  $FF
82EA: FF       ill  $FF
82EB: FF       ill  $FF
82EC: FF       ill  $FF
82ED: FF       ill  $FF
82EE: FF       ill  $FF
82EF: FF       ill  $FF
82F0: FF       ill  $FF
82F1: FF       ill  $FF
82F2: FF       ill  $FF
82F3: FF       ill  $FF
82F4: FF       ill  $FF
82F5: FF       ill  $FF
82F6: FF       ill  $FF
82F7: FF       ill  $FF
82F8: FF       ill  $FF
82F9: FF       ill  $FF
82FA: FF       ill  $FF
82FB: FF       ill  $FF
82FC: FF       ill  $FF
82FD: FF       ill  $FF
82FE: FF       ill  $FF
82FF: FF       ill  $FF
8300: BF       ill  $BF
8301: AA       tax  
8302: BE 00 2F ldx  $2F00,y
8305: 80       ill  $80
8306: 02       ill  $02
8307: F8       sed  
8308: 0B       ill  $0B
8309: FA       ill  $FA
830A: AB       ill  $AB
830B: E8       inx  
830C: 02       ill  $02
830D: F8       sed  
830E: 00 2F    brk  #$2F
8310: 80       ill  $80
8311: 00 0B    brk  #$0B
8313: E0 00    cpx  #$00
8315: 0B       ill  $0B
8316: FA       ill  $FA
8317: AB       ill  $AB
8318: E0 02    cpx  #$02
831A: F8       sed  
831B: 00 2F    brk  #$2F
831D: 80       ill  $80
831E: BE 00 0B ldx  $0B00,y
8321: E0 00    cpx  #$00
8323: 00 BF    brk  #$BF
8325: 80       ill  $80
8326: 0B       ill  $0B
8327: E0 2F    cpx  #$2F
8329: FF       ill  $FF
832A: FF       ill  $FF
832B: F8       sed  
832C: 0B       ill  $0B
832D: FF       ill  $FF
832E: FF       ill  $FF
832F: FE 02 FF inc  $FF02,x
8332: FF       ill  $FF
8333: FF       ill  $FF
8334: 80       ill  $80
8335: 00 0B    brk  #$0B
8337: F8       sed  
8338: 00 0B    brk  #$0B
833A: F8       sed  
833B: 00 BE    brk  #$BE
833D: 02       ill  $02
833E: FF       ill  $FF
833F: FF       ill  $FF
8340: FF       ill  $FF
8341: 80       ill  $80
8342: BF       ill  $BF
8343: 80       ill  $80
8344: 0B       ill  $0B
8345: E0 00    cpx  #$00
8347: 00 00    brk  #$00
8349: FA       ill  $FA
834A: AA       tax  
834B: AA       tax  
834C: BC 0E AB ldy  $AB0E,x
834F: AA       tax  
8350: EA       nop  
8351: BA       tsx  
8352: AF       ill  $AF
8353: 03       ill  $03
8354: EA       nop  
8355: AA       tax  
8356: AB       ill  $AB
8357: C0 00    cpy  #$00
8359: 00 00    brk  #$00
835B: 00 00    brk  #$00
835D: 00 00    brk  #$00
835F: 03       ill  $03
8360: EA       nop  
8361: AA       tax  
8362: EA       nop  
8363: AA       tax  
8364: F0 00    beq  $8366
8366: 00 00    brk  #$00
8368: 00 00    brk  #$00
836A: 00 00    brk  #$00
836C: 00 00    brk  #$00
836E: 00 00    brk  #$00
8370: 00 00    brk  #$00
8372: 00 00    brk  #$00
8374: 00 00    brk  #$00
8376: 00 00    brk  #$00
8378: 00 00    brk  #$00
837A: 00 00    brk  #$00
837C: 00 00    brk  #$00
837E: 00 00    brk  #$00
8380: 00 00    brk  #$00
8382: 00 00    brk  #$00
8384: 00 00    brk  #$00
8386: 00 00    brk  #$00
8388: 00 00    brk  #$00
838A: 00 00    brk  #$00
838C: 00 00    brk  #$00
838E: 00 00    brk  #$00
8390: 00 00    brk  #$00
8392: 00 00    brk  #$00
8394: 00 00    brk  #$00
8396: 00 00    brk  #$00
8398: 00 00    brk  #$00
839A: 00 00    brk  #$00
839C: 00 00    brk  #$00
839E: 00 00    brk  #$00
83A0: 00 00    brk  #$00
83A2: 00 00    brk  #$00
83A4: 00 00    brk  #$00
83A6: 00 00    brk  #$00
83A8: 00 00    brk  #$00
83AA: 00 00    brk  #$00
83AC: 00 00    brk  #$00
83AE: 00 00    brk  #$00
83B0: 00 00    brk  #$00
83B2: 00 00    brk  #$00
83B4: 00 00    brk  #$00
83B6: 00 00    brk  #$00
83B8: 00 00    brk  #$00
83BA: 00 00    brk  #$00
83BC: 00 00    brk  #$00
83BE: 00 00    brk  #$00
83C0: 00 00    brk  #$00
83C2: 00 00    brk  #$00
83C4: 00 00    brk  #$00
83C6: 00 00    brk  #$00
83C8: 00 00    brk  #$00
83CA: 00 00    brk  #$00
83CC: 00 00    brk  #$00
83CE: 00 00    brk  #$00
83D0: 00 00    brk  #$00
83D2: 00 00    brk  #$00
83D4: 00 00    brk  #$00
83D6: 3E 94 16 rol  $1694,x
83D9: BC AA AA ldy  $AAAA,x
83DC: AA       tax  
83DD: AA       tax  
83DE: 00 00    brk  #$00
83E0: FF       ill  $FF
83E1: FF       ill  $FF
83E2: FF       ill  $FF
83E3: FF       ill  $FF
83E4: FF       ill  $FF
83E5: FF       ill  $FF
83E6: FF       ill  $FF
83E7: FF       ill  $FF
83E8: FF       ill  $FF
83E9: FF       ill  $FF
83EA: FF       ill  $FF
83EB: FF       ill  $FF
83EC: FF       ill  $FF
83ED: FF       ill  $FF
83EE: FF       ill  $FF
83EF: FF       ill  $FF
83F0: FF       ill  $FF
83F1: FF       ill  $FF
83F2: FF       ill  $FF
83F3: FF       ill  $FF
83F4: FF       ill  $FF
83F5: FF       ill  $FF
83F6: FF       ill  $FF
83F7: FF       ill  $FF
83F8: FF       ill  $FF
83F9: FF       ill  $FF
83FA: FF       ill  $FF
83FB: FF       ill  $FF
83FC: FF       ill  $FF
83FD: FF       ill  $FF
83FE: FF       ill  $FF
83FF: FF       ill  $FF
8400: BE 80 BE ldx  $BE80,y
8403: 00 2F    brk  #$2F
8405: 80       ill  $80
8406: 02       ill  $02
8407: F8       sed  
8408: 0B       ill  $0B
8409: F8       sed  
840A: 0B       ill  $0B
840B: E0 02    cpx  #$02
840D: F8       sed  
840E: 00 2F    brk  #$2F
8410: 80       ill  $80
8411: 00 0B    brk  #$0B
8413: E0 00    cpx  #$00
8415: 0B       ill  $0B
8416: E8       inx  
8417: 0B       ill  $0B
8418: E0 02    cpx  #$02
841A: F8       sed  
841B: 00 2F    brk  #$2F
841D: 80       ill  $80
841E: BE 00 0B ldx  $0B00,y
8421: E0 02    cpx  #$02
8423: A8       tay  
8424: BF       ill  $BF
8425: 80       ill  $80
8426: 0B       ill  $0B
8427: E0 2F    cpx  #$2F
8429: EA       nop  
842A: AB       ill  $AB
842B: F8       sed  
842C: 0B       ill  $0B
842D: FA       ill  $FA
842E: AA       tax  
842F: BE 02 FE ldx  $FE02,y
8432: AA       tax  
8433: BF       ill  $BF
8434: 80       ill  $80
8435: 00 0B    brk  #$0B
8437: F8       sed  
8438: 00 0B    brk  #$0B
843A: F8       sed  
843B: 00 BE    brk  #$BE
843D: 02       ill  $02
843E: FE AA BF inc  $BFAA,x
8441: 80       ill  $80
8442: BF       ill  $BF
8443: 80       ill  $80
8444: 0B       ill  $0B
8445: E0 00    cpx  #$00
8447: 00 00    brk  #$00
8449: 3E AA AA rol  $AAAA,x
844C: BC 0E AA ldy  $AA0E,x
844F: AA       tax  
8450: EA       nop  
8451: AA       tax  
8452: AF       ill  $AF
8453: 00 FA    brk  #$FA
8455: AA       tax  
8456: AB       ill  $AB
8457: C0 00    cpy  #$00
8459: 00 FF    brk  #$FF
845B: FF       ill  $FF
845C: FF       ill  $FF
845D: FF       ill  $FF
845E: FF       ill  $FF
845F: FF       ill  $FF
8460: AA       tax  
8461: AA       tax  
8462: EA       nop  
8463: AA       tax  
8464: BC 00 00 ldy  $0000,x
8467: 3F       ill  $3F
8468: FF       ill  $FF
8469: C0 00    cpy  #$00
846B: 00 00    brk  #$00
846D: 00 00    brk  #$00
846F: 55 44    eor  $44,x
8471: 14       ill  $14
8472: 40       rti  
8473: 45 50    eor  $50
8475: 05 50    ora  $50
8477: 10 15    bpl  $848E
8479: 45 04    eor  $04
847B: F0 0F    beq  $848C
847D: F3       ill  $F3
847E: 0F       ill  $0F
847F: 03       ill  $03
8480: 03       ill  $03
8481: FC       ill  $FC
8482: F0 C0    beq  $8444
8484: FC       ill  $FC
8485: FC       ill  $FC
8486: F3       ill  $F3
8487: 3F       ill  $3F
8488: C0 C0    cpy  #$C0
848A: CF       ill  $CF
848B: F3       ill  $F3
848C: FC       ill  $FC
848D: C3       ill  $C3
848E: CC 0F 0F cpy  $0F0F
8491: F3       ill  $F3
8492: 3C       ill  $3C
8493: C3       ill  $C3
8494: CF       ill  $CF
8495: F3       ill  $F3
8496: F0 30    beq  $84C8
8498: CF       ill  $CF
8499: 03       ill  $03
849A: C3       ill  $C3
849B: FC       ill  $FC
849C: CF       ill  $CF
849D: 3F       ill  $3F
849E: 00 C0    brk  #$C0
84A0: CF       ill  $CF
84A1: 3C       ill  $3C
84A2: CF       ill  $CF
84A3: F3       ill  $F3
84A4: FC       ill  $FC
84A5: FC       ill  $FC
84A6: FF       ill  $FF
84A7: 30 F3    bmi  $849C
84A9: C0 FF    cpy  #$FF
84AB: 33       ill  $33
84AC: C3       ill  $C3
84AD: C0 FF    cpy  #$FF
84AF: 30 CC    bmi  $847D
84B1: F3       ill  $F3
84B2: F3       ill  $F3
84B3: F3       ill  $F3
84B4: FC       ill  $FC
84B5: F3       ill  $F3
84B6: 3F       ill  $3F
84B7: CF       ill  $CF
84B8: F0 3F    beq  $84F9
84BA: C0 C3    cpy  #$C3
84BC: F3       ill  $F3
84BD: FC       ill  $FC
84BE: 0C       ill  $0C
84BF: 00 33    brk  #$33
84C1: C0 F0    cpy  #$F0
84C3: CF       ill  $CF
84C4: 33       ill  $33
84C5: CC 3F C0 cpy  $C03F
84C8: C3       ill  $C3
84C9: F3       ill  $F3
84CA: FC       ill  $FC
84CB: FF       ill  $FF
84CC: 00 3F    brk  #$3F
84CE: F3       ill  $F3
84CF: 3F       ill  $3F
84D0: 3F       ill  $3F
84D1: 33       ill  $33
84D2: 3C       ill  $3C
84D3: C3       ill  $C3
84D4: CF       ill  $CF
84D5: F0 3E    beq  $8515
84D7: 94 16    sty  $16,x
84D9: BC AA AA ldy  $AAAA,x
84DC: AA       tax  
84DD: AA       tax  
84DE: 00 00    brk  #$00
84E0: FF       ill  $FF
84E1: FF       ill  $FF
84E2: FF       ill  $FF
84E3: FF       ill  $FF
84E4: FF       ill  $FF
84E5: FF       ill  $FF
84E6: FF       ill  $FF
84E7: FF       ill  $FF
84E8: FF       ill  $FF
84E9: FF       ill  $FF
84EA: FF       ill  $FF
84EB: FF       ill  $FF
84EC: FF       ill  $FF
84ED: FF       ill  $FF
84EE: FF       ill  $FF
84EF: FF       ill  $FF
84F0: FF       ill  $FF
84F1: FF       ill  $FF
84F2: FF       ill  $FF
84F3: FF       ill  $FF
84F4: FF       ill  $FF
84F5: FF       ill  $FF
84F6: FF       ill  $FF
84F7: FF       ill  $FF
84F8: FF       ill  $FF
84F9: FF       ill  $FF
84FA: FF       ill  $FF
84FB: FF       ill  $FF
84FC: FF       ill  $FF
84FD: FF       ill  $FF
84FE: FF       ill  $FF
84FF: FF       ill  $FF
8500: BE 00 BE ldx  $BE00,y
8503: 00 2F    brk  #$2F
8505: 80       ill  $80
8506: 02       ill  $02
8507: F8       sed  
8508: 0B       ill  $0B
8509: E0 0B    cpx  #$0B
850B: E0 02    cpx  #$02
850D: F8       sed  
850E: 00 2F    brk  #$2F
8510: 80       ill  $80
8511: 00 0B    brk  #$0B
8513: E0 00    cpx  #$00
8515: 0B       ill  $0B
8516: E0 0B    cpx  #$0B
8518: E0 02    cpx  #$02
851A: F8       sed  
851B: 00 2F    brk  #$2F
851D: 80       ill  $80
851E: BE 00 0B ldx  $0B00,y
8521: E0 0A    cpx  #$0A
8523: FA       ill  $FA
8524: BF       ill  $BF
8525: 80       ill  $80
8526: 0B       ill  $0B
8527: E0 2F    cpx  #$2F
8529: A0 0A    ldy  #$0A
852B: F8       sed  
852C: 0B       ill  $0B
852D: F8       sed  
852E: 00 BE    brk  #$BE
8530: 02       ill  $02
8531: FA       ill  $FA
8532: 00 AF    brk  #$AF
8534: 80       ill  $80
8535: 00 0B    brk  #$0B
8537: F8       sed  
8538: 00 0B    brk  #$0B
853A: F8       sed  
853B: 00 BE    brk  #$BE
853D: 02       ill  $02
853E: FA       ill  $FA
853F: 00 AF    brk  #$AF
8541: 80       ill  $80
8542: BF       ill  $BF
8543: 80       ill  $80
8544: 0B       ill  $0B
8545: E0 00    cpx  #$00
8547: 00 00    brk  #$00
8549: 0F       ill  $0F
854A: FF       ill  $FF
854B: FF       ill  $FF
854C: FC       ill  $FC
854D: 0E AA AA asl  $AAAA
8550: EA       nop  
8551: AA       tax  
8552: AF       ill  $AF
8553: 00 3E    brk  #$3E
8555: AA       tax  
8556: AB       ill  $AB
8557: C0 00    cpy  #$00
8559: 00 FA    brk  #$FA
855B: AA       tax  
855C: AA       tax  
855D: AA       tax  
855E: AA       tax  
855F: AE AA AA ldx  $AAAA
8562: EA       nop  
8563: AA       tax  
8564: AF       ill  $AF
8565: 00 00    brk  #$00
8567: 3E AB C0 rol  $C0AB,x
856A: 00 00    brk  #$00
856C: 00 00    brk  #$00
856E: 00 50    brk  #$50
8570: 44       ill  $44
8571: 14       ill  $14
8572: 40       rti  
8573: 44       ill  $44
8574: 00 04    brk  #$04
8576: 10 44    bpl  $85BC
8578: 14       ill  $14
8579: 05 04    ora  $04
857B: F0 0F    beq  $858C
857D: F3       ill  $F3
857E: 0F       ill  $0F
857F: 03       ill  $03
8580: 03       ill  $03
8581: C0 F0    cpy  #$F0
8583: C0 30    cpy  #$30
8585: C0 F3    cpy  #$F3
8587: 30 C3    bmi  $854C
8589: 30 CF    bmi  $855A
858B: 03       ill  $03
858C: C0 C3    cpy  #$C3
858E: CC 0F 0F cpy  $0F0F
8591: 03       ill  $03
8592: 3C       ill  $3C
8593: C3       ill  $C3
8594: CF       ill  $CF
8595: 03       ill  $03
8596: CC 30 CF cpy  $CF30
8599: 03       ill  $03
859A: C3       ill  $C3
859B: C0 CF    cpy  #$CF
859D: 3C       ill  $3C
859E: C3       ill  $C3
859F: 30 CF    bmi  $8570
85A1: 3C       ill  $3C
85A2: CF       ill  $CF
85A3: 03       ill  $03
85A4: C0 F3    cpy  #$F3
85A6: F0 30    beq  $85D8
85A8: F3       ill  $F3
85A9: C0 F0    cpy  #$F0
85AB: 33       ill  $33
85AC: C3       ill  $C3
85AD: C0 F0    cpy  #$F0
85AF: 30 CC    bmi  $857D
85B1: F3       ill  $F3
85B2: F3       ill  $F3
85B3: F3       ill  $F3
85B4: C0 F3    cpy  #$F3
85B6: 30 CF    bmi  $8587
85B8: 00 F0    brk  #$F0
85BA: F0 C0    beq  $857C
85BC: 33       ill  $33
85BD: 0C       ill  $0C
85BE: 0C       ill  $0C
85BF: 00 33    brk  #$33
85C1: C0 F0    cpy  #$F0
85C3: CF       ill  $CF
85C4: 33       ill  $33
85C5: CC F0 F0 cpy  $F0F0
85C8: C0 33    cpy  #$33
85CA: 0C       ill  $0C
85CB: C0 00    cpy  #$00
85CD: 33       ill  $33
85CE: 33       ill  $33
85CF: 30 30    bmi  $8601
85D1: 33       ill  $33
85D2: 3C       ill  $3C
85D3: C3       ill  $C3
85D4: CF       ill  $CF
85D5: 30 3E    bmi  $8615
85D7: 94 16    sty  $16,x
85D9: BC 55 55 ldy  $5555,x
85DC: FF       ill  $FF
85DD: FF       ill  $FF
85DE: 00 00    brk  #$00
85E0: FF       ill  $FF
85E1: FF       ill  $FF
85E2: FF       ill  $FF
85E3: FF       ill  $FF
85E4: FF       ill  $FF
85E5: FF       ill  $FF
85E6: FF       ill  $FF
85E7: FF       ill  $FF
85E8: FF       ill  $FF
85E9: FF       ill  $FF
85EA: FF       ill  $FF
85EB: FF       ill  $FF
85EC: FF       ill  $FF
85ED: FF       ill  $FF
85EE: FF       ill  $FF
85EF: FF       ill  $FF
85F0: FF       ill  $FF
85F1: FF       ill  $FF
85F2: FF       ill  $FF
85F3: FF       ill  $FF
85F4: FF       ill  $FF
85F5: FF       ill  $FF
85F6: FF       ill  $FF
85F7: FF       ill  $FF
85F8: FF       ill  $FF
85F9: FF       ill  $FF
85FA: FF       ill  $FF
85FB: FF       ill  $FF
85FC: FF       ill  $FF
85FD: FF       ill  $FF
85FE: FF       ill  $FF
85FF: FF       ill  $FF
8600: BE 00 BE ldx  $BE00,y
8603: 00 2F    brk  #$2F
8605: 80       ill  $80
8606: 02       ill  $02
8607: F8       sed  
8608: 0B       ill  $0B
8609: E0 0B    cpx  #$0B
860B: E0 02    cpx  #$02
860D: F8       sed  
860E: 00 2F    brk  #$2F
8610: 80       ill  $80
8611: 00 0B    brk  #$0B
8613: E0 00    cpx  #$00
8615: 0B       ill  $0B
8616: E0 0B    cpx  #$0B
8618: E0 02    cpx  #$02
861A: F8       sed  
861B: 00 2F    brk  #$2F
861D: 80       ill  $80
861E: BE 00 0B ldx  $0B00,y
8621: E0 0B    cpx  #$0B
8623: FE BF 80 inc  $80BF,x
8626: 0B       ill  $0B
8627: E0 2F    cpx  #$2F
8629: 80       ill  $80
862A: 02       ill  $02
862B: F8       sed  
862C: 0B       ill  $0B
862D: F8       sed  
862E: 00 BE    brk  #$BE
8630: 02       ill  $02
8631: F8       sed  
8632: 00 2F    brk  #$2F
8634: 80       ill  $80
8635: 00 0B    brk  #$0B
8637: F8       sed  
8638: 00 0B    brk  #$0B
863A: F8       sed  
863B: 00 BE    brk  #$BE
863D: 02       ill  $02
863E: F8       sed  
863F: 00 2F    brk  #$2F
8641: 80       ill  $80
8642: BF       ill  $BF
8643: 80       ill  $80
8644: 0B       ill  $0B
8645: E0 02    cpx  #$02
8647: A8       tay  
8648: 00 00    brk  #$00
864A: 00 00    brk  #$00
864C: 00 0F    brk  #$0F
864E: AA       tax  
864F: AA       tax  
8650: EA       nop  
8651: AA       tax  
8652: BC 00 0F ldy  $0F00,x
8655: FF       ill  $FF
8656: FF       ill  $FF
8657: C0 00    cpy  #$00
8659: 00 3E    brk  #$3E
865B: AA       tax  
865C: AA       tax  
865D: AA       tax  
865E: AA       tax  
865F: AE AA AA ldx  $AAAA
8662: EA       nop  
8663: AA       tax  
8664: AF       ill  $AF
8665: 00 00    brk  #$00
8667: 3E AB C0 rol  $C0AB,x
866A: 00 00    brk  #$00
866C: 00 00    brk  #$00
866E: 00 50    brk  #$50
8670: 44       ill  $44
8671: 14       ill  $14
8672: 40       rti  
8673: 44       ill  $44
8674: 00 04    brk  #$04
8676: 11 41    ora  ($41),y
8678: 14       ill  $14
8679: 05 04    ora  $04
867B: F0 0F    beq  $868C
867D: F3       ill  $F3
867E: 0F       ill  $0F
867F: 03       ill  $03
8680: 03       ill  $03
8681: C0 F0    cpy  #$F0
8683: C0 30    cpy  #$30
8685: C0 F3    cpy  #$F3
8687: 30 CC    bmi  $8655
8689: 3C       ill  $3C
868A: CF       ill  $CF
868B: 03       ill  $03
868C: C0 C3    cpy  #$C3
868E: CC 0F 0F cpy  $0F0F
8691: 03       ill  $03
8692: 3C       ill  $3C
8693: C3       ill  $C3
8694: CF       ill  $CF
8695: 03       ill  $03
8696: CC 30 CF cpy  $CF30
8699: 03       ill  $03
869A: C3       ill  $C3
869B: C0 CF    cpy  #$CF
869D: 3C       ill  $3C
869E: CC 3C CF cpy  $CF3C
86A1: 3C       ill  $3C
86A2: CF       ill  $CF
86A3: 03       ill  $03
86A4: C0 F3    cpy  #$F3
86A6: F0 30    beq  $86D8
86A8: F3       ill  $F3
86A9: C0 F0    cpy  #$F0
86AB: 33       ill  $33
86AC: C3       ill  $C3
86AD: C0 F0    cpy  #$F0
86AF: 30 CC    bmi  $867D
86B1: F3       ill  $F3
86B2: 03       ill  $03
86B3: 03       ill  $03
86B4: C0 F3    cpy  #$F3
86B6: 30 CF    bmi  $8687
86B8: 00 CF    brk  #$CF
86BA: 30 C0    bmi  $867C
86BC: 33       ill  $33
86BD: 0C       ill  $0C
86BE: 0C       ill  $0C
86BF: 00 33    brk  #$33
86C1: C0 F0    cpy  #$F0
86C3: CF       ill  $CF
86C4: 33       ill  $33
86C5: CC CF 30 cpy  $30CF
86C8: C0 33    cpy  #$33
86CA: 0C       ill  $0C
86CB: C0 00    cpy  #$00
86CD: 33       ill  $33
86CE: 33       ill  $33
86CF: 30 30    bmi  $8701
86D1: 33       ill  $33
86D2: 3C       ill  $3C
86D3: C3       ill  $C3
86D4: C0 30    cpy  #$30
86D6: 3E 94 16 rol  $1694,x
86D9: BC 55 55 ldy  $5555,x
86DC: FF       ill  $FF
86DD: FF       ill  $FF
86DE: 00 00    brk  #$00
86E0: FF       ill  $FF
86E1: FF       ill  $FF
86E2: FF       ill  $FF
86E3: FF       ill  $FF
86E4: FF       ill  $FF
86E5: FF       ill  $FF
86E6: FF       ill  $FF
86E7: FF       ill  $FF
86E8: FF       ill  $FF
86E9: FF       ill  $FF
86EA: FF       ill  $FF
86EB: FF       ill  $FF
86EC: FF       ill  $FF
86ED: FF       ill  $FF
86EE: FF       ill  $FF
86EF: FF       ill  $FF
86F0: FF       ill  $FF
86F1: FF       ill  $FF
86F2: FF       ill  $FF
86F3: FF       ill  $FF
86F4: FF       ill  $FF
86F5: FF       ill  $FF
86F6: FF       ill  $FF
86F7: FF       ill  $FF
86F8: FF       ill  $FF
86F9: FF       ill  $FF
86FA: FF       ill  $FF
86FB: FF       ill  $FF
86FC: FF       ill  $FF
86FD: FF       ill  $FF
86FE: FF       ill  $FF
86FF: FF       ill  $FF
8700: BE 00 BE ldx  $BE00,y
8703: 00 2F    brk  #$2F
8705: 80       ill  $80
8706: 02       ill  $02
8707: F8       sed  
8708: 0B       ill  $0B
8709: E0 0B    cpx  #$0B
870B: E0 02    cpx  #$02
870D: F8       sed  
870E: 00 2F    brk  #$2F
8710: 80       ill  $80
8711: 00 0B    brk  #$0B
8713: E0 00    cpx  #$00
8715: 0B       ill  $0B
8716: E0 0B    cpx  #$0B
8718: E0 02    cpx  #$02
871A: F8       sed  
871B: 00 2F    brk  #$2F
871D: 80       ill  $80
871E: BE 00 0B ldx  $0B00,y
8721: E0 0B    cpx  #$0B
8723: FE BF 80 inc  $80BF,x
8726: 0B       ill  $0B
8727: E0 2F    cpx  #$2F
8729: 80       ill  $80
872A: 02       ill  $02
872B: F8       sed  
872C: 0B       ill  $0B
872D: F8       sed  
872E: 00 BE    brk  #$BE
8730: 02       ill  $02
8731: F8       sed  
8732: 00 2F    brk  #$2F
8734: 80       ill  $80
8735: 00 0B    brk  #$0B
8737: F8       sed  
8738: 00 0B    brk  #$0B
873A: F8       sed  
873B: 00 BE    brk  #$BE
873D: 02       ill  $02
873E: F8       sed  
873F: 00 2F    brk  #$2F
8741: 80       ill  $80
8742: BF       ill  $BF
8743: 80       ill  $80
8744: 0B       ill  $0B
8745: E0 0A    cpx  #$0A
8747: FA       ill  $FA
8748: 00 00    brk  #$00
874A: 00 00    brk  #$00
874C: 00 03    brk  #$03
874E: EA       nop  
874F: AA       tax  
8750: EA       nop  
8751: AA       tax  
8752: F0 00    beq  $8754
8754: 00 00    brk  #$00
8756: 00 00    brk  #$00
8758: 00 00    brk  #$00
875A: 0F       ill  $0F
875B: AA       tax  
875C: AA       tax  
875D: AA       tax  
875E: AA       tax  
875F: AE AB AA ldx  $AAAB
8762: EA       nop  
8763: BA       tsx  
8764: AF       ill  $AF
8765: 00 00    brk  #$00
8767: 3E AB C0 rol  $C0AB,x
876A: 00 00    brk  #$00
876C: 00 00    brk  #$00
876E: 00 51    brk  #$51
8770: 44       ill  $44
8771: 14       ill  $14
8772: 40       rti  
8773: 44       ill  $44
8774: 00 04    brk  #$04
8776: 11 41    ora  ($41),y
8778: 14       ill  $14
8779: 05 04    ora  $04
877B: F0 0C    beq  $8789
877D: 03       ill  $03
877E: 0F       ill  $0F
877F: 03       ill  $03
8780: 03       ill  $03
8781: C0 F0    cpy  #$F0
8783: C0 30    cpy  #$30
8785: C0 F3    cpy  #$F3
8787: 30 CC    bmi  $8755
8789: 3C       ill  $3C
878A: CF       ill  $CF
878B: 03       ill  $03
878C: C0 C3    cpy  #$C3
878E: CC 0F 0F cpy  $0F0F
8791: 03       ill  $03
8792: 3C       ill  $3C
8793: C3       ill  $C3
8794: CF       ill  $CF
8795: 03       ill  $03
8796: CC 30 CF cpy  $CF30
8799: 03       ill  $03
879A: C3       ill  $C3
879B: C0 CF    cpy  #$CF
879D: 3C       ill  $3C
879E: CC 3C CF cpy  $CF3C
87A1: 3C       ill  $3C
87A2: CF       ill  $CF
87A3: 03       ill  $03
87A4: C0 F3    cpy  #$F3
87A6: F0 0C    beq  $87B4
87A8: C3       ill  $C3
87A9: C0 F0    cpy  #$F0
87AB: 33       ill  $33
87AC: C3       ill  $C3
87AD: C0 F0    cpy  #$F0
87AF: 30 CC    bmi  $877D
87B1: F3       ill  $F3
87B2: 03       ill  $03
87B3: 03       ill  $03
87B4: C0 F3    cpy  #$F3
87B6: 33       ill  $33
87B7: CF       ill  $CF
87B8: 00 CC    brk  #$CC
87BA: 30 C0    bmi  $877C
87BC: 33       ill  $33
87BD: 0C       ill  $0C
87BE: 0C       ill  $0C
87BF: 00 33    brk  #$33
87C1: C0 F0    cpy  #$F0
87C3: CF       ill  $CF
87C4: 33       ill  $33
87C5: CC CC 30 cpy  $30CC
87C8: C0 33    cpy  #$33
87CA: 0C       ill  $0C
87CB: C0 00    cpy  #$00
87CD: 30 33    bmi  $8802
87CF: 30 30    bmi  $8801
87D1: 33       ill  $33
87D2: 3C       ill  $3C
87D3: C3       ill  $C3
87D4: C0 30    cpy  #$30
87D6: 3E 94 16 rol  $1694,x
87D9: BC 00 00 ldy  $0000,x
87DC: 00 00    brk  #$00
87DE: 00 00    brk  #$00
87E0: FF       ill  $FF
87E1: FF       ill  $FF
87E2: FF       ill  $FF
87E3: FF       ill  $FF
87E4: FF       ill  $FF
87E5: FF       ill  $FF
87E6: FF       ill  $FF
87E7: FF       ill  $FF
87E8: FF       ill  $FF
87E9: FF       ill  $FF
87EA: FF       ill  $FF
87EB: FF       ill  $FF
87EC: FF       ill  $FF
87ED: FF       ill  $FF
87EE: FF       ill  $FF
87EF: FF       ill  $FF
87F0: FF       ill  $FF
87F1: FF       ill  $FF
87F2: FF       ill  $FF
87F3: FF       ill  $FF
87F4: FF       ill  $FF
87F5: FF       ill  $FF
87F6: FF       ill  $FF
87F7: FF       ill  $FF
87F8: FF       ill  $FF
87F9: FF       ill  $FF
87FA: FF       ill  $FF
87FB: FF       ill  $FF
87FC: FF       ill  $FF
87FD: FF       ill  $FF
87FE: FF       ill  $FF
87FF: FF       ill  $FF
8800: BE 00 BE ldx  $BE00,y
8803: 00 2F    brk  #$2F
8805: 80       ill  $80
8806: 0B       ill  $0B
8807: F8       sed  
8808: 0B       ill  $0B
8809: E0 0B    cpx  #$0B
880B: E0 02    cpx  #$02
880D: F8       sed  
880E: 00 BF    brk  #$BF
8810: 80       ill  $80
8811: 00 0B    brk  #$0B
8813: E0 00    cpx  #$00
8815: 0B       ill  $0B
8816: E0 0B    cpx  #$0B
8818: E0 02    cpx  #$02
881A: F8       sed  
881B: 00 BF    brk  #$BF
881D: 80       ill  $80
881E: BE 00 0B ldx  $0B00,y
8821: E0 0B    cpx  #$0B
8823: FE BF 80 inc  $80BF,x
8826: 0B       ill  $0B
8827: E0 2F    cpx  #$2F
8829: 80       ill  $80
882A: 02       ill  $02
882B: F8       sed  
882C: 0B       ill  $0B
882D: F8       sed  
882E: 00 BE    brk  #$BE
8830: 02       ill  $02
8831: F8       sed  
8832: 00 2F    brk  #$2F
8834: 80       ill  $80
8835: 00 0B    brk  #$0B
8837: F8       sed  
8838: 00 0B    brk  #$0B
883A: F8       sed  
883B: 00 BE    brk  #$BE
883D: 02       ill  $02
883E: F8       sed  
883F: 00 2F    brk  #$2F
8841: 80       ill  $80
8842: BF       ill  $BF
8843: 80       ill  $80
8844: 0B       ill  $0B
8845: E0 0B    cpx  #$0B
8847: FE 00 00 inc  $0000,x
884A: 00 00    brk  #$00
884C: 00 00    brk  #$00
884E: FA       ill  $FA
884F: AA       tax  
8850: EA       nop  
8851: AB       ill  $AB
8852: C0 00    cpy  #$00
8854: 00 00    brk  #$00
8856: 00 00    brk  #$00
8858: 00 00    brk  #$00
885A: 03       ill  $03
885B: EA       nop  
885C: BF       ill  $BF
885D: FF       ill  $FF
885E: FE AE AB inc  $ABAE,x
8861: AA       tax  
8862: EA       nop  
8863: BA       tsx  
8864: AF       ill  $AF
8865: 00 00    brk  #$00
8867: 3E AB C0 rol  $C0AB,x
886A: 00 00    brk  #$00
886C: 00 00    brk  #$00
886E: 00 50    brk  #$50
8870: 05 54    ora  $54
8872: 40       rti  
8873: 45 50    eor  $50
8875: 04       ill  $04
8876: 11 41    ora  ($41),y
8878: 15 45    ora  $45,x
887A: 54       ill  $54
887B: FF       ill  $FF
887C: CC 03 FF cpy  $FF03
887F: 3F       ill  $3F
8880: F3       ill  $F3
8881: FC       ill  $FC
8882: FF       ill  $FF
8883: C0 30    cpy  #$30
8885: FF       ill  $FF
8886: C3       ill  $C3
8887: 30 CC    bmi  $8855
8889: 3C       ill  $3C
888A: CF       ill  $CF
888B: 03       ill  $03
888C: FC       ill  $FC
888D: C3       ill  $C3
888E: 0C       ill  $0C
888F: 0F       ill  $0F
8890: 0F       ill  $0F
8891: F3       ill  $F3
8892: FC       ill  $FC
8893: C0 CF    cpy  #$CF
8895: F3       ill  $F3
8896: CC 30 FF cpy  $FF30
8899: 03       ill  $03
889A: C3       ill  $C3
889B: FC       ill  $FC
889C: FF       ill  $FF
889D: 3C       ill  $3C
889E: CC 3C FF cpy  $FF3C
88A1: 30 CF    bmi  $8872
88A3: 03       ill  $03
88A4: FC       ill  $FC
88A5: F3       ill  $F3
88A6: FF       ill  $FF
88A7: 03       ill  $03
88A8: 03       ill  $03
88A9: FC       ill  $FC
88AA: FF       ill  $FF
88AB: 3F       ill  $3F
88AC: C3       ill  $C3
88AD: C0 F0    cpy  #$F0
88AF: 3F       ill  $3F
88B0: CF       ill  $CF
88B1: F3       ill  $F3
88B2: 03       ill  $03
88B3: 03       ill  $03
88B4: FC       ill  $FC
88B5: C3       ill  $C3
88B6: 30 0F    bmi  $88C7
88B8: F0 CC    beq  $8886
88BA: 30 CF    bmi  $888B
88BC: F3       ill  $F3
88BD: FC       ill  $FC
88BE: FF       ill  $FF
88BF: 00 3F    brk  #$3F
88C1: C0 F0    cpy  #$F0
88C3: FF       ill  $FF
88C4: 3F       ill  $3F
88C5: CC CC 30 cpy  $30CC
88C8: CF       ill  $CF
88C9: F3       ill  $F3
88CA: FC       ill  $FC
88CB: FF       ill  $FF
88CC: 00 30    brk  #$30
88CE: F3       ill  $F3
88CF: 30 30    bmi  $8901
88D1: 33       ill  $33
88D2: FC       ill  $FC
88D3: C0 CF    cpy  #$CF
88D5: F0 16    beq  $88ED
88D7: BC 3E 94 ldy  $943E,x
88DA: 00 00    brk  #$00
88DC: 00 00    brk  #$00
88DE: 00 00    brk  #$00
88E0: FF       ill  $FF
88E1: FF       ill  $FF
88E2: FF       ill  $FF
88E3: FF       ill  $FF
88E4: FF       ill  $FF
88E5: FF       ill  $FF
88E6: FF       ill  $FF
88E7: FF       ill  $FF
88E8: FF       ill  $FF
88E9: FF       ill  $FF
88EA: FF       ill  $FF
88EB: FF       ill  $FF
88EC: FF       ill  $FF
88ED: FF       ill  $FF
88EE: FF       ill  $FF
88EF: FF       ill  $FF
88F0: FF       ill  $FF
88F1: FF       ill  $FF
88F2: FF       ill  $FF
88F3: FF       ill  $FF
88F4: FF       ill  $FF
88F5: FF       ill  $FF
88F6: FF       ill  $FF
88F7: FF       ill  $FF
88F8: FF       ill  $FF
88F9: FF       ill  $FF
88FA: FF       ill  $FF
88FB: FF       ill  $FF
88FC: FF       ill  $FF
88FD: FF       ill  $FF
88FE: FF       ill  $FF
88FF: FF       ill  $FF
8900: BE 00 BE ldx  $BE00,y
8903: 00 2F    brk  #$2F
8905: 80       ill  $80
8906: 2F       ill  $2F
8907: F8       sed  
8908: 0B       ill  $0B
8909: E0 0B    cpx  #$0B
890B: E0 02    cpx  #$02
890D: F8       sed  
890E: 02       ill  $02
890F: FF       ill  $FF
8910: 80       ill  $80
8911: 00 0B    brk  #$0B
8913: E0 00    cpx  #$00
8915: 0B       ill  $0B
8916: E0 0B    cpx  #$0B
8918: E0 02    cpx  #$02
891A: F8       sed  
891B: 02       ill  $02
891C: FF       ill  $FF
891D: 80       ill  $80
891E: BE 00 0B ldx  $0B00,y
8921: E0 0A    cpx  #$0A
8923: FA       ill  $FA
8924: BF       ill  $BF
8925: 80       ill  $80
8926: 0B       ill  $0B
8927: E0 2F    cpx  #$2F
8929: 80       ill  $80
892A: 02       ill  $02
892B: F8       sed  
892C: 0B       ill  $0B
892D: F8       sed  
892E: 00 BE    brk  #$BE
8930: 02       ill  $02
8931: F8       sed  
8932: 00 2F    brk  #$2F
8934: 80       ill  $80
8935: 00 0B    brk  #$0B
8937: F8       sed  
8938: 00 0B    brk  #$0B
893A: F8       sed  
893B: 00 BE    brk  #$BE
893D: 02       ill  $02
893E: F8       sed  
893F: 00 2F    brk  #$2F
8941: 80       ill  $80
8942: BF       ill  $BF
8943: 80       ill  $80
8944: 0B       ill  $0B
8945: E0 0B    cpx  #$0B
8947: FE 00 00 inc  $0000,x
894A: 00 00    brk  #$00
894C: 00 00    brk  #$00
894E: 3E AA EA rol  $EAAA,x
8951: AF       ill  $AF
8952: 00 00    brk  #$00
8954: 00 00    brk  #$00
8956: 00 00    brk  #$00
8958: 00 00    brk  #$00
895A: 00 FA    brk  #$FA
895C: AF       ill  $AF
895D: 00 0F    brk  #$0F
895F: FE AC AA inc  $AAAC,x
8962: EA       nop  
8963: 8E AF 00 stx  $00AF
8966: 00 3E    brk  #$3E
8968: AB       ill  $AB
8969: C0 00    cpy  #$00
896B: 00 00    brk  #$00
896D: 00 00    brk  #$00
896F: 51 44    eor  ($44),y
8971: 14       ill  $14
8972: 44       ill  $44
8973: 44       ill  $44
8974: 00 04    brk  #$04
8976: 51 41    eor  ($41),y
8978: 10 05    bpl  $897F
897A: 10 F0    bpl  $896C
897C: CC 03 0F cpy  $0F03
897F: 3C       ill  $3C
8980: 33       ill  $33
8981: 00 C3    brk  #$C3
8983: 00 30    brk  #$30
8985: 03       ill  $03
8986: C3       ill  $C3
8987: 33       ill  $33
8988: CC 3C CF cpy  $CF3C
898B: 03       ill  $03
898C: 00 C3    brk  #$C3
898E: 0C       ill  $0C
898F: 0C       ill  $0C
8990: 0C       ill  $0C
8991: 03       ill  $03
8992: 30 CC    bmi  $8960
8994: CC 03 CC cpy  $CC03
8997: 30 CF    bmi  $8968
8999: 03       ill  $03
899A: 03       ill  $03
899B: 00 CF    brk  #$CF
899D: 3C       ill  $3C
899E: CC 3C CF cpy  $CF3C
89A1: 30 CF    bmi  $8972
89A3: 03       ill  $03
89A4: 00 F3    brk  #$F3
89A6: C0 0C    cpy  #$0C
89A8: C3       ill  $C3
89A9: 0C       ill  $0C
89AA: C0 33    cpy  #$33
89AC: 03       ill  $03
89AD: 00 F0    brk  #$F0
89AF: 30 CC    bmi  $897D
89B1: F3       ill  $F3
89B2: 03       ill  $03
89B3: 03       ill  $03
89B4: 00 C3    brk  #$C3
89B6: 30 0C    bmi  $89C4
89B8: 00 CF    brk  #$CF
89BA: 30 CC    bmi  $8988
89BC: 33       ill  $33
89BD: 0C       ill  $0C
89BE: CC 00 33 cpy  $3300
89C1: C0 C0    cpy  #$C0
89C3: CF       ill  $CF
89C4: 33       ill  $33
89C5: 0C       ill  $0C
89C6: CF       ill  $CF
89C7: 30 CC    bmi  $8995
89C9: 33       ill  $33
89CA: 0C       ill  $0C
89CB: 03       ill  $03
89CC: 00 30    brk  #$30
89CE: F3       ill  $F3
89CF: 30 30    bmi  $8A01
89D1: 33       ill  $33
89D2: 3C       ill  $3C
89D3: CC CC 00 cpy  $00CC
89D6: 16 BF    asl  $BF,x
89D8: FE 94 15 inc  $1594,x
89DB: 55 55    eor  $55,x
89DD: 54       ill  $54
89DE: 00 00    brk  #$00
89E0: FF       ill  $FF
89E1: FF       ill  $FF
89E2: FF       ill  $FF
89E3: FF       ill  $FF
89E4: FF       ill  $FF
89E5: FF       ill  $FF
89E6: FF       ill  $FF
89E7: FF       ill  $FF
89E8: FF       ill  $FF
89E9: FF       ill  $FF
89EA: FF       ill  $FF
89EB: FF       ill  $FF
89EC: FF       ill  $FF
89ED: FF       ill  $FF
89EE: FF       ill  $FF
89EF: FF       ill  $FF
89F0: FF       ill  $FF
89F1: FF       ill  $FF
89F2: FF       ill  $FF
89F3: FF       ill  $FF
89F4: FF       ill  $FF
89F5: FF       ill  $FF
89F6: FF       ill  $FF
89F7: FF       ill  $FF
89F8: FF       ill  $FF
89F9: FF       ill  $FF
89FA: FF       ill  $FF
89FB: FF       ill  $FF
89FC: FF       ill  $FF
89FD: FF       ill  $FF
89FE: FF       ill  $FF
89FF: FF       ill  $FF
8A00: BE 00 BE ldx  $BE00,y
8A03: 00 2F    brk  #$2F
8A05: A0 2F    ldy  #$2F
8A07: F8       sed  
8A08: 0B       ill  $0B
8A09: E0 0B    cpx  #$0B
8A0B: E0 02    cpx  #$02
8A0D: FA       ill  $FA
8A0E: 02       ill  $02
8A0F: FF       ill  $FF
8A10: 80       ill  $80
8A11: 00 0B    brk  #$0B
8A13: E0 00    cpx  #$00
8A15: 0B       ill  $0B
8A16: E0 0B    cpx  #$0B
8A18: E0 02    cpx  #$02
8A1A: FA       ill  $FA
8A1B: 02       ill  $02
8A1C: FF       ill  $FF
8A1D: 80       ill  $80
8A1E: BE 80 2B ldx  $2B80,y
8A21: E0 02    cpx  #$02
8A23: A8       tay  
8A24: BF       ill  $BF
8A25: 80       ill  $80
8A26: 0B       ill  $0B
8A27: E0 2F    cpx  #$2F
8A29: 80       ill  $80
8A2A: 02       ill  $02
8A2B: F8       sed  
8A2C: 0B       ill  $0B
8A2D: F8       sed  
8A2E: 00 BE    brk  #$BE
8A30: 02       ill  $02
8A31: F8       sed  
8A32: 00 2F    brk  #$2F
8A34: 80       ill  $80
8A35: 00 0B    brk  #$0B
8A37: F8       sed  
8A38: 00 0B    brk  #$0B
8A3A: F8       sed  
8A3B: 00 BE    brk  #$BE
8A3D: 02       ill  $02
8A3E: F8       sed  
8A3F: 00 2F    brk  #$2F
8A41: 80       ill  $80
8A42: BF       ill  $BF
8A43: 80       ill  $80
8A44: 0B       ill  $0B
8A45: E0 0B    cpx  #$0B
8A47: FE 00 00 inc  $0000,x
8A4A: 00 00    brk  #$00
8A4C: 00 00    brk  #$00
8A4E: 0F       ill  $0F
8A4F: AA       tax  
8A50: EA       nop  
8A51: BC 00 00 ldy  $0000,x
8A54: 00 00    brk  #$00
8A56: 00 00    brk  #$00
8A58: 00 00    brk  #$00
8A5A: 00 3E    brk  #$3E
8A5C: AB       ill  $AB
8A5D: FF       ill  $FF
8A5E: FC       ill  $FC
8A5F: 0E AC AA asl  $AAAC
8A62: EA       nop  
8A63: 8E AF FF stx  $FFAF
8A66: FF       ill  $FF
8A67: FE AB FF inc  $FFAB,x
8A6A: FF       ill  $FF
8A6B: C0 00    cpy  #$00
8A6D: 00 00    brk  #$00
8A6F: 51 44    eor  ($44),y
8A71: 14       ill  $14
8A72: 44       ill  $44
8A73: 44       ill  $44
8A74: 00 04    brk  #$04
8A76: 51 41    eor  ($41),y
8A78: 10 05    bpl  $8A7F
8A7A: 10 F0    bpl  $8A6C
8A7C: CC 03 0F cpy  $0F03
8A7F: 3C       ill  $3C
8A80: 33       ill  $33
8A81: 00 C3    brk  #$C3
8A83: 00 30    brk  #$30
8A85: 03       ill  $03
8A86: C3       ill  $C3
8A87: 33       ill  $33
8A88: CC 3C CF cpy  $CF3C
8A8B: 03       ill  $03
8A8C: 00 C3    brk  #$C3
8A8E: 0C       ill  $0C
8A8F: 0C       ill  $0C
8A90: 0C       ill  $0C
8A91: 03       ill  $03
8A92: 30 CC    bmi  $8A60
8A94: CC 03 CC cpy  $CC03
8A97: 30 CF    bmi  $8A68
8A99: 03       ill  $03
8A9A: 03       ill  $03
8A9B: 00 CF    brk  #$CF
8A9D: 3C       ill  $3C
8A9E: CC 3C CF cpy  $CF3C
8AA1: 30 CF    bmi  $8A72
8AA3: 03       ill  $03
8AA4: 00 F3    brk  #$F3
8AA6: C0 3C    cpy  #$3C
8AA8: 33       ill  $33
8AA9: 0C       ill  $0C
8AAA: C0 33    cpy  #$33
8AAC: 03       ill  $03
8AAD: 00 F0    brk  #$F0
8AAF: 30 CC    bmi  $8A7D
8AB1: F3       ill  $F3
8AB2: 03       ill  $03
8AB3: 03       ill  $03
8AB4: 00 C3    brk  #$C3
8AB6: 30 CC    bmi  $8A84
8AB8: 00 F0    brk  #$F0
8ABA: F0 CC    beq  $8A88
8ABC: 33       ill  $33
8ABD: 0C       ill  $0C
8ABE: CC 00 33 cpy  $3300
8AC1: C0 C0    cpy  #$C0
8AC3: CF       ill  $CF
8AC4: 33       ill  $33
8AC5: 0C       ill  $0C
8AC6: F0 F0    beq  $8AB8
8AC8: CC 33 0C cpy  $0C33
8ACB: 03       ill  $03
8ACC: 00 30    brk  #$30
8ACE: F3       ill  $F3
8ACF: 30 30    bmi  $8B01
8AD1: 33       ill  $33
8AD2: 3C       ill  $3C
8AD3: CC CC 00 cpy  $00CC
8AD6: 16 BF    asl  $BF,x
8AD8: FE 94 15 inc  $1594,x
8ADB: 55 55    eor  $55,x
8ADD: 54       ill  $54
8ADE: 00 00    brk  #$00
8AE0: FF       ill  $FF
8AE1: FF       ill  $FF
8AE2: FF       ill  $FF
8AE3: FF       ill  $FF
8AE4: FF       ill  $FF
8AE5: FF       ill  $FF
8AE6: FF       ill  $FF
8AE7: FF       ill  $FF
8AE8: FF       ill  $FF
8AE9: FF       ill  $FF
8AEA: FF       ill  $FF
8AEB: FF       ill  $FF
8AEC: FF       ill  $FF
8AED: FF       ill  $FF
8AEE: FF       ill  $FF
8AEF: FF       ill  $FF
8AF0: FF       ill  $FF
8AF1: FF       ill  $FF
8AF2: FF       ill  $FF
8AF3: FF       ill  $FF
8AF4: FF       ill  $FF
8AF5: FF       ill  $FF
8AF6: FF       ill  $FF
8AF7: FF       ill  $FF
8AF8: FF       ill  $FF
8AF9: FF       ill  $FF
8AFA: FF       ill  $FF
8AFB: FF       ill  $FF
8AFC: FF       ill  $FF
8AFD: FF       ill  $FF
8AFE: FF       ill  $FF
8AFF: FF       ill  $FF
8B00: BE AA BE ldx  $BEAA,y
8B03: 00 2F    brk  #$2F
8B05: EA       nop  
8B06: BF       ill  $BF
8B07: F8       sed  
8B08: 0B       ill  $0B
8B09: EA       nop  
8B0A: AB       ill  $AB
8B0B: E0 02    cpx  #$02
8B0D: FE AB FF inc  $FFAB,x
8B10: 80       ill  $80
8B11: 2A       rol  a
8B12: AB       ill  $AB
8B13: EA       nop  
8B14: A8       tay  
8B15: 0B       ill  $0B
8B16: EA       nop  
8B17: AB       ill  $AB
8B18: E0 02    cpx  #$02
8B1A: FE AB FF inc  $FFAB,x
8B1D: 80       ill  $80
8B1E: BF       ill  $BF
8B1F: AA       tax  
8B20: AF       ill  $AF
8B21: E0 00    cpx  #$00
8B23: 00 BF    brk  #$BF
8B25: 80       ill  $80
8B26: 0B       ill  $0B
8B27: E0 2F    cpx  #$2F
8B29: 80       ill  $80
8B2A: 02       ill  $02
8B2B: F8       sed  
8B2C: 0B       ill  $0B
8B2D: F8       sed  
8B2E: 00 BE    brk  #$BE
8B30: 02       ill  $02
8B31: F8       sed  
8B32: 00 2F    brk  #$2F
8B34: 80       ill  $80
8B35: 00 0B    brk  #$0B
8B37: F8       sed  
8B38: 00 0B    brk  #$0B
8B3A: F8       sed  
8B3B: 00 BE    brk  #$BE
8B3D: 02       ill  $02
8B3E: F8       sed  
8B3F: 00 2F    brk  #$2F
8B41: 80       ill  $80
8B42: BF       ill  $BF
8B43: 80       ill  $80
8B44: 0B       ill  $0B
8B45: E0 0A    cpx  #$0A
8B47: FA       ill  $FA
8B48: 00 00    brk  #$00
8B4A: 00 00    brk  #$00
8B4C: 00 00    brk  #$00
8B4E: 03       ill  $03
8B4F: EA       nop  
8B50: EA       nop  
8B51: F0 00    beq  $8B53
8B53: 00 00    brk  #$00
8B55: 00 00    brk  #$00
8B57: 00 00    brk  #$00
8B59: 00 00    brk  #$00
8B5B: 0F       ill  $0F
8B5C: AA       tax  
8B5D: AA       tax  
8B5E: BC 0E AC ldy  $AC0E,x
8B61: AA       tax  
8B62: FA       ill  $FA
8B63: 8E AF AA stx  $AAAF
8B66: AA       tax  
8B67: AA       tax  
8B68: AA       tax  
8B69: AA       tax  
8B6A: AB       ill  $AB
8B6B: C0 00    cpy  #$00
8B6D: FC       ill  $FC
8B6E: 00 55    brk  #$55
8B70: 45 54    eor  $54
8B72: 55 45    eor  $45,x
8B74: 50 05    bvc  $8B7B
8B76: 51 41    eor  ($41),y
8B78: 15 45    ora  $45,x
8B7A: 50 FF    bvc  $8B7B
8B7C: CC 03 FF cpy  $FF03
8B7F: 3C       ill  $3C
8B80: 33       ill  $33
8B81: FC       ill  $FC
8B82: FF       ill  $FF
8B83: 00 F0    brk  #$F0
8B85: 3F       ill  $3F
8B86: FC       ill  $FC
8B87: 3F       ill  $3F
8B88: CC 3C CF cpy  $CF3C
8B8B: F3       ill  $F3
8B8C: FC       ill  $FC
8B8D: C3       ill  $C3
8B8E: F0 FF    beq  $8B8F
8B90: CF       ill  $CF
8B91: F3       ill  $F3
8B92: F0 FF    beq  $8B93
8B94: CF       ill  $CF
8B95: F3       ill  $F3
8B96: F0 30    beq  $8BC8
8B98: FF       ill  $FF
8B99: 3F       ill  $3F
8B9A: F3       ill  $F3
8B9B: FC       ill  $FC
8B9C: FF       ill  $FF
8B9D: 3F       ill  $3F
8B9E: 0C       ill  $0C
8B9F: 3C       ill  $3C
8BA0: FF       ill  $FF
8BA1: 3F       ill  $3F
8BA2: 0F       ill  $0F
8BA3: F3       ill  $F3
8BA4: FC       ill  $FC
8BA5: FC       ill  $FC
8BA6: FF       ill  $FF
8BA7: 3C       ill  $3C
8BA8: 33       ill  $33
8BA9: FC       ill  $FC
8BAA: FF       ill  $FF
8BAB: 3F       ill  $3F
8BAC: 3F       ill  $3F
8BAD: F0 FF    beq  $8BAE
8BAF: 30 CF    bmi  $8B80
8BB1: F3       ill  $F3
8BB2: 03       ill  $03
8BB3: 03       ill  $03
8BB4: FC       ill  $FC
8BB5: FC       ill  $FC
8BB6: 3F       ill  $3F
8BB7: CF       ill  $CF
8BB8: F0 3F    beq  $8BF9
8BBA: C0 CF    cpy  #$CF
8BBC: F3       ill  $F3
8BBD: FC       ill  $FC
8BBE: C0 00    cpy  #$00
8BC0: 3F       ill  $3F
8BC1: CF       ill  $CF
8BC2: FC       ill  $FC
8BC3: FF       ill  $FF
8BC4: 3F       ill  $3F
8BC5: 0C       ill  $0C
8BC6: 3F       ill  $3F
8BC7: C0 CF    cpy  #$CF
8BC9: F3       ill  $F3
8BCA: FC       ill  $FC
8BCB: FF       ill  $FF
8BCC: 00 30    brk  #$30
8BCE: F3       ill  $F3
8BCF: 30 30    bmi  $8C01
8BD1: 33       ill  $33
8BD2: FC       ill  $FC
8BD3: FF       ill  $FF
8BD4: CF       ill  $CF
8BD5: F0 16    beq  $8BED
8BD7: AA       tax  
8BD8: AA       tax  
8BD9: 94 16    sty  $16,x
8BDB: AA       tax  
8BDC: AA       tax  
8BDD: 94 00    sty  $00,x
8BDF: 00 FF    brk  #$FF
8BE1: FF       ill  $FF
8BE2: FF       ill  $FF
8BE3: FF       ill  $FF
8BE4: FF       ill  $FF
8BE5: FF       ill  $FF
8BE6: FF       ill  $FF
8BE7: FF       ill  $FF
8BE8: FF       ill  $FF
8BE9: FF       ill  $FF
8BEA: FF       ill  $FF
8BEB: FF       ill  $FF
8BEC: FF       ill  $FF
8BED: FF       ill  $FF
8BEE: FF       ill  $FF
8BEF: FF       ill  $FF
8BF0: FF       ill  $FF
8BF1: FF       ill  $FF
8BF2: FF       ill  $FF
8BF3: FF       ill  $FF
8BF4: FF       ill  $FF
8BF5: FF       ill  $FF
8BF6: FF       ill  $FF
8BF7: FF       ill  $FF
8BF8: FF       ill  $FF
8BF9: FF       ill  $FF
8BFA: FF       ill  $FF
8BFB: FF       ill  $FF
8BFC: FF       ill  $FF
8BFD: FF       ill  $FF
8BFE: FF       ill  $FF
8BFF: FF       ill  $FF
8C00: BF       ill  $BF
8C01: FF       ill  $FF
8C02: FE 00 2F inc  $2F00,x
8C05: FF       ill  $FF
8C06: FF       ill  $FF
8C07: F8       sed  
8C08: 0B       ill  $0B
8C09: FF       ill  $FF
8C0A: FF       ill  $FF
8C0B: E0 02    cpx  #$02
8C0D: FF       ill  $FF
8C0E: FF       ill  $FF
8C0F: FF       ill  $FF
8C10: 80       ill  $80
8C11: AF       ill  $AF
8C12: FF       ill  $FF
8C13: FF       ill  $FF
8C14: FA       ill  $FA
8C15: 0B       ill  $0B
8C16: FF       ill  $FF
8C17: FF       ill  $FF
8C18: E0 02    cpx  #$02
8C1A: FF       ill  $FF
8C1B: FF       ill  $FF
8C1C: FE 80 BF inc  $BF80,x
8C1F: FF       ill  $FF
8C20: FF       ill  $FF
8C21: E0 00    cpx  #$00
8C23: 00 BF    brk  #$BF
8C25: 80       ill  $80
8C26: 0B       ill  $0B
8C27: E0 2F    cpx  #$2F
8C29: 80       ill  $80
8C2A: 02       ill  $02
8C2B: F8       sed  
8C2C: 0B       ill  $0B
8C2D: F8       sed  
8C2E: 00 BE    brk  #$BE
8C30: 02       ill  $02
8C31: F8       sed  
8C32: 00 2F    brk  #$2F
8C34: 80       ill  $80
8C35: 00 0B    brk  #$0B
8C37: F8       sed  
8C38: 00 0B    brk  #$0B
8C3A: F8       sed  
8C3B: 00 BE    brk  #$BE
8C3D: 02       ill  $02
8C3E: F8       sed  
8C3F: 00 2F    brk  #$2F
8C41: 80       ill  $80
8C42: BF       ill  $BF
8C43: 80       ill  $80
8C44: 0B       ill  $0B
8C45: E0 02    cpx  #$02
8C47: A8       tay  
8C48: 00 00    brk  #$00
8C4A: 00 00    brk  #$00
8C4C: 00 00    brk  #$00
8C4E: 00 FA    brk  #$FA
8C50: EB       ill  $EB
8C51: C0 00    cpy  #$00
8C53: 00 00    brk  #$00
8C55: 00 00    brk  #$00
8C57: 00 00    brk  #$00
8C59: 00 00    brk  #$00
8C5B: 03       ill  $03
8C5C: EA       nop  
8C5D: AA       tax  
8C5E: BC 0E AC ldy  $AC0E,x
8C61: AA       tax  
8C62: FA       ill  $FA
8C63: AE BF AA ldx  $AABF
8C66: AA       tax  
8C67: AA       tax  
8C68: AA       tax  
8C69: AA       tax  
8C6A: AF       ill  $AF
8C6B: 00 03    brk  #$03
8C6D: FF       ill  $FF
8C6E: 00 00    brk  #$00
8C70: 00 00    brk  #$00
8C72: 00 00    brk  #$00
8C74: 00 00    brk  #$00
8C76: 00 00    brk  #$00
8C78: 00 00    brk  #$00
8C7A: 00 00    brk  #$00
8C7C: 00 00    brk  #$00
8C7E: 00 00    brk  #$00
8C80: 00 00    brk  #$00
8C82: 00 00    brk  #$00
8C84: 00 00    brk  #$00
8C86: 00 00    brk  #$00
8C88: 00 00    brk  #$00
8C8A: 00 00    brk  #$00
8C8C: 00 00    brk  #$00
8C8E: 00 00    brk  #$00
8C90: 00 00    brk  #$00
8C92: 00 00    brk  #$00
8C94: 00 00    brk  #$00
8C96: 00 00    brk  #$00
8C98: 00 00    brk  #$00
8C9A: 00 00    brk  #$00
8C9C: 00 00    brk  #$00
8C9E: 00 00    brk  #$00
8CA0: 00 00    brk  #$00
8CA2: 00 00    brk  #$00
8CA4: 00 00    brk  #$00
8CA6: 00 00    brk  #$00
8CA8: 00 00    brk  #$00
8CAA: 00 00    brk  #$00
8CAC: 00 00    brk  #$00
8CAE: 00 00    brk  #$00
8CB0: 00 00    brk  #$00
8CB2: 00 00    brk  #$00
8CB4: 00 00    brk  #$00
8CB6: 00 00    brk  #$00
8CB8: 00 00    brk  #$00
8CBA: 00 00    brk  #$00
8CBC: 00 00    brk  #$00
8CBE: 00 00    brk  #$00
8CC0: 00 00    brk  #$00
8CC2: 00 00    brk  #$00
8CC4: 00 00    brk  #$00
8CC6: 00 00    brk  #$00
8CC8: 00 00    brk  #$00
8CCA: 00 00    brk  #$00
8CCC: 00 00    brk  #$00
8CCE: 00 00    brk  #$00
8CD0: 00 00    brk  #$00
8CD2: 00 00    brk  #$00
8CD4: 00 00    brk  #$00
8CD6: 16 AA    asl  $AA,x
8CD8: AA       tax  
8CD9: 94 16    sty  $16,x
8CDB: AA       tax  
8CDC: AA       tax  
8CDD: 94 00    sty  $00,x
8CDF: 00 FF    brk  #$FF
8CE1: FF       ill  $FF
8CE2: FF       ill  $FF
8CE3: FF       ill  $FF
8CE4: FF       ill  $FF
8CE5: FF       ill  $FF
8CE6: FF       ill  $FF
8CE7: FF       ill  $FF
8CE8: FF       ill  $FF
8CE9: FF       ill  $FF
8CEA: FF       ill  $FF
8CEB: FF       ill  $FF
8CEC: FF       ill  $FF
8CED: FF       ill  $FF
8CEE: FF       ill  $FF
8CEF: FF       ill  $FF
8CF0: FF       ill  $FF
8CF1: FF       ill  $FF
8CF2: FF       ill  $FF
8CF3: FF       ill  $FF
8CF4: FF       ill  $FF
8CF5: FF       ill  $FF
8CF6: FF       ill  $FF
8CF7: FF       ill  $FF
8CF8: FF       ill  $FF
8CF9: FF       ill  $FF
8CFA: FF       ill  $FF
8CFB: FF       ill  $FF
8CFC: FF       ill  $FF
8CFD: FF       ill  $FF
8CFE: FF       ill  $FF
8CFF: FF       ill  $FF
8D00: BF       ill  $BF
8D01: FF       ill  $FF
8D02: FE 00 2F inc  $2F00,x
8D05: FF       ill  $FF
8D06: FF       ill  $FF
8D07: F8       sed  
8D08: 0B       ill  $0B
8D09: FF       ill  $FF
8D0A: FF       ill  $FF
8D0B: E0 02    cpx  #$02
8D0D: FF       ill  $FF
8D0E: FF       ill  $FF
8D0F: FF       ill  $FF
8D10: 80       ill  $80
8D11: BF       ill  $BF
8D12: FF       ill  $FF
8D13: FF       ill  $FF
8D14: FE 0B FF inc  $FF0B,x
8D17: FF       ill  $FF
8D18: E0 02    cpx  #$02
8D1A: FF       ill  $FF
8D1B: FF       ill  $FF
8D1C: FE 80 BF inc  $BF80,x
8D1F: FF       ill  $FF
8D20: FF       ill  $FF
8D21: E0 00    cpx  #$00
8D23: 00 BF    brk  #$BF
8D25: 80       ill  $80
8D26: 2B       ill  $2B
8D27: E0 2F    cpx  #$2F
8D29: 80       ill  $80
8D2A: 02       ill  $02
8D2B: F8       sed  
8D2C: 0B       ill  $0B
8D2D: F8       sed  
8D2E: 02       ill  $02
8D2F: BE 02 F8 ldx  $F802,y
8D32: 00 2F    brk  #$2F
8D34: 80       ill  $80
8D35: 00 0B    brk  #$0B
8D37: F8       sed  
8D38: 00 0B    brk  #$0B
8D3A: F8       sed  
8D3B: 02       ill  $02
8D3C: BE 02 F8 ldx  $F802,y
8D3F: 00 2F    brk  #$2F
8D41: 80       ill  $80
8D42: BF       ill  $BF
8D43: 80       ill  $80
8D44: 0B       ill  $0B
8D45: E0 00    cpx  #$00
8D47: 00 00    brk  #$00
8D49: 00 00    brk  #$00
8D4B: 00 00    brk  #$00
8D4D: 00 00    brk  #$00
8D4F: 3E EF 00 rol  $00EF,x
8D52: 00 00    brk  #$00
8D54: 00 00    brk  #$00
8D56: 00 00    brk  #$00
8D58: 00 00    brk  #$00
8D5A: 00 00    brk  #$00
8D5C: FA       ill  $FA
8D5D: AA       tax  
8D5E: BC 0E AC ldy  $AC0E,x
8D61: AA       tax  
8D62: FE AA BF inc  $BFAA,x
8D65: AA       tax  
8D66: AA       tax  
8D67: AA       tax  
8D68: AA       tax  
8D69: AA       tax  
8D6A: AF       ill  $AF
8D6B: 00 0F    brk  #$0F
8D6D: BB       ill  $BB
8D6E: C0 00    cpy  #$00
8D70: 00 00    brk  #$00
8D72: 00 00    brk  #$00
8D74: 00 00    brk  #$00
8D76: 00 00    brk  #$00
8D78: 00 00    brk  #$00
8D7A: 00 00    brk  #$00
8D7C: 00 00    brk  #$00
8D7E: 00 00    brk  #$00
8D80: 00 00    brk  #$00
8D82: 00 00    brk  #$00
8D84: 00 00    brk  #$00
8D86: 00 00    brk  #$00
8D88: 00 00    brk  #$00
8D8A: 00 00    brk  #$00
8D8C: 00 00    brk  #$00
8D8E: 00 00    brk  #$00
8D90: 00 00    brk  #$00
8D92: 00 00    brk  #$00
8D94: 00 00    brk  #$00
8D96: 00 00    brk  #$00
8D98: 00 00    brk  #$00
8D9A: 00 00    brk  #$00
8D9C: 00 00    brk  #$00
8D9E: 00 00    brk  #$00
8DA0: 00 00    brk  #$00
8DA2: 00 00    brk  #$00
8DA4: 00 00    brk  #$00
8DA6: 00 00    brk  #$00
8DA8: 00 00    brk  #$00
8DAA: 00 00    brk  #$00
8DAC: 00 00    brk  #$00
8DAE: 00 00    brk  #$00
8DB0: 00 00    brk  #$00
8DB2: 00 00    brk  #$00
8DB4: 00 00    brk  #$00
8DB6: 00 00    brk  #$00
8DB8: 00 00    brk  #$00
8DBA: 00 00    brk  #$00
8DBC: 00 00    brk  #$00
8DBE: 00 00    brk  #$00
8DC0: 00 00    brk  #$00
8DC2: 00 00    brk  #$00
8DC4: 00 00    brk  #$00
8DC6: 00 00    brk  #$00
8DC8: 00 00    brk  #$00
8DCA: 00 00    brk  #$00
8DCC: 00 00    brk  #$00
8DCE: 00 00    brk  #$00
8DD0: 00 00    brk  #$00
8DD2: 00 00    brk  #$00
8DD4: 00 00    brk  #$00
8DD6: 15 55    ora  $55,x
8DD8: 55 54    eor  $54,x
8DDA: 16 BF    asl  $BF,x
8DDC: FE 94 00 inc  $0094,x
8DDF: 00 FF    brk  #$FF
8DE1: FF       ill  $FF
8DE2: FF       ill  $FF
8DE3: FF       ill  $FF
8DE4: FF       ill  $FF
8DE5: FF       ill  $FF
8DE6: FF       ill  $FF
8DE7: FF       ill  $FF
8DE8: FF       ill  $FF
8DE9: FF       ill  $FF
8DEA: FF       ill  $FF
8DEB: FF       ill  $FF
8DEC: FF       ill  $FF
8DED: FF       ill  $FF
8DEE: FF       ill  $FF
8DEF: FF       ill  $FF
8DF0: FF       ill  $FF
8DF1: FF       ill  $FF
8DF2: FF       ill  $FF
8DF3: FF       ill  $FF
8DF4: FF       ill  $FF
8DF5: FF       ill  $FF
8DF6: FF       ill  $FF
8DF7: FF       ill  $FF
8DF8: FF       ill  $FF
8DF9: FF       ill  $FF
8DFA: FF       ill  $FF
8DFB: FF       ill  $FF
8DFC: FF       ill  $FF
8DFD: FF       ill  $FF
8DFE: FF       ill  $FF
8DFF: FF       ill  $FF
8E00: AF       ill  $AF
8E01: FF       ill  $FF
8E02: FA       ill  $FA
8E03: 00 2B    brk  #$2B
8E05: FF       ill  $FF
8E06: FF       ill  $FF
8E07: E8       inx  
8E08: 0A       asl  a
8E09: FF       ill  $FF
8E0A: FF       ill  $FF
8E0B: A0 02    ldy  #$02
8E0D: BF       ill  $BF
8E0E: FF       ill  $FF
8E0F: FE 80 AF inc  $AF80,x
8E12: FF       ill  $FF
8E13: FF       ill  $FF
8E14: FA       ill  $FA
8E15: 0A       asl  a
8E16: FF       ill  $FF
8E17: FF       ill  $FF
8E18: A0 02    ldy  #$02
8E1A: BF       ill  $BF
8E1B: FF       ill  $FF
8E1C: FE 80 AF inc  $AF80,x
8E1F: FF       ill  $FF
8E20: FF       ill  $FF
8E21: A0 00    ldy  #$00
8E23: 00 BF    brk  #$BF
8E25: AA       tax  
8E26: AF       ill  $AF
8E27: E0 2F    cpx  #$2F
8E29: 80       ill  $80
8E2A: 02       ill  $02
8E2B: F8       sed  
8E2C: 0B       ill  $0B
8E2D: FA       ill  $FA
8E2E: AA       tax  
8E2F: FE 02 F8 inc  $F802,x
8E32: 00 2F    brk  #$2F
8E34: 80       ill  $80
8E35: 00 0B    brk  #$0B
8E37: F8       sed  
8E38: 00 0B    brk  #$0B
8E3A: FA       ill  $FA
8E3B: AA       tax  
8E3C: FE 02 F8 inc  $F802,x
8E3F: 00 2F    brk  #$2F
8E41: 80       ill  $80
8E42: BF       ill  $BF
8E43: 80       ill  $80
8E44: 0B       ill  $0B
8E45: E0 00    cpx  #$00
8E47: 00 00    brk  #$00
8E49: 00 00    brk  #$00
8E4B: 00 00    brk  #$00
8E4D: 00 00    brk  #$00
8E4F: 0F       ill  $0F
8E50: FC       ill  $FC
8E51: 00 00    brk  #$00
8E53: 00 00    brk  #$00
8E55: 00 00    brk  #$00
8E57: 00 00    brk  #$00
8E59: 00 00    brk  #$00
8E5B: 00 3E    brk  #$3E
8E5D: AA       tax  
8E5E: BC 0E AC ldy  $AC0E,x
8E61: AA       tax  
8E62: FA       ill  $FA
8E63: AE AF AA ldx  $AAAF
8E66: FF       ill  $FF
8E67: FE AB FA inc  $FAAB,x
8E6A: BC 00 3E ldy  $3E00,x
8E6D: BA       tsx  
8E6E: F0 00    beq  $8E70
8E70: 00 00    brk  #$00
8E72: 00 00    brk  #$00
8E74: 00 00    brk  #$00
8E76: 00 00    brk  #$00
8E78: 00 00    brk  #$00
8E7A: 00 00    brk  #$00
8E7C: 00 00    brk  #$00
8E7E: 00 00    brk  #$00
8E80: 00 00    brk  #$00
8E82: 00 00    brk  #$00
8E84: 00 00    brk  #$00
8E86: 00 00    brk  #$00
8E88: 00 00    brk  #$00
8E8A: 00 00    brk  #$00
8E8C: 00 00    brk  #$00
8E8E: 00 00    brk  #$00
8E90: 00 00    brk  #$00
8E92: 00 00    brk  #$00
8E94: 00 00    brk  #$00
8E96: 00 00    brk  #$00
8E98: 00 00    brk  #$00
8E9A: 00 00    brk  #$00
8E9C: 00 00    brk  #$00
8E9E: 00 00    brk  #$00
8EA0: 00 00    brk  #$00
8EA2: 00 00    brk  #$00
8EA4: 00 00    brk  #$00
8EA6: 00 00    brk  #$00
8EA8: 00 00    brk  #$00
8EAA: 00 00    brk  #$00
8EAC: 00 00    brk  #$00
8EAE: 00 00    brk  #$00
8EB0: 00 00    brk  #$00
8EB2: 00 00    brk  #$00
8EB4: 00 00    brk  #$00
8EB6: 00 00    brk  #$00
8EB8: 00 00    brk  #$00
8EBA: 00 00    brk  #$00
8EBC: 00 00    brk  #$00
8EBE: 00 00    brk  #$00
8EC0: 00 00    brk  #$00
8EC2: 00 00    brk  #$00
8EC4: 00 00    brk  #$00
8EC6: 00 00    brk  #$00
8EC8: 00 00    brk  #$00
8ECA: 00 00    brk  #$00
8ECC: 00 00    brk  #$00
8ECE: 00 00    brk  #$00
8ED0: 00 00    brk  #$00
8ED2: 00 00    brk  #$00
8ED4: 00 00    brk  #$00
8ED6: 15 55    ora  $55,x
8ED8: 55 54    eor  $54,x
8EDA: 16 BF    asl  $BF,x
8EDC: FE 94 00 inc  $0094,x
8EDF: 00 FF    brk  #$FF
8EE1: FF       ill  $FF
8EE2: FF       ill  $FF
8EE3: FF       ill  $FF
8EE4: FF       ill  $FF
8EE5: FF       ill  $FF
8EE6: FF       ill  $FF
8EE7: FF       ill  $FF
8EE8: FF       ill  $FF
8EE9: FF       ill  $FF
8EEA: FF       ill  $FF
8EEB: FF       ill  $FF
8EEC: FF       ill  $FF
8EED: FF       ill  $FF
8EEE: FF       ill  $FF
8EEF: FF       ill  $FF
8EF0: FF       ill  $FF
8EF1: FF       ill  $FF
8EF2: FF       ill  $FF
8EF3: FF       ill  $FF
8EF4: FF       ill  $FF
8EF5: FF       ill  $FF
8EF6: FF       ill  $FF
8EF7: FF       ill  $FF
8EF8: FF       ill  $FF
8EF9: FF       ill  $FF
8EFA: FF       ill  $FF
8EFB: FF       ill  $FF
8EFC: FF       ill  $FF
8EFD: FF       ill  $FF
8EFE: FF       ill  $FF
8EFF: FF       ill  $FF
8F00: 2A       rol  a
8F01: AA       tax  
8F02: A8       tay  
8F03: 00 0A    brk  #$0A
8F05: AA       tax  
8F06: AA       tax  
8F07: A0 02    ldy  #$02
8F09: AA       tax  
8F0A: AA       tax  
8F0B: 80       ill  $80
8F0C: 00 AA    brk  #$AA
8F0E: AA       tax  
8F0F: AA       tax  
8F10: 00 2A    brk  #$2A
8F12: AA       tax  
8F13: AA       tax  
8F14: A8       tay  
8F15: 02       ill  $02
8F16: AA       tax  
8F17: AA       tax  
8F18: 80       ill  $80
8F19: 00 AA    brk  #$AA
8F1B: AA       tax  
8F1C: AA       tax  
8F1D: 00 2A    brk  #$2A
8F1F: AA       tax  
8F20: AA       tax  
8F21: 80       ill  $80
8F22: 00 00    brk  #$00
8F24: BF       ill  $BF
8F25: FF       ill  $FF
8F26: FF       ill  $FF
8F27: E0 2F    cpx  #$2F
8F29: 80       ill  $80
8F2A: 02       ill  $02
8F2B: F8       sed  
8F2C: 0B       ill  $0B
8F2D: FF       ill  $FF
8F2E: FF       ill  $FF
8F2F: FE 02 F8 inc  $F802,x
8F32: 00 2F    brk  #$2F
8F34: 80       ill  $80
8F35: 00 0B    brk  #$0B
8F37: F8       sed  
8F38: 00 0B    brk  #$0B
8F3A: FF       ill  $FF
8F3B: FF       ill  $FF
8F3C: FE 02 F8 inc  $F802,x
8F3F: 00 2F    brk  #$2F
8F41: 80       ill  $80
8F42: BF       ill  $BF
8F43: 80       ill  $80
8F44: 0B       ill  $0B
8F45: E0 00    cpx  #$00
8F47: 00 00    brk  #$00
8F49: 00 00    brk  #$00
8F4B: 00 00    brk  #$00
8F4D: 00 00    brk  #$00
8F4F: 03       ill  $03
8F50: F0 00    beq  $8F52
8F52: 00 00    brk  #$00
8F54: 00 00    brk  #$00
8F56: 00 00    brk  #$00
8F58: 00 00    brk  #$00
8F5A: 00 00    brk  #$00
8F5C: 0F       ill  $0F
8F5D: FA       ill  $FA
8F5E: BC 0E AC ldy  $AC0E,x
8F61: AA       tax  
8F62: FA       ill  $FA
8F63: 8E AF EA stx  $EAAF
8F66: BC 3E AB ldy  $AB3E,x
8F69: FF       ill  $FF
8F6A: FC       ill  $FC
8F6B: 00 FA    brk  #$FA
8F6D: BA       tsx  
8F6E: BC 00 00 ldy  $0000,x
8F71: 00 00    brk  #$00
8F73: 00 00    brk  #$00
8F75: 00 00    brk  #$00
8F77: 00 00    brk  #$00
8F79: 00 00    brk  #$00
8F7B: 00 00    brk  #$00
8F7D: 00 00    brk  #$00
8F7F: 00 00    brk  #$00
8F81: 00 00    brk  #$00
8F83: 00 00    brk  #$00
8F85: 00 00    brk  #$00
8F87: 00 00    brk  #$00
8F89: 00 00    brk  #$00
8F8B: 00 00    brk  #$00
8F8D: 00 00    brk  #$00
8F8F: 00 00    brk  #$00
8F91: 00 00    brk  #$00
8F93: 00 00    brk  #$00
8F95: 00 00    brk  #$00
8F97: 00 00    brk  #$00
8F99: 00 00    brk  #$00
8F9B: 00 00    brk  #$00
8F9D: 00 00    brk  #$00
8F9F: 00 00    brk  #$00
8FA1: 00 00    brk  #$00
8FA3: 00 00    brk  #$00
8FA5: 00 00    brk  #$00
8FA7: 00 00    brk  #$00
8FA9: 00 00    brk  #$00
8FAB: 00 00    brk  #$00
8FAD: 00 00    brk  #$00
8FAF: 00 00    brk  #$00
8FB1: 00 00    brk  #$00
8FB3: 00 00    brk  #$00
8FB5: 00 00    brk  #$00
8FB7: 00 00    brk  #$00
8FB9: 00 00    brk  #$00
8FBB: 00 00    brk  #$00
8FBD: 00 00    brk  #$00
8FBF: 00 00    brk  #$00
8FC1: 00 00    brk  #$00
8FC3: 00 00    brk  #$00
8FC5: 00 00    brk  #$00
8FC7: 00 00    brk  #$00
8FC9: 00 00    brk  #$00
8FCB: 00 00    brk  #$00
8FCD: 00 00    brk  #$00
8FCF: 00 00    brk  #$00
8FD1: 00 00    brk  #$00
8FD3: 00 00    brk  #$00
8FD5: 00 00    brk  #$00
8FD7: 00 00    brk  #$00
8FD9: 00 16    brk  #$16
8FDB: BC 3E 94 ldy  $943E,x
8FDE: 00 00    brk  #$00
8FE0: FF       ill  $FF
8FE1: FF       ill  $FF
8FE2: FF       ill  $FF
8FE3: FF       ill  $FF
8FE4: FF       ill  $FF
8FE5: FF       ill  $FF
8FE6: FF       ill  $FF
8FE7: FF       ill  $FF
8FE8: FF       ill  $FF
8FE9: FF       ill  $FF
8FEA: FF       ill  $FF
8FEB: FF       ill  $FF
8FEC: FF       ill  $FF
8FED: FF       ill  $FF
8FEE: FF       ill  $FF
8FEF: FF       ill  $FF
8FF0: FF       ill  $FF
8FF1: FF       ill  $FF
8FF2: FF       ill  $FF
8FF3: FF       ill  $FF
8FF4: FF       ill  $FF
8FF5: FF       ill  $FF
8FF6: FF       ill  $FF
8FF7: FF       ill  $FF
8FF8: FF       ill  $FF
8FF9: FF       ill  $FF
8FFA: FF       ill  $FF
8FFB: FF       ill  $FF
8FFC: FF       ill  $FF
8FFD: FF       ill  $FF
8FFE: FF       ill  $FF
8FFF: FF       ill  $FF


9000: 4C 1D F3 jmp  $F31D

;Start a new game

9003: A5 6C    lda  NUMPLAYERS	;Copy number of players 
9005: 85 62    sta  CURPLAYERS	;
9007: A2 FF    ldx  #$FF	;Reset stack pointer
9009: 9A       txs  		;
900A: 20 56 E3 jsr  $E356	;Turn off sound
900D: 20 30 D5 jsr  $D530	;Setup hardware
9010: 20 86 DC jsr  $DC86	;Setup display list
9013: 20 20 D4 jsr  $D420	;Init scoring
9016: 20 C3 91 jsr  $91C3	;Setup skill level data
9019: A5 E3    lda  $E3		
901B: D0 03    bne  $9020		
901D: 20 BA D6 jsr  $D6BA
9020: 20 CD D6 jsr  $D6CD
9023: A9 00    lda  #$00
9025: 85 E1    sta  $E1
9027: 85 4F    sta  $4F
9029: 85 E9    sta  $E9
902B: 85 5C    sta  $5C
902D: 85 5E    sta  $5E
902F: A9 00    lda  #$00
9031: 85 67    sta  $67
9033: A9 0F    lda  #$0F
9035: 85 65    sta  $65
9037: A5 E3    lda  $E3
9039: D0 04    bne  $903F
903B: A9 36    lda  #$36
903D: 85 66    sta  $66
903F: AD 82 02 lda  $0282	;Read console switches
9042: 85 5D    sta  $5D		;Save
9044: A5 75    lda  $75		
9046: 85 E0    sta  $E0
9048: A9 01    lda  #$01	
904A: 85 4E    sta  $4E
904C: 85 E8    sta  $E8		;Set player 1 level to 1
904E: 85 D5    sta  $D5
9050: A9 00    lda  #$00
9052: 85 61    sta  $61
9054: 20 55 D2 jsr  $D255
9057: 20 26 D3 jsr  $D326
905A: 20 E4 D2 jsr  $D2E4
905D: A5 62    lda  CURPLAYERS
905F: F0 1B    beq  $907C
9061: A5 75    lda  $75
9063: 85 E1    sta  $E1
9065: A9 01    lda  #$01
9067: 85 4F    sta  $4F
9069: 85 E9    sta  $E9		;Set player 2 level to 1
906B: A9 01    lda  #$01
906D: 85 61    sta  $61
906F: 20 55 D2 jsr  $D255
9072: 20 26 D3 jsr  $D326
9075: 20 E4 D2 jsr  $D2E4
9078: A9 00    lda  #$00
907A: 85 61    sta  $61

;Initialize number of each sprite on first screen

907C: A9 1A    lda  #$1A	;Set pointer to $EF1A	
907E: 85 A0    sta  $A0		;
9080: A9 EF    lda  #$EF	;
9082: 85 A1    sta  $A1		;
9084: A0 10    ldy  #$10	;copy 17 bytes  (This is probably an error, should be 16 bytes)
9086: B1 A0    lda  ($A0),y	;
9088: 99 06 19 sta  $1906,y	;into 1906
908B: 99 16 19 sta  $1916,y	;into 1916
908E: 88       dey  		;
908F: 10 F5    bpl  $9086	;

9091: A5 E5    lda  $E5
9093: 45 C6    eor  $C6
9095: 85 C5    sta  $C5
9097: A5 62    lda  CURPLAYERS
9099: D0 07    bne  $90A2
909B: A9 00    lda  #$00
909D: 85 61    sta  $61
909F: 4C A6 90 jmp  $90A6
90A2: A9 01    lda  #$01
90A4: 85 61    sta  $61
90A6: 20 D6 D4 jsr  $D4D6

90A9: A6 61    ldx  $61		;Get player number
90AB: B5 E0    lda  $E0,x	;Get number of lives
90AD: 10 46    bpl  $90F5	;> -1
90AF: 20 D6 D4 jsr  $D4D6
90B2: A6 61    ldx  $61
90B4: B5 E0    lda  $E0,x
90B6: 10 3D    bpl  $90F5
90B8: 20 5A DD jsr  $DD5A
90BB: A5 E3    lda  $E3
90BD: D0 30    bne  $90EF
90BF: A9 01    lda  #$01
90C1: 85 67    sta  $67
90C3: 20 70 F5 jsr  $F570
90C6: A9 00    lda  #$00
90C8: 85 E5    sta  $E5
90CA: 85 E6    sta  $E6
90CC: 20 34 DB jsr  $DB34
90CF: A5 0C    lda  $0C
90D1: 10 04    bpl  $90D7
90D3: A5 0D    lda  $0D
90D5: 30 03    bmi  $90DA
90D7: 4C 03 90 jmp  $9003

90DA: 20 38 F5 jsr  $F538
90DD: 20 5D D3 jsr  $D35D
90E0: A5 E5    lda  $E5
90E2: C9 F0    cmp  #$F0
90E4: 90 E6    bcc  $90CC
90E6: 20 52 F6 jsr  $F652
90E9: 20 45 F5 jsr  $F545
90EC: 20 5A DD jsr  $DD5A
90EF: 20 91 D6 jsr  $D691
90F2: 4C 95 F3 jmp  $F395

90F5: 20 5A DD jsr  $DD5A
90F8: 20 55 D2 jsr  $D255
90FB: 20 E4 D2 jsr  $D2E4
90FE: A5 62    lda  CURPLAYERS
9100: F0 1D    beq  $911F
9102: 20 8A F5 jsr  $F58A
9105: A9 40    lda  #$40
9107: 85 CA    sta  $CA
9109: 85 67    sta  $67
910B: 20 38 F5 jsr  $F538
910E: 20 5D D3 jsr  $D35D
9111: 20 34 DB jsr  $DB34
9114: A5 CA    lda  $CA
9116: D0 F3    bne  $910B
9118: A9 00    lda  #$00
911A: 85 67    sta  $67
911C: 20 5A DD jsr  $DD5A
911F: 20 26 D3 jsr  $D326
9122: 20 30 D6 jsr  $D630
9125: 4C 54 B0 jmp  $B054
9128: A5 E4    lda  $E4
912A: D0 FC    bne  $9128
912C: A5 E4    lda  $E4
912E: F0 FC    beq  $912C
9130: 20 48 92 jsr  $9248
9133: 20 56 E3 jsr  $E356
9136: 20 30 D6 jsr  $D630
9139: 20 55 91 jsr  $9155
913C: 20 34 DB jsr  $DB34
913F: 20 5D D3 jsr  $D35D
9142: 20 33 D7 jsr  $D733
9145: 20 9E D7 jsr  $D79E
9148: 20 E3 91 jsr  $91E3
914B: A5 C9    lda  $C9
914D: D0 03    bne  $9152
914F: 4C 00 D0 jmp  $D000
9152: 4C 39 91 jmp  $9139
9155: A5 CA    lda  $CA
9157: 29 7F    and  #$7F
9159: D0 12    bne  $916D
915B: A9 00    lda  #$00
915D: 85 CB    sta  $CB
915F: A5 CC    lda  $CC
9161: C9 04    cmp  #$04
9163: 90 02    bcc  $9167
9165: C6 CC    dec  $CC
9167: A5 EB    lda  $EB
9169: D0 02    bne  $916D
916B: E6 EC    inc  $EC
916D: A5 CA    lda  $CA
916F: 29 3F    and  #$3F
9171: D0 08    bne  $917B
9173: A5 EB    lda  $EB
9175: F0 04    beq  $917B
9177: C6 EB    dec  $EB
9179: 10 47    bpl  $91C2
917B: A5 EB    lda  $EB
917D: D0 43    bne  $91C2
917F: A9 06    lda  #$06
9181: 85 EA    sta  $EA
9183: 0A       asl  a
9184: 85 60    sta  $60
9186: A5 ED    lda  $ED
9188: CD 0D 19 cmp  $190D
918B: B0 35    bcs  $91C2
918D: AD 0B 19 lda  $190B	; get spheroid count
9190: F0 30    beq  $91C2	; exit if zero (goes directly to rts)
9192: 85 A3    sta  $A3		; store in zero page to save cycles
9194: A6 D8    ldx  $D8		; get index of spheroids to add to $1E8C (sprite type table)
9196: BD 8C 1E lda  SPRITE_TYPE_1E8C,x	;Get sprite type
9199: 29 1F    and  #$1F	;Mask it off
919B: C9 06    cmp  #$06	;Spheroid?
919D: D0 1E    bne  $91BD	;Branch if not
919F: BD 91 1F lda  SPRITE_STATE_1F91,x	;Sprite state table
91A2: C9 01    cmp  #$01	;Is it enabled?
91A4: D0 17    bne  $91BD	;Branch if it isnt'
91A6: BD 30 1D lda  $1D30,x	;Get sprite image for spheroid
91A9: F0 12    beq  $91BD	;
91AB: 20 A8 D3 jsr  $D3A8	;get a random number into $C5 and accumulator	
91AE: C5 EC    cmp  $EC		;
91B0: B0 0B    bcs  $91BD	; if more than 236
91B2: 20 77 BA jsr  $BA77
91B5: 30 0B    bmi  $91C2
91B7: DE 30 1D dec  $1D30,x
91BA: 4C C2 91 jmp  $91C2
91BD: E8       inx  
91BE: C6 A3    dec  $A3
91C0: D0 D4    bne  $9196
91C2: 60       rts  

;Setup skill level data

91C3: A4 64    ldy  SKILL		;Get skill level
91C5: B9 62 ED lda  $ED62,y
91C8: 85 72    sta  $72
91CA: B9 67 ED lda  $ED67,y
91CD: 85 71    sta  $71
91CF: B9 6C ED lda  $ED6C,y
91D2: 85 6F    sta  $6F
91D4: 85 70    sta  $70
91D6: 85 6E    sta  $6E
91D8: 18       clc  
91D9: 69 28    adc  #$28
91DB: 85 73    sta  $73
91DD: B9 71 ED lda  $ED71,y
91E0: 85 75    sta  $75
91E2: 60       rts  

91E3: A6 55    ldx  $55		;Sprite number
91E5: E0 53    cpx  #$53	;Last sprite?
91E7: B0 1E    bcs  $9207	;Branch if it is
91E9: BD 8C 1E lda  SPRITE_TYPE_1E8C,x	;Get sprite type
91EC: F0 0E    beq  $91FC	;Branch if it the player
91EE: C5 76    cmp  $76		;
91F0: F0 0A    beq  $91FC
91F2: BD E8 1F lda  $1FE8,x	
91F5: F0 05    beq  $91FC
91F7: DE 7D 1B dec  SPRITE_FRAMES_BEFORE_MOVE_1B7D,x
91FA: 30 21    bmi  $921D	
91FC: A5 54    lda  $54
91FE: D0 13    bne  $9213
9200: A5 E4    lda  $E4
9202: F0 0F    beq  $9213
9204: E8       inx			; next sprite
9205: D0 02    bne  $9209
9207: A2 01    ldx  #$01
9209: E4 55    cpx  $55
920B: D0 D8    bne  $91E5
920D: A5 E5    lda  $E5
920F: C5 E7    cmp  $E7
9211: F0 FA    beq  $920D
9213: 86 55    stx  $55
9215: A5 E5    lda  $E5
9217: 85 E7    sta  $E7
9219: 20 AA DE jsr  $DEAA
921C: 60       rts  

921D: BD 8C 1E lda  SPRITE_TYPE_1E8C,x	;Get sprite type
9220: 29 1F    and  #$1F	;Mask off type
9222: 38       sec  		;
9223: E9 01    sbc  #$01	;subtract one to bypass player type
9225: 0A       asl  a		;*2
9226: A8       tay  		;
9227: B9 E5 EB lda  $EBE5,y	;Get address from table
922A: 85 A0    sta  $A0		;
922C: B9 E6 EB lda  $EBE6,y	;
922F: 85 A1    sta  $A1		;
9231: 6C A0 00 jmp  ($00A0)	;Jump to sprite type handler


; Seems to be get current sprite image subroutine
9234: A6 EF    ldx  $EF		
9236: 30 0E    bmi  $9246
9238: BD 91 1F lda  SPRITE_STATE_1F91,x
923B: F0 04    beq  $9241	; 
923D: A2 80    ldx  #$80
923F: 30 05    bmi  $9246
9241: BD 30 1D lda  $1D30,x	; get current sprite image
9244: 85 EF    sta  $EF		; save image
9246: 8A       txa  
9247: 60       rts  

9248: 20 30 D6 jsr  $D630
924B: 20 E4 D2 jsr  $D2E4
924E: A6 61    ldx  $61		;Get player number
9250: B5 E8    lda  $E8,x	;Get players current level
9252: 29 0F    and  #$0F	;Mask off bottom 4 bits
9254: F0 04    beq  $925A	
9256: C9 05    cmp  #$05
9258: D0 08    bne  $9262
925A: 20 56 E3 jsr  $E356
925D: A9 14    lda  #$14
925F: 20 95 E3 jsr  $E395
9262: A9 00    lda  #$00
9264: 85 79    sta  $79
9266: 85 78    sta  $78
9268: 85 77    sta  $77
926A: 85 55    sta  $55
926C: A4 79    ldy  $79
926E: A9 01    lda  #$01	; flag screen as being drawn
9270: 85 E2    sta  $E2
9272: B9 44 ED lda  $ED44,y
9275: 85 76    sta  $76
9277: 84 79    sty  $79
9279: A9 00    lda  #$00
927B: 85 77    sta  $77
927D: 85 78    sta  $78
927F: 20 34 DB jsr  $DB34
9282: A5 CA    lda  $CA
9284: 29 01    and  #$01
9286: F0 03    beq  $928B
9288: 20 03 DE jsr  $DE03
928B: 20 E3 91 jsr  $91E3
928E: 20 5D D3 jsr  $D35D
9291: A5 78    lda  $78
9293: F0 EA    beq  $927F
9295: A4 79    ldy  $79
9297: C8       iny  
9298: C0 0A    cpy  #$0A
929A: 90 D6    bcc  $9272
929C: 20 D0 92 jsr  $92D0
929F: A9 00    lda  #$00
92A1: 85 78    sta  $78
92A3: 85 76    sta  $76
92A5: 20 AA DE jsr  $DEAA
92A8: 20 34 DB jsr  $DB34
92AB: 20 11 93 jsr  $9311
92AE: 20 E3 91 jsr  $91E3
92B1: 20 5D D3 jsr  $D35D
92B4: A5 78    lda  $78
92B6: F0 F0    beq  $92A8
92B8: A9 01    lda  #$01
92BA: 8D 91 1F sta  SPRITE_STATE_1F91
92BD: A2 00    ldx  #$00
92BF: 20 36 E1 jsr  $E136
92C2: 20 AA DE jsr  $DEAA
92C5: A5 52    lda  $52
92C7: C5 53    cmp  $53
92C9: D0 F7    bne  $92C2
92CB: A9 00    lda  #$00	; screen finished being drawn
92CD: 85 E2    sta  $E2
92CF: 60       rts  

92D0: A2 53    ldx  #$53
92D2: 86 79    stx  $79
92D4: A0 03    ldy  #$03
92D6: B9 4E ED lda  $ED4E,y
92D9: 9D CF 1A sta  SPRITE_X,x
92DC: 18       clc  
92DD: 69 0D    adc  #$0D
92DF: 9D E3 1E sta  SPRITE_X_EXTENT,x
92E2: B9 52 ED lda  $ED52,y
92E5: 9D 26 1B sta  SPRITE_Y,x
92E8: 18       clc  
92E9: 69 0C    adc  #$0C
92EB: 9D 3A 1F sta  SPRITE_Y_EXTENT,x
92EE: B9 56 ED lda  $ED56,y
92F1: 9D D4 1B sta  SPRITE_DIRECTION_1BD4,x
92F4: A9 00    lda  #$00
92F6: 9D D9 1C sta  SPRITE_ANIM_FRAME_1CD9,x
92F9: 9D 8C 1E sta  SPRITE_TYPE_1E8C,x
92FC: A9 01    lda  #$01
92FE: 9D 91 1F sta  SPRITE_STATE_1F91,x
9301: 84 77    sty  $77
9303: 86 79    stx  $79
9305: 20 36 E1 jsr  $E136
9308: A4 77    ldy  $77
930A: A6 79    ldx  $79
930C: E8       inx  
930D: 88       dey  
930E: 10 C6    bpl  $92D6
9310: 60       rts  

9311: A2 53    ldx  #$53
9313: 86 79    stx  $79
9315: A0 03    ldy  #$03
9317: BD CF 1A lda  SPRITE_X,x
931A: 18       clc  
931B: 79 5A ED adc  $ED5A,y
931E: 85 BE    sta  $BE
9320: 9D CF 1A sta  SPRITE_X,x
9323: C0 03    cpy  #$03
9325: D0 09    bne  $9330
9327: BD CF 1A lda  SPRITE_X,x
932A: C9 4B    cmp  #$4B
932C: 90 34    bcc  $9362
932E: F0 32    beq  $9362
9330: BD E3 1E lda  SPRITE_X_EXTENT,x
9333: 18       clc  
9334: 79 5A ED adc  $ED5A,y
9337: 85 C0    sta  $C0
9339: 9D E3 1E sta  SPRITE_X_EXTENT,x
933C: BD 26 1B lda  SPRITE_Y,x
933F: 18       clc  
9340: 79 5E ED adc  $ED5E,y
9343: 85 BF    sta  $BF
9345: 9D 26 1B sta  SPRITE_Y,x
9348: BD 3A 1F lda  SPRITE_Y_EXTENT,x
934B: 18       clc  
934C: 79 5E ED adc  $ED5E,y
934F: 85 C1    sta  $C1
9351: 9D 3A 1F sta  SPRITE_Y_EXTENT,x
9354: 84 77    sty  $77
9356: 86 79    stx  $79
9358: 20 AF E1 jsr  $E1AF
935B: A4 77    ldy  $77
935D: A6 79    ldx  $79
935F: 4C 89 93 jmp  $9389
9362: A2 53    ldx  #$53
9364: A0 03    ldy  #$03
9366: A9 00    lda  #$00
9368: 9D 91 1F sta  SPRITE_STATE_1F91,x
936B: 84 77    sty  $77
936D: 86 79    stx  $79
936F: 20 AF E1 jsr  $E1AF
9372: A6 79    ldx  $79
9374: A4 77    ldy  $77
9376: A9 0F    lda  #$0F
9378: 9D 8C 1E sta  SPRITE_TYPE_1E8C,x
937B: A9 00    lda  #$00
937D: 9D D4 1B sta  SPRITE_DIRECTION_1BD4,x
9380: E8       inx  
9381: 88       dey  
9382: 10 E2    bpl  $9366
9384: A9 01    lda  #$01
9386: 85 78    sta  $78
9388: 60       rts  
9389: E8       inx  
938A: 88       dey  
938B: 30 03    bmi  $9390
938D: 4C 17 93 jmp  $9317
9390: 60       rts  

;Grunt Collision Handler
;x = First Sprite index

9391: A5 E2    lda  $E2			;Game State
9393: D0 0C    bne  $93A1		;Branch if not in play mode
9395: BD 91 1F lda  SPRITE_STATE_1F91,x	;Get sprite state
9398: 29 03    and  #$03		;
939A: D0 08    bne  $93A4		;Branch if enabled
939C: A9 00    lda  #$00		
939E: 9D 8C 1E sta  SPRITE_TYPE_1E8C,x
93A1: 4C FC 91 jmp  $91FC		;Done

93A4: 29 02    and  #$02		;get "dying" flag
93A6: F0 03    beq  $93AB		;Grunt is not dying
93A8: 4C 48 94 jmp  $9448		;Grunt is dying

93AB: AD 15 19 lda  $1915		; Get number of electrodes (grunts die on contact with electrodes. The electrodes die also.)	
93AE: F0 35    beq  $93E5		; if 0, skip checking for them 
93B0: A4 DF    ldy  $DF			;Get index of first sprite after grunts
93B2: B9 8C 1E lda  SPRITE_TYPE_1E8C,y		;Get sprite type
93B5: 29 1F    and  #$1F		;Mask it
93B7: C9 10    cmp  #$10		;Is it an Electrode?
93B9: D0 25    bne  $93E0		;Branch if it isn't
93BB: B9 91 1F lda  SPRITE_STATE_1F91,y	;Get sprites state
93BE: 29 03    and  #$03		;Mask it
93C0: C9 01    cmp  #$01		;Is it enabled?
93C2: D0 1C    bne  $93E0		;Branch if it isn't
93C4: 20 5D DC jsr  $DC5D		;Check if sprite overlap
93C7: A5 B7    lda  $B7			;Get result
93C9: F0 15    beq  $93E0		;Branch if they don't overlap
93CB: 84 B5    sty  $B5			;Save Y
93CD: A9 01    lda  #$01		;
93CF: 20 DB D6 jsr  $D6DB		;Score	+100 points
93D2: A4 B5    ldy  $B5			;Restore Y
93D4: 86 B5    stx  $B5			; preserve X in temp variable
93D6: 98       tya				; a = electrode index  
93D7: AA       tax				; x = electrode index
93D8: 20 0E D7 jsr  $D70E		;Mark electrode as dead
93DB: A6 B5    ldx  $B5			; restore x from temp variable
93DD: 4C 48 94 jmp  $9448		; Kill off grunt also 

93E0: C8       iny  			;Next Electrode to check for collision
93E1: C4 D6    cpy  $D6			;
93E3: 90 CD    bcc  $93B2		;Branch if not done with Electrodes

93E5: BD CF 1A lda  SPRITE_X,x	; get grunt XPos	
93E8: CD CF 1A cmp  SPRITE_X	; compare to player's X
93EB: B0 0F    bcs  $93FC		; if >= player X 
93ED: 69 02    adc  #$02		; if < player X, add 2 to grunt XPos
93EF: 85 BE    sta  $BE			; and store result in $BE
93F1: BD E3 1E lda  SPRITE_X_EXTENT,x	; get grunt X Extent
93F4: 18       clc				; 
93F5: 69 02    adc  #$02		; add 2 to that also, so that grunt XPos and grunt XExtent have been moved by same amount
93F7: 85 C0    sta  $C0
93F9: 4C 08 94 jmp  $9408		
93FC: E9 02    sbc  #$02		; subtract 2 from grunts current sprite X
93FE: 85 BE    sta  $BE			; and store result in $BE
9400: BD E3 1E lda  SPRITE_X_EXTENT,x	; subtract 2 from grunt X Extent also
9403: 38       sec  
9404: E9 02    sbc  #$02
9406: 85 C0    sta  $C0			; and store result in $C0
9408: BD 26 1B lda  SPRITE_Y,x	; get grunt YPos
940B: CD 26 1B cmp  SPRITE_Y	; compare to player's Y
940E: B0 0F    bcs  $941F		; >= 
9410: 69 04    adc  #$04		; add 4 to grunt YPos
9412: 85 BF    sta  $BF			; and store result in $BF
9414: BD 3A 1F lda  SPRITE_Y_EXTENT,x	; add 4 to sprite Y extent
9417: 18       clc  
9418: 69 04    adc  #$04
941A: 85 C1    sta  $C1			; and store in $C1. All parameters set up for call to D1B4 (in playfield check)
941C: 4C 2B 94 jmp  $942B
941F: E9 04    sbc  #$04		; subtract 4 from grunt YPos
9421: 85 BF    sta  $BF			; and store in $BF
9423: BD 3A 1F lda  SPRITE_Y_EXTENT,x
9426: 38       sec  
9427: E9 04    sbc  #$04		; subtract 4 from grunt Y Extent
9429: 85 C1    sta  $C1			; and store in $C1
942B: 20 B4 D1 jsr  $D1B4		; ensure that sprite is in the playfield
942E: A9 03    lda  #$03
9430: 85 A4    sta  $A4								
9432: 20 05 D4 jsr  $D405		; get a random number and mask it with #$03
9435: 18       clc  
9436: 65 CC    adc  $CC			; add to compute frames to wait before grunt can move again
9438: 9D 7D 1B sta  SPRITE_FRAMES_BEFORE_MOVE_1B7D,x
943B: DE D9 1C dec  SPRITE_ANIM_FRAME_1CD9,x	; next anim
943E: 10 3C    bpl  $947C	
9440: A9 03    lda  #$03		; we've reached the end of the anim sequence, reset anim frame
9442: 9D D9 1C sta  SPRITE_ANIM_FRAME_1CD9,x
9445: 4C 7C 94 jmp  $947C

9448: BD D9 1C lda  SPRITE_ANIM_FRAME_1CD9,x		; from original source code: see GDYING label. Grunt is dying, dont move it
944B: C9 04    cmp  #$04							; 4th anim frame of death?
944D: 10 12    bpl  $9461							; >=4th
944F: A9 02    lda  #$02							; play sound #2
9451: 20 95 E3 jsr  $E395							; call DoTune
9454: A9 00    lda  #$00							; dying direction is 0
9456: 9D D4 1B sta  SPRITE_DIRECTION_1BD4,x		
9459: A9 03    lda  #$03							; one before lowest death animation
945B: 9D D9 1C sta  SPRITE_ANIM_FRAME_1CD9,x
945E: 4C 65 94 jmp  $9465							; jmp to gdying2 
9461: C9 09    cmp  #$09							; 9th anim frame of death (highest)
9463: F0 0B    beq  $9470							; yes, so really kill this grunt
9465: FE D9 1C inc  SPRITE_ANIM_FRAME_1CD9,x		; this is gdying2
9468: A9 01    lda  #$01							; GSPEED FOR A DYING GRUNT (shamelessly copied from original source code)
946A: 9D 7D 1B sta  SPRITE_FRAMES_BEFORE_MOVE_1B7D,x
946D: 4C 76 94 jmp  $9476

9470: 20 1C D7 jsr  $D71C							; call routine that marks sprite as completely dead - sets sprite state to 0 and sprite type to 0
9473: 4C FC 91 jmp  $91FC							; process next sprite

9476: 20 AF E1 jsr  $E1AF
9479: 4C FC 91 jmp  $91FC							; process next sprite

947C: 20 AF E1 jsr  $E1AF
947F: AD 3E 21 lda  $213E
9482: D0 F8    bne  $947C
9484: A5 BE    lda  $BE
9486: 9D CF 1A sta  SPRITE_X,x
9489: A5 C0    lda  $C0
948B: 9D E3 1E sta  SPRITE_X_EXTENT,x
948E: A5 BF    lda  $BF
9490: 9D 26 1B sta  SPRITE_Y,x
9493: A5 C1    lda  $C1
9495: 9D 3A 1F sta  SPRITE_Y_EXTENT,x
9498: A9 09    lda  #$09
949A: 20 45 E4 jsr  $E445
949D: 4C FC 91 jmp  $91FC


;Family handler - this routine is called for Mikey, Mommy, Daddy

94A0: BD 91 1F lda  SPRITE_STATE_1F91,x		; read the state of the human
94A3: 29 02    and  #$02		; dying?
94A5: F0 03    beq  $94AA		; no
94A7: 4C 35 95 jmp  $9535		; human is dying 
94AA: A5 E2    lda  $E2			; read game state
94AC: F0 03    beq  $94B1		; we're in game mode
94AE: 4C EA 94 jmp  $94EA		; we're not in game mode, so don't bother

; check for collisions with hulk
94B1: AD 0A 19 lda  $190A		; Get hulk count
94B4: F0 34    beq  $94EA		; if 0, we've nothing to process 
94B6: A4 D7    ldy  $D7			;Get index of first Hulk
94B8: B9 91 1F lda  SPRITE_STATE_1F91,y	;Get it's state
94BB: 29 03    and  #$03		;mask it
94BD: F0 26    beq  $94E5		;branch if it's not active
94BF: 20 5D DC jsr  $DC5D		;Check for collision
94C2: A5 B7    lda  $B7			;get result
94C4: F0 1F    beq  $94E5		;branch if no collision
94C6: A9 03    lda  #$03		;
94C8: 20 95 E3 jsr  $E395
94CB: A9 00    lda  #$00		
94CD: 9D D9 1C sta  SPRITE_ANIM_FRAME_1CD9,x		;set animation frame to 0
94D0: A9 02    lda  #$02		;
94D2: 9D 8C 1E sta  SPRITE_TYPE_1E8C,x		;set sprite type to mommy
94D5: A9 02    lda  #$02		;
94D7: 1D 91 1F ora  SPRITE_STATE_1F91,x	;set sprite state (add dying flag bit)
94DA: 9D 91 1F sta  SPRITE_STATE_1F91,x	;
94DD: A9 08    lda  #$08		;set facing direction (8 must be a special flag)
94DF: 9D D4 1B sta  SPRITE_DIRECTION_1BD4,x		;
94E2: 4C 3C 95 jmp  $953C		;
94E5: C8       iny  			;next hulk
94E6: C4 D8    cpy  $D8			;Done all hulks?
94E8: 90 CE    bcc  $94B8		;branch if not
94EA: DE 82 1C dec  $1C82,x		; decrease human walk count (how long human walks in the assigned direction)		
94ED: 10 12    bpl  $9501		; if >0
94EF: 20 A8 D3 jsr  $D3A8		; random number
94F2: 29 1F    and  #$1F		; get number between 0 .. 31
94F4: 69 0A    adc  #$0A		; add 10
94F6: 9D 82 1C sta  $1C82,x		; save walk count
94F9: 20 A8 D3 jsr  $D3A8		; get another random number
94FC: 29 07    and  #$07		; convert to a direction
94FE: 9D D4 1B sta  SPRITE_DIRECTION_1BD4,x		; save
9501: BD CF 1A lda  SPRITE_X,x					
9504: BC D4 1B ldy  SPRITE_DIRECTION_1BD4,x		; a = X and y = sprite direction
9507: 18       clc  
9508: 79 1D EC adc  $EC1D,y		; calculate what x would be based on direction faced
950B: 85 BE    sta  $BE			; we're going to be calling a function that needs $BE, $BF, $C0, $C1 set
950D: BD E3 1E lda  SPRITE_X_EXTENT,x
9510: 18       clc  
9511: 79 1D EC adc  $EC1D,y		; and x extent
9514: 85 C0    sta  $C0
9516: BD 26 1B lda  SPRITE_Y,x
9519: 18       clc  
951A: 79 25 EC adc  $EC25,y		; calculate what y would be based on direction faced
951D: 85 BF    sta  $BF
951F: BD 3A 1F lda  SPRITE_Y_EXTENT,x
9522: 18       clc  
9523: 79 25 EC adc  $EC25,y		; and y extent
9526: 85 C1    sta  $C1			; OK, now $BE = adjusted X, $C0 = adjusted X extent, $BF = adjusted Y, $C1 = adjusted Y extent
9528: DE D9 1C dec  SPRITE_ANIM_FRAME_1CD9,x
952B: 10 2D    bpl  $955A
952D: A9 03    lda  #$03
952F: 9D D9 1C sta  SPRITE_ANIM_FRAME_1CD9,x	; reset to 3rd frame
9532: 4C 5A 95 jmp  $955A

; comes here if the human is dying
9535: BD D9 1C lda  SPRITE_ANIM_FRAME_1CD9,x
9538: 29 80    and  #$80
953A: F0 10    beq  $954C
953C: BD D9 1C lda  SPRITE_ANIM_FRAME_1CD9,x
953F: 29 7F    and  #$7F
9541: 9D D9 1C sta  SPRITE_ANIM_FRAME_1CD9,x
9544: A9 3C    lda  #$3C
9546: 9D 7D 1B sta  SPRITE_FRAMES_BEFORE_MOVE_1B7D,x
9549: 4C 54 95 jmp  $9554
954C: 20 1E D7 jsr  $D71E		; kill this sprite
954F: C6 5B    dec  $5B			; decrement family on screen counter
9551: 4C FC 91 jmp  $91FC
9554: 20 AF E1 jsr  $E1AF
9557: 4C FC 91 jmp  $91FC
955A: 20 AF E1 jsr  $E1AF
955D: AD 3E 21 lda  $213E
9560: F0 18    beq  $957A
9562: 20 A8 D3 jsr  $D3A8
9565: 29 1F    and  #$1F
9567: 69 0A    adc  #$0A
9569: 9D 82 1C sta  $1C82,x
956C: 20 A8 D3 jsr  $D3A8
956F: 29 01    and  #$01
9571: 18       clc  
9572: 69 02    adc  #$02
9574: 9D D4 1B sta  SPRITE_DIRECTION_1BD4,x
9577: 4C 01 95 jmp  $9501

957A: A5 BE    lda  $BE		;
957C: 9D CF 1A sta  SPRITE_X,x	;Write sprite X position
957F: A5 C0    lda  $C0
9581: 9D E3 1E sta  SPRITE_X_EXTENT,x	;Write sprite Y position
9584: A5 BF    lda  $BF
9586: 9D 26 1B sta  SPRITE_Y,x	;
9589: A5 C1    lda  $C1
958B: 9D 3A 1F sta  SPRITE_Y_EXTENT,x
958E: 20 53 D1 jsr  $D153
9591: A5 A4    lda  $A4
9593: F0 05    beq  $959A
9595: A9 00    lda  #$00
9597: 9D 82 1C sta  $1C82,x
959A: A5 CD    lda  $CD
959C: 9D 7D 1B sta  SPRITE_FRAMES_BEFORE_MOVE_1B7D,x
959F: AD 15 19 lda  $1915
95A2: F0 1F    beq  $95C3
95A4: A4 DF    ldy  $DF
95A6: B9 91 1F lda  SPRITE_STATE_1F91,y
95A9: 29 03    and  #$03
95AB: C9 01    cmp  #$01
95AD: D0 07    bne  $95B6
95AF: 20 5D DC jsr  $DC5D
95B2: A5 B7    lda  $B7
95B4: D0 08    bne  $95BE
95B6: C8       iny  
95B7: C4 D6    cpy  $D6
95B9: 90 EB    bcc  $95A6
95BB: 4C FC 91 jmp  $91FC
95BE: A9 00    lda  #$00
95C0: 9D 82 1C sta  $1C82,x
95C3: 4C FC 91 jmp  $91FC


; Hulks
95C6: A5 E2    lda  $E2		; are we in game or attract mode?
95C8: F0 03    beq  $95CD	; game mode
95CA: 4C FC 91 jmp  $91FC	; attract mode, nothing to see here
95CD: AD 15 19 lda  $1915
95D0: F0 2E    beq  $9600
95D2: A4 DF    ldy  $DF		; get index of first electrode
95D4: B9 8C 1E lda  SPRITE_TYPE_1E8C,y
95D7: 29 1F    and  #$1F
95D9: C9 10    cmp  #$10	; an electrode? Hulks flatten electrodes!!!!!!
95DB: D0 1E    bne  $95FB
95DD: B9 91 1F lda  SPRITE_STATE_1F91,y		; get the electrode's sprite state
95E0: 29 03    and  #$03	
95E2: C9 01    cmp  #$01	; is the electrode active?
95E4: D0 15    bne  $95FB	; no, it must be in a dying state
95E6: 20 5D DC jsr  $DC5D	; check if they overlap
95E9: A5 B7    lda  $B7		; $B7 = 1 if overlap
95EB: F0 0E    beq  $95FB	; no overlap
95ED: A5 10    lda  $10		; ???? pointless opcode, a is overwritten
95EF: 86 A1    stx  $A1		; save hulk's sprite index in A1
95F1: 98       tya			; a = electrode index  
95F2: AA       tax			; x = electrode index
95F3: 20 0E D7 jsr  $D70E	
95F6: A6 A1    ldx  $A1		; restore sprite index
95F8: 4C 00 96 jmp  $9600
95FB: C8       iny			; next electrode
95FC: C4 D6    cpy  $D6		
95FE: 90 D4    bcc  $95D4
9600: BD 30 1D lda  $1D30,x
9603: F0 38    beq  $963D
9605: A8       tay  
9606: B9 3D EC lda  $EC3D,y
9609: 0A       asl  a
960A: 18       clc  
960B: 79 3D EC adc  $EC3D,y
960E: 85 B7    sta  $B7
9610: 18       clc  
9611: 7D CF 1A adc  SPRITE_X,x
9614: 85 BE    sta  $BE
9616: BD E3 1E lda  SPRITE_X_EXTENT,x
9619: 18       clc  
961A: 65 B7    adc  $B7
961C: 85 C0    sta  $C0
961E: BD 26 1B lda  SPRITE_Y,x
9621: 18       clc  
9622: 79 4D EC adc  $EC4D,y
9625: 85 BF    sta  $BF
9627: BD 3A 1F lda  SPRITE_Y_EXTENT,x
962A: 18       clc  
962B: 79 4D EC adc  $EC4D,y
962E: 85 C1    sta  $C1
9630: A9 00    lda  #$00
9632: 9D 30 1D sta  $1D30,x
9635: A9 03    lda  #$03
9637: 9D 7D 1B sta  SPRITE_FRAMES_BEFORE_MOVE_1B7D,x
963A: 4C AE 96 jmp  $96AE
963D: DE 82 1C dec  $1C82,x
9640: 10 3A    bpl  $967C
9642: 20 A8 D3 jsr  $D3A8
9645: 29 0F    and  #$0F
9647: 69 00    adc  #$00
9649: 9D 82 1C sta  $1C82,x
964C: BD 2B 1C lda  $1C2B,x
964F: 30 0E    bmi  $965F
9651: F0 0C    beq  $965F
9653: A0 01    ldy  #$01
9655: 84 B7    sty  $B7
9657: 88       dey  
9658: 20 6E BD jsr  $BD6E
965B: C9 04    cmp  #$04
965D: 90 05    bcc  $9664
965F: 20 A8 D3 jsr  $D3A8
9662: 29 03    and  #$03
9664: 9D D4 1B sta  SPRITE_DIRECTION_1BD4,x
9667: 20 35 D1 jsr  $D135
966A: BD CF 1A lda  SPRITE_X,x
966D: 18       clc  
966E: 65 AB    adc  $AB
9670: 9D E3 1E sta  SPRITE_X_EXTENT,x
9673: BD 26 1B lda  SPRITE_Y,x
9676: 18       clc  
9677: 65 AC    adc  $AC
9679: 9D 3A 1F sta  SPRITE_Y_EXTENT,x
967C: BC D4 1B ldy  SPRITE_DIRECTION_1BD4,x
967F: B9 1D EC lda  $EC1D,y
9682: 0A       asl  a
9683: 18       clc  
9684: 79 1D EC adc  $EC1D,y
9687: 85 B7    sta  $B7
9689: 18       clc  
968A: 7D CF 1A adc  SPRITE_X,x
968D: 85 BE    sta  $BE
968F: BD E3 1E lda  SPRITE_X_EXTENT,x
9692: 18       clc  
9693: 65 B7    adc  $B7
9695: 85 C0    sta  $C0
9697: BD 26 1B lda  SPRITE_Y,x
969A: 18       clc  
969B: 79 25 EC adc  $EC25,y
969E: 85 BF    sta  $BF
96A0: BD 3A 1F lda  SPRITE_Y_EXTENT,x
96A3: 18       clc  
96A4: 79 25 EC adc  $EC25,y
96A7: 85 C1    sta  $C1
96A9: A5 CE    lda  $CE
96AB: 9D 7D 1B sta  SPRITE_FRAMES_BEFORE_MOVE_1B7D,x
96AE: DE D9 1C dec  SPRITE_ANIM_FRAME_1CD9,x
96B1: 10 05    bpl  $96B8
96B3: A9 03    lda  #$03
96B5: 9D D9 1C sta  SPRITE_ANIM_FRAME_1CD9,x
96B8: 20 B4 D1 jsr  $D1B4							; ensure that sprite is in the playfield
96BB: A5 A4    lda  $A4
96BD: F0 05    beq  $96C4
96BF: A9 00    lda  #$00
96C1: 9D 82 1C sta  $1C82,x
96C4: 20 AF E1 jsr  $E1AF
96C7: AD 3E 21 lda  $213E
96CA: F0 15    beq  $96E1
96CC: 20 A8 D3 jsr  $D3A8
96CF: 29 1F    and  #$1F
96D1: 69 00    adc  #$00
96D3: 9D 82 1C sta  $1C82,x
96D6: 20 A8 D3 jsr  $D3A8
96D9: 29 01    and  #$01
96DB: 18       clc  
96DC: 69 02    adc  #$02
96DE: 4C 64 96 jmp  $9664
96E1: A5 BE    lda  $BE
96E3: 9D CF 1A sta  SPRITE_X,x
96E6: A5 C0    lda  $C0
96E8: 9D E3 1E sta  SPRITE_X_EXTENT,x
96EB: A5 BF    lda  $BF
96ED: 9D 26 1B sta  SPRITE_Y,x
96F0: A5 C1    lda  $C1
96F2: 9D 3A 1F sta  SPRITE_Y_EXTENT,x
96F5: 4C FC 91 jmp  $91FC


; Spheroid routine

96F8: BD 91 1F lda  SPRITE_STATE_1F91,x		; get sprite state
96FB: D0 03    bne  $9700				; if active (nonzero)
96FD: 4C FC 91 jmp  $91FC				; else go process something else		
9700: C9 01    cmp  #$01				; is this spheroid active or dying (1 = active)				
9702: F0 24    beq  $9728				; if active
9704: BD D9 1C lda  SPRITE_ANIM_FRAME_1CD9,x	; ok, this spheroid's dying here	
9707: C9 06    cmp  #$06		
9709: D0 06    bne  $9711
970B: 20 1E D7 jsr  $D71E
970E: 4C FC 91 jmp  $91FC
9711: A9 06    lda  #$06
9713: 9D D9 1C sta  SPRITE_ANIM_FRAME_1CD9,x
9716: A9 60    lda  #$60
9718: 9D 7D 1B sta  SPRITE_FRAMES_BEFORE_MOVE_1B7D,x
971B: A9 0B    lda  #$0B
971D: 20 95 E3 jsr  $E395
9720: C6 C9    dec  $C9
9722: 20 AF E1 jsr  $E1AF
9725: 4C FC 91 jmp  $91FC
9728: 20 28 BA jsr  $BA28
972B: 18       clc  
972C: BD CF 1A lda  SPRITE_X,x
972F: 65 B1    adc  $B1
9731: 85 BE    sta  $BE
9733: 18       clc  
9734: BD E3 1E lda  SPRITE_X_EXTENT,x
9737: 65 B1    adc  $B1
9739: 85 C0    sta  $C0
973B: C9 9C    cmp  #$9C
973D: B0 09    bcs  $9748
973F: A5 BE    lda  $BE
9741: 18       clc  
9742: 69 10    adc  #$10
9744: C9 12    cmp  #$12
9746: B0 0F    bcs  $9757
9748: BD CF 1A lda  SPRITE_X,x
974B: 85 BE    sta  $BE
974D: BD E3 1E lda  SPRITE_X_EXTENT,x
9750: 85 C0    sta  $C0
9752: BD 30 1D lda  $1D30,x
9755: F0 29    beq  $9780
9757: 18       clc  
9758: BD 26 1B lda  SPRITE_Y,x
975B: 65 B2    adc  $B2
975D: 85 BF    sta  $BF
975F: 18       clc  
9760: BD 3A 1F lda  SPRITE_Y_EXTENT,x
9763: 65 B2    adc  $B2
9765: 85 C1    sta  $C1
9767: C9 BC    cmp  #$BC
9769: B0 06    bcs  $9771
976B: A5 BF    lda  $BF
976D: C9 12    cmp  #$12
976F: B0 15    bcs  $9786
9771: BD 26 1B lda  SPRITE_Y,x
9774: 85 BF    sta  $BF
9776: BD 3A 1F lda  SPRITE_Y_EXTENT,x
9779: 85 C1    sta  $C1
977B: BD 30 1D lda  $1D30,x
977E: D0 06    bne  $9786
9780: 20 1C D7 jsr  $D71C
9783: 4C FC 91 jmp  $91FC
9786: A5 E2    lda  $E2
9788: D0 5A    bne  $97E4
978A: BD 82 1C lda  $1C82,x
978D: 38       sec  
978E: E9 01    sbc  #$01
9790: 9D 82 1C sta  $1C82,x
9793: 10 1A    bpl  $97AF
9795: A9 01    lda  #$01
9797: 85 A4    sta  $A4
9799: 20 05 D4 jsr  $D405
979C: 85 B3    sta  $B3
979E: 20 05 D4 jsr  $D405
97A1: 85 B4    sta  $B4
97A3: 20 A8 D3 jsr  $D3A8
97A6: 29 0F    and  #$0F
97A8: C9 08    cmp  #$08
97AA: 10 F7    bpl  $97A3
97AC: 9D 82 1C sta  $1C82,x
97AF: A5 B1    lda  $B1
97B1: 18       clc  
97B2: 65 B3    adc  $B3
97B4: 85 B1    sta  $B1
97B6: 30 08    bmi  $97C0
97B8: A9 05    lda  #$05
97BA: C5 B1    cmp  $B1
97BC: 90 08    bcc  $97C6
97BE: B0 08    bcs  $97C8
97C0: A9 FA    lda  #$FA
97C2: C5 B1    cmp  $B1
97C4: 90 02    bcc  $97C8
97C6: 85 B1    sta  $B1
97C8: A5 B2    lda  $B2
97CA: 18       clc  
97CB: 65 B4    adc  $B4
97CD: 85 B2    sta  $B2
97CF: 30 08    bmi  $97D9
97D1: A9 05    lda  #$05
97D3: C5 B2    cmp  $B2
97D5: 90 08    bcc  $97DF
97D7: B0 08    bcs  $97E1
97D9: A9 FA    lda  #$FA
97DB: C5 B2    cmp  $B2
97DD: 90 02    bcc  $97E1
97DF: 85 B2    sta  $B2
97E1: 20 03 BA jsr  $BA03
97E4: A5 CF    lda  $CF
97E6: 9D 7D 1B sta  SPRITE_FRAMES_BEFORE_MOVE_1B7D,x
97E9: FE D9 1C inc  SPRITE_ANIM_FRAME_1CD9,x
97EC: BD D9 1C lda  SPRITE_ANIM_FRAME_1CD9,x
97EF: C5 EA    cmp  $EA
97F1: 90 05    bcc  $97F8
97F3: A9 00    lda  #$00
97F5: 9D D9 1C sta  SPRITE_ANIM_FRAME_1CD9,x
97F8: 20 AF E1 jsr  $E1AF
97FB: AD 3E 21 lda  $213E
97FE: F0 0D    beq  $980D
9800: BD 26 1B lda  SPRITE_Y,x
9803: 85 BF    sta  $BF
9805: BD 3A 1F lda  SPRITE_Y_EXTENT,x
9808: 85 C1    sta  $C1
980A: 4C F8 97 jmp  $97F8
980D: A5 BE    lda  $BE
980F: 9D CF 1A sta  SPRITE_X,x
9812: A5 C0    lda  $C0
9814: 9D E3 1E sta  SPRITE_X_EXTENT,x
9817: A5 BF    lda  $BF
9819: 9D 26 1B sta  SPRITE_Y,x
981C: A5 C1    lda  $C1
981E: 9D 3A 1F sta  SPRITE_Y_EXTENT,x
9821: 4C FC 91 jmp  $91FC

; Quark

9824: A5 E2    lda  $E2
9826: F0 03    beq  $982B
9828: 4C 0E 99 jmp  $990E
982B: BD 91 1F lda  SPRITE_STATE_1F91,x
982E: D0 03    bne  $9833
9830: 4C FC 91 jmp  $91FC
9833: C9 01    cmp  #$01
9835: F0 1F    beq  $9856
9837: BD D9 1C lda  SPRITE_ANIM_FRAME_1CD9,x
983A: C9 0C    cmp  #$0C
983C: D0 06    bne  $9844
983E: 20 1E D7 jsr  $D71E
9841: 4C FC 91 jmp  $91FC
9844: A9 0C    lda  #$0C
9846: 9D D9 1C sta  SPRITE_ANIM_FRAME_1CD9,x
9849: A9 60    lda  #$60
984B: 9D 7D 1B sta  SPRITE_FRAMES_BEFORE_MOVE_1B7D,x
984E: C6 C9    dec  $C9
9850: 20 AF E1 jsr  $E1AF
9853: 4C FC 91 jmp  $91FC
9856: A5 EB    lda  $EB
9858: D0 76    bne  $98D0
985A: BD 82 1C lda  $1C82,x
985D: F0 71    beq  $98D0
985F: BD 26 1B lda  SPRITE_Y,x
9862: C9 AD    cmp  #$AD
9864: B0 6A    bcs  $98D0
9866: 20 A8 D3 jsr  $D3A8
9869: 29 3F    and  #$3F
986B: C5 EC    cmp  $EC
986D: B0 61    bcs  $98D0
986F: 86 A2    stx  $A2
9871: 20 34 92 jsr  $9234
9874: A6 A2    ldx  $A2
9876: A8       tay  
9877: 30 57    bmi  $98D0
9879: A9 01    lda  #$01
987B: 99 91 1F sta  SPRITE_STATE_1F91,y
987E: BD CF 1A lda  SPRITE_X,x
9881: 99 CF 1A sta  SPRITE_X,y
9884: 18       clc  
9885: 69 09    adc  #$09
9887: 99 E3 1E sta  SPRITE_X_EXTENT,y
988A: BD 26 1B lda  SPRITE_Y,x
988D: 99 26 1B sta  SPRITE_Y,y
9890: 18       clc  
9891: 69 0F    adc  #$0F
9893: 99 3A 1F sta  SPRITE_Y_EXTENT,y
9896: A9 09    lda  #$09
9898: 99 8C 1E sta  SPRITE_TYPE_1E8C,y
989B: 84 A4    sty  $A4
989D: 86 A5    stx  $A5
989F: 98       tya  
98A0: AA       tax  
98A1: 20 36 E1 jsr  $E136
98A4: A4 A4    ldy  $A4
98A6: A6 A5    ldx  $A5
98A8: AD 3E 21 lda  $213E
98AB: D0 20    bne  $98CD
98AD: A9 00    lda  #$00
98AF: 99 D9 1C sta  SPRITE_ANIM_FRAME_1CD9,y
98B2: 99 D4 1B sta  SPRITE_DIRECTION_1BD4,y
98B5: 99 2B 1C sta  $1C2B,y
98B8: A9 03    lda  #$03
98BA: 99 7D 1B sta  SPRITE_FRAMES_BEFORE_MOVE_1B7D,y
98BD: EE 0E 19 inc  $190E
98C0: E6 C9    inc  $C9
98C2: A9 11    lda  #$11
98C4: 20 95 E3 jsr  $E395
98C7: DE 82 1C dec  $1C82,x
98CA: 4C D0 98 jmp  $98D0
98CD: 20 FB BA jsr  $BAFB
98D0: 18       clc  
98D1: BC D4 1B ldy  SPRITE_DIRECTION_1BD4,x
98D4: BD CF 1A lda  SPRITE_X,x
98D7: 79 2D EC adc  $EC2D,y
98DA: 85 BE    sta  $BE
98DC: BD E3 1E lda  SPRITE_X_EXTENT,x
98DF: 18       clc  
98E0: 79 2D EC adc  $EC2D,y
98E3: 85 C0    sta  $C0
98E5: BD 26 1B lda  SPRITE_Y,x
98E8: 18       clc  
98E9: 79 35 EC adc  $EC35,y
98EC: 85 BF    sta  $BF
98EE: BD 3A 1F lda  SPRITE_Y_EXTENT,x
98F1: 18       clc  
98F2: 79 35 EC adc  $EC35,y
98F5: 85 C1    sta  $C1
98F7: 20 B4 D1 jsr  $D1B4						; ensure that sprite is in the playfield
98FA: A5 A4    lda  $A4
98FC: F0 10    beq  $990E
98FE: BD 82 1C lda  $1C82,x
9901: D0 06    bne  $9909
9903: 20 1C D7 jsr  $D71C
9906: 4C FC 91 jmp  $91FC
9909: A9 00    lda  #$00
990B: 9D 2B 1C sta  $1C2B,x
990E: A9 03    lda  #$03
9910: 9D 7D 1B sta  SPRITE_FRAMES_BEFORE_MOVE_1B7D,x
9913: FE D9 1C inc  SPRITE_ANIM_FRAME_1CD9,x
9916: BD D9 1C lda  SPRITE_ANIM_FRAME_1CD9,x
9919: C5 60    cmp  $60
991B: 90 05    bcc  $9922
991D: A9 00    lda  #$00
991F: 9D D9 1C sta  SPRITE_ANIM_FRAME_1CD9,x
9922: A5 E2    lda  $E2
9924: D0 1A    bne  $9940
9926: DE 2B 1C dec  $1C2B,x
9929: 10 12    bpl  $993D
992B: 20 A8 D3 jsr  $D3A8
992E: 29 07    and  #$07
9930: 09 04    ora  #$04
9932: 9D D4 1B sta  SPRITE_DIRECTION_1BD4,x
9935: 20 A8 D3 jsr  $D3A8
9938: 29 3F    and  #$3F
993A: 9D 2B 1C sta  $1C2B,x
993D: 4C F8 97 jmp  $97F8
9940: BD CF 1A lda  SPRITE_X,x
9943: 85 BE    sta  $BE
9945: BD E3 1E lda  SPRITE_X_EXTENT,x
9948: 85 C0    sta  $C0
994A: BD 26 1B lda  SPRITE_Y,x
994D: 85 BF    sta  $BF
994F: BD 3A 1F lda  SPRITE_Y_EXTENT,x
9952: 85 C1    sta  $C1
9954: 4C F8 97 jmp  $97F8


; Enforcer?

9957: BD 91 1F lda  SPRITE_STATE_1F91,x
995A: D0 03    bne  $995F		; non-zero, he's alive!
995C: 4C FC 91 jmp  $91FC		; it's zero, this guy is dead
995F: BD 30 1D lda  $1D30,x		; get sprite image
9962: 9D 7D 1B sta  SPRITE_FRAMES_BEFORE_MOVE_1B7D,x
9965: BD D9 1C lda  SPRITE_ANIM_FRAME_1CD9,x		; get sprite animation frame
9968: C9 04    cmp  #$04		; we on 4th frame?
996A: F0 27    beq  $9993		; yes
996C: 90 05    bcc  $9973		; less than 4
996E: A9 01    lda  #$01		; reset to first frame then
9970: 9D 7D 1B sta  SPRITE_FRAMES_BEFORE_MOVE_1B7D,x
9973: FE D9 1C inc  SPRITE_ANIM_FRAME_1CD9,x		; bump to next animation frame
9976: BD D9 1C lda  SPRITE_ANIM_FRAME_1CD9,x		; get animation frame
9979: C9 08    cmp  #$08		; 8th frame?
997B: 90 2C    bcc  $99A9
997D: C6 ED    dec  $ED			; 
997F: BD 8C 1E lda  SPRITE_TYPE_1E8C,x	; get sprite type and divide by 32
9982: 4A       lsr  a
9983: 4A       lsr  a
9984: 4A       lsr  a
9985: 4A       lsr  a
9986: 4A       lsr  a
9987: A8       tay  
9988: A9 FF    lda  #$FF
998A: 99 26 19 sta  $1926,y
998D: 20 1C D7 jsr  $D71C
9990: 4C FC 91 jmp  $91FC
9993: BD 91 1F lda  SPRITE_STATE_1F91,x	; 
9996: C9 03    cmp  #$03
9998: D0 29    bne  $99C3
999A: A9 05    lda  #$05
999C: 9D D9 1C sta  SPRITE_ANIM_FRAME_1CD9,x
999F: A9 01    lda  #$01
99A1: 9D 7D 1B sta  SPRITE_FRAMES_BEFORE_MOVE_1B7D,x
99A4: A9 02    lda  #$02
99A6: 20 95 E3 jsr  $E395
99A9: BD 26 1B lda  SPRITE_Y,x
99AC: 85 BF    sta  $BF
99AE: BD CF 1A lda  SPRITE_X,x
99B1: 85 BE    sta  $BE
99B3: BD 3A 1F lda  SPRITE_Y_EXTENT,x
99B6: 85 C1    sta  $C1
99B8: BD E3 1E lda  SPRITE_X_EXTENT,x
99BB: 85 C0    sta  $C0
99BD: 20 AF E1 jsr  $E1AF
99C0: 4C FC 91 jmp  $91FC
99C3: DE 82 1C dec  $1C82,x
99C6: D0 56    bne  $9A1E
99C8: 20 A8 D3 jsr  $D3A8
99CB: 29 1F    and  #$1F
99CD: 4A       lsr  a
99CE: D0 1E    bne  $99EE
99D0: A9 07    lda  #$07
99D2: 85 A4    sta  $A4
99D4: 20 05 D4 jsr  $D405
99D7: 9D D4 1B sta  SPRITE_DIRECTION_1BD4,x
99DA: 20 05 D4 jsr  $D405
99DD: 9D 2B 1C sta  $1C2B,x
99E0: 20 A8 D3 jsr  $D3A8
99E3: F0 FB    beq  $99E0
99E5: 29 0F    and  #$0F
99E7: 69 04    adc  #$04
99E9: 9D 82 1C sta  $1C82,x
99EC: D0 30    bne  $9A1E
99EE: A9 01    lda  #$01
99F0: 85 B7    sta  $B7
99F2: AD CF 1A lda  SPRITE_X
99F5: 85 B8    sta  $B8
99F7: AD 26 1B lda  SPRITE_Y
99FA: 85 B9    sta  $B9
99FC: 20 DC BC jsr  $BCDC
99FF: A5 B1    lda  $B1
9A01: 9D D4 1B sta  SPRITE_DIRECTION_1BD4,x
9A04: A5 B2    lda  $B2
9A06: 9D 2B 1C sta  $1C2B,x
9A09: A5 AA    lda  $AA
9A0B: 9D 30 1D sta  $1D30,x
9A0E: 20 A8 D3 jsr  $D3A8
9A11: C9 18    cmp  #$18
9A13: B0 F9    bcs  $9A0E
9A15: C9 00    cmp  #$00
9A17: D0 02    bne  $9A1B
9A19: A9 50    lda  #$50
9A1B: 9D 82 1C sta  $1C82,x
9A1E: BC D4 1B ldy  SPRITE_DIRECTION_1BD4,x
9A21: 98       tya  
9A22: 18       clc  
9A23: 7D CF 1A adc  SPRITE_X,x
9A26: 85 BE    sta  $BE
9A28: 98       tya  
9A29: 18       clc  
9A2A: 7D E3 1E adc  SPRITE_X_EXTENT,x
9A2D: 85 C0    sta  $C0
9A2F: BC 2B 1C ldy  $1C2B,x
9A32: 98       tya  
9A33: 18       clc  
9A34: 7D 26 1B adc  SPRITE_Y,x
9A37: 85 BF    sta  $BF
9A39: 98       tya  
9A3A: 18       clc  
9A3B: 7D 3A 1F adc  SPRITE_Y_EXTENT,x
9A3E: 85 C1    sta  $C1
9A40: 20 B4 D1 jsr  $D1B4							; ensure that sprite is in the playfield
9A43: 20 AF E1 jsr  $E1AF
9A46: AD 3E 21 lda  $213E
9A49: F0 0D    beq  $9A58
9A4B: BD 26 1B lda  SPRITE_Y,x
9A4E: 85 BF    sta  $BF
9A50: BD 3A 1F lda  SPRITE_Y_EXTENT,x
9A53: 85 C1    sta  $C1
9A55: 4C 43 9A jmp  $9A43
9A58: A5 BF    lda  $BF
9A5A: 9D 26 1B sta  SPRITE_Y,x
9A5D: A5 C1    lda  $C1
9A5F: 9D 3A 1F sta  SPRITE_Y_EXTENT,x
9A62: A5 BE    lda  $BE
9A64: 9D CF 1A sta  SPRITE_X,x
9A67: A5 C0    lda  $C0
9A69: 9D E3 1E sta  SPRITE_X_EXTENT,x
9A6C: BD 30 1D lda  $1D30,x
9A6F: 9D 7D 1B sta  SPRITE_FRAMES_BEFORE_MOVE_1B7D,x
9A72: 86 B7    stx  $B7
9A74: BD 8C 1E lda  SPRITE_TYPE_1E8C,x
9A77: 4A       lsr  a
9A78: 4A       lsr  a
9A79: 4A       lsr  a
9A7A: 4A       lsr  a
9A7B: 4A       lsr  a
9A7C: AA       tax  
9A7D: DE 26 19 dec  $1926,x
9A80: 10 13    bpl  $9A95
9A82: A5 EE    lda  $EE
9A84: C9 10    cmp  #$10
9A86: B0 0D    bcs  $9A95
9A88: A5 71    lda  $71
9A8A: 9D 26 19 sta  $1926,x
9A8D: A6 B7    ldx  $B7
9A8F: 20 BE B5 jsr  $B5BE
9A92: 4C FC 91 jmp  $91FC
9A95: A6 B7    ldx  $B7
9A97: 4C FC 91 jmp  $91FC
9A9A: A5 E2    lda  $E2
9A9C: D0 0C    bne  $9AAA
9A9E: BD 91 1F lda  SPRITE_STATE_1F91,x
9AA1: 29 03    and  #$03
9AA3: D0 08    bne  $9AAD
9AA5: A9 00    lda  #$00
9AA7: 9D 8C 1E sta  SPRITE_TYPE_1E8C,x
9AAA: 4C FC 91 jmp  $91FC
9AAD: 29 02    and  #$02
9AAF: F0 03    beq  $9AB4
9AB1: 4C 13 9C jmp  $9C13
9AB4: DE 82 1C dec  $1C82,x
9AB7: 30 03    bmi  $9ABC
9AB9: 4C A5 9B jmp  $9BA5
9ABC: A9 03    lda  #$03
9ABE: 9D 82 1C sta  $1C82,x
9AC1: BC 2B 1C ldy  $1C2B,x
9AC4: F0 37    beq  $9AFD
9AC6: B9 8C 1E lda  SPRITE_TYPE_1E8C,y
9AC9: 29 1F    and  #$1F
9ACB: F0 0C    beq  $9AD9
9ACD: C9 02    cmp  #$02
9ACF: F0 2C    beq  $9AFD
9AD1: C9 04    cmp  #$04
9AD3: F0 28    beq  $9AFD
9AD5: C9 03    cmp  #$03
9AD7: F0 24    beq  $9AFD
9AD9: A5 5B    lda  $5B
9ADB: D0 04    bne  $9AE1
9ADD: A0 00    ldy  #$00
9ADF: F0 18    beq  $9AF9
9AE1: C8       iny  
9AE2: C4 D7    cpy  $D7
9AE4: 90 02    bcc  $9AE8
9AE6: A4 D6    ldy  $D6
9AE8: B9 8C 1E lda  SPRITE_TYPE_1E8C,y
9AEB: 29 1F    and  #$1F
9AED: C9 02    cmp  #$02
9AEF: F0 08    beq  $9AF9
9AF1: C9 04    cmp  #$04
9AF3: F0 04    beq  $9AF9
9AF5: C9 03    cmp  #$03
9AF7: D0 E8    bne  $9AE1
9AF9: 98       tya  
9AFA: 9D 2B 1C sta  $1C2B,x
9AFD: A9 00    lda  #$00
9AFF: 85 B7    sta  $B7
9B01: 20 6E BD jsr  $BD6E
9B04: C9 0F    cmp  #$0F
9B06: F0 06    beq  $9B0E
9B08: 9D D4 1B sta  SPRITE_DIRECTION_1BD4,x
9B0B: 4C A5 9B jmp  $9BA5
9B0E: B9 8C 1E lda  SPRITE_TYPE_1E8C,y
9B11: 29 1F    and  #$1F
9B13: D0 03    bne  $9B18
9B15: 4C A5 9B jmp  $9BA5
9B18: B9 91 1F lda  SPRITE_STATE_1F91,y
9B1B: 29 03    and  #$03
9B1D: C9 01    cmp  #$01
9B1F: F0 03    beq  $9B24
9B21: 4C A5 9B jmp  $9BA5
9B24: BD CF 1A lda  SPRITE_X,x
9B27: D9 CF 1A cmp  SPRITE_X,y
9B2A: B0 04    bcs  $9B30
9B2C: A9 02    lda  #$02
9B2E: D0 02    bne  $9B32
9B30: A9 03    lda  #$03
9B32: DD D4 1B cmp  SPRITE_DIRECTION_1BD4,x
9B35: F0 06    beq  $9B3D
9B37: 9D D4 1B sta  SPRITE_DIRECTION_1BD4,x
9B3A: 4C 8B 9B jmp  $9B8B
9B3D: A9 0A    lda  #$0A
9B3F: 9D D9 1C sta  SPRITE_ANIM_FRAME_1CD9,x
9B42: A9 7F    lda  #$7F
9B44: 9D 7D 1B sta  SPRITE_FRAMES_BEFORE_MOVE_1B7D,x
9B47: A9 0F    lda  #$0F
9B49: 20 95 E3 jsr  $E395
9B4C: C6 5B    dec  $5B
9B4E: A9 0B    lda  #$0B
9B50: 99 8C 1E sta  SPRITE_TYPE_1E8C,y
9B53: A9 04    lda  #$04
9B55: 99 2B 1C sta  $1C2B,y
9B58: 99 D4 1B sta  SPRITE_DIRECTION_1BD4,y
9B5B: A9 00    lda  #$00
9B5D: 99 D9 1C sta  SPRITE_ANIM_FRAME_1CD9,y
9B60: A9 7F    lda  #$7F
9B62: 99 7D 1B sta  SPRITE_FRAMES_BEFORE_MOVE_1B7D,y
9B65: A9 01    lda  #$01
9B67: 99 82 1C sta  $1C82,y
9B6A: 8A       txa  
9B6B: 99 30 1D sta  $1D30,y
9B6E: 86 A0    stx  $A0
9B70: 98       tya  
9B71: AA       tax  
9B72: BD CF 1A lda  SPRITE_X,x
9B75: 85 BE    sta  $BE
9B77: BD E3 1E lda  SPRITE_X_EXTENT,x
9B7A: 85 C0    sta  $C0
9B7C: BD 26 1B lda  SPRITE_Y,x
9B7F: 85 BF    sta  $BF
9B81: BD 3A 1F lda  SPRITE_Y_EXTENT,x
9B84: 85 C1    sta  $C1
9B86: 20 AF E1 jsr  $E1AF
9B89: A6 A0    ldx  $A0
9B8B: BD CF 1A lda  SPRITE_X,x
9B8E: 85 BE    sta  $BE
9B90: BD E3 1E lda  SPRITE_X_EXTENT,x
9B93: 85 C0    sta  $C0
9B95: BD 26 1B lda  SPRITE_Y,x
9B98: 85 BF    sta  $BF
9B9A: BD 3A 1F lda  SPRITE_Y_EXTENT,x
9B9D: 85 C1    sta  $C1
9B9F: 20 AF E1 jsr  $E1AF
9BA2: 4C FC 91 jmp  $91FC
9BA5: A5 CB    lda  $CB
9BA7: D0 13    bne  $9BBC
9BA9: DE 30 1D dec  $1D30,x
9BAC: D0 0E    bne  $9BBC
9BAE: 20 A8 D3 jsr  $D3A8
9BB1: 29 7F    and  #$7F
9BB3: 18       clc  
9BB4: 69 03    adc  #$03
9BB6: 9D 30 1D sta  $1D30,x
9BB9: 20 81 B9 jsr  $B981
9BBC: BC D4 1B ldy  SPRITE_DIRECTION_1BD4,x
9BBF: BD CF 1A lda  SPRITE_X,x
9BC2: 18       clc  
9BC3: 79 1D EC adc  $EC1D,y
9BC6: 85 BE    sta  $BE
9BC8: BD E3 1E lda  SPRITE_X_EXTENT,x
9BCB: 18       clc  
9BCC: 79 1D EC adc  $EC1D,y
9BCF: 85 C0    sta  $C0
9BD1: BD 26 1B lda  SPRITE_Y,x
9BD4: 18       clc  
9BD5: 79 25 EC adc  $EC25,y
9BD8: 85 BF    sta  $BF
9BDA: BD 3A 1F lda  SPRITE_Y_EXTENT,x
9BDD: 18       clc  
9BDE: 79 25 EC adc  $EC25,y
9BE1: 85 C1    sta  $C1
9BE3: A5 D2    lda  $D2
9BE5: 9D 7D 1B sta  SPRITE_FRAMES_BEFORE_MOVE_1B7D,x
9BE8: BD D9 1C lda  SPRITE_ANIM_FRAME_1CD9,x
9BEB: C9 0A    cmp  #$0A
9BED: D0 04    bne  $9BF3
9BEF: A9 03    lda  #$03
9BF1: D0 07    bne  $9BFA
9BF3: DE D9 1C dec  SPRITE_ANIM_FRAME_1CD9,x
9BF6: 10 15    bpl  $9C0D
9BF8: A9 03    lda  #$03
9BFA: 9D D9 1C sta  SPRITE_ANIM_FRAME_1CD9,x
9BFD: 20 35 D1 jsr  $D135
9C00: A5 BE    lda  $BE
9C02: 18       clc  
9C03: 65 AB    adc  $AB
9C05: 85 C0    sta  $C0
9C07: A5 BF    lda  $BF
9C09: 65 AC    adc  $AC
9C0B: 85 C1    sta  $C1
9C0D: 20 B4 D1 jsr  $D1B4						; ensure that sprite is in playfield
9C10: 4C F8 97 jmp  $97F8
9C13: BD D9 1C lda  SPRITE_ANIM_FRAME_1CD9,x
9C16: C9 0A    cmp  #$0A
9C18: D0 34    bne  $9C4E
9C1A: BC 2B 1C ldy  $1C2B,x
9C1D: B9 91 1F lda  SPRITE_STATE_1F91,y
9C20: F0 27    beq  $9C49
9C22: C9 03    cmp  #$03
9C24: F0 23    beq  $9C49
9C26: A9 03    lda  #$03
9C28: 20 95 E3 jsr  $E395
9C2B: A9 80    lda  #$80
9C2D: 99 D9 1C sta  SPRITE_ANIM_FRAME_1CD9,y
9C30: A9 02    lda  #$02
9C32: 99 8C 1E sta  SPRITE_TYPE_1E8C,y
9C35: A9 02    lda  #$02
9C37: 19 91 1F ora  SPRITE_STATE_1F91,y
9C3A: 99 91 1F sta  SPRITE_STATE_1F91,y
9C3D: A9 08    lda  #$08
9C3F: 99 D4 1B sta  SPRITE_DIRECTION_1BD4,y
9C42: A9 01    lda  #$01
9C44: 99 7D 1B sta  SPRITE_FRAMES_BEFORE_MOVE_1B7D,y
9C47: E6 5B    inc  $5B
9C49: A9 00    lda  #$00
9C4B: 9D D9 1C sta  SPRITE_ANIM_FRAME_1CD9,x
9C4E: BD D9 1C lda  SPRITE_ANIM_FRAME_1CD9,x
9C51: C9 04    cmp  #$04
9C53: 10 0D    bpl  $9C62
9C55: A9 02    lda  #$02
9C57: 20 95 E3 jsr  $E395
9C5A: A9 03    lda  #$03
9C5C: 9D D9 1C sta  SPRITE_ANIM_FRAME_1CD9,x
9C5F: 4C 66 9C jmp  $9C66
9C62: C9 09    cmp  #$09
9C64: F0 0B    beq  $9C71
9C66: FE D9 1C inc  SPRITE_ANIM_FRAME_1CD9,x
9C69: A9 01    lda  #$01
9C6B: 9D 7D 1B sta  SPRITE_FRAMES_BEFORE_MOVE_1B7D,x
9C6E: 4C 77 9C jmp  $9C77
9C71: 20 1C D7 jsr  $D71C
9C74: 4C FC 91 jmp  $91FC
9C77: 20 AF E1 jsr  $E1AF
9C7A: 4C FC 91 jmp  $91FC
9C7D: BD 91 1F lda  SPRITE_STATE_1F91,x
9C80: 29 03    and  #$03
9C82: D0 08    bne  $9C8C
9C84: A9 00    lda  #$00
9C86: 9D 8C 1E sta  SPRITE_TYPE_1E8C,x
9C89: 4C FC 91 jmp  $91FC
9C8C: 29 02    and  #$02
9C8E: D0 08    bne  $9C98
9C90: A9 7F    lda  #$7F
9C92: 9D 7D 1B sta  SPRITE_FRAMES_BEFORE_MOVE_1B7D,x
9C95: 4C FC 91 jmp  $91FC
9C98: BD D9 1C lda  SPRITE_ANIM_FRAME_1CD9,x
9C9B: C9 01    cmp  #$01
9C9D: 10 0D    bpl  $9CAC
9C9F: A9 02    lda  #$02
9CA1: 20 95 E3 jsr  $E395
9CA4: A9 00    lda  #$00
9CA6: 9D D9 1C sta  SPRITE_ANIM_FRAME_1CD9,x
9CA9: 4C B0 9C jmp  $9CB0
9CAC: C9 02    cmp  #$02
9CAE: F0 0B    beq  $9CBB
9CB0: FE D9 1C inc  SPRITE_ANIM_FRAME_1CD9,x
9CB3: A9 01    lda  #$01
9CB5: 9D 7D 1B sta  SPRITE_FRAMES_BEFORE_MOVE_1B7D,x
9CB8: 4C C1 9C jmp  $9CC1
9CBB: 20 1E D7 jsr  $D71E		; mark this sprite as truly dead
9CBE: 4C FC 91 jmp  $91FC		; next sprite
9CC1: 20 AF E1 jsr  $E1AF
9CC4: 4C FC 91 jmp  $91FC
9CC7: FF       ill  $FF
9CC8: FF       ill  $FF
9CC9: FF       ill  $FF
9CCA: FF       ill  $FF
9CCB: FF       ill  $FF
9CCC: FF       ill  $FF
9CCD: FF       ill  $FF
9CCE: FF       ill  $FF
9CCF: FF       ill  $FF
9CD0: FF       ill  $FF
9CD1: FF       ill  $FF
9CD2: FF       ill  $FF
9CD3: FF       ill  $FF
9CD4: FF       ill  $FF
9CD5: FF       ill  $FF
9CD6: FF       ill  $FF
9CD7: FF       ill  $FF
9CD8: FF       ill  $FF
9CD9: FF       ill  $FF
9CDA: FF       ill  $FF
9CDB: FF       ill  $FF
9CDC: FF       ill  $FF
9CDD: FF       ill  $FF
9CDE: FF       ill  $FF
9CDF: FF       ill  $FF
9CE0: FF       ill  $FF
9CE1: FF       ill  $FF
9CE2: FF       ill  $FF
9CE3: FF       ill  $FF
9CE4: FF       ill  $FF
9CE5: FF       ill  $FF
9CE6: FF       ill  $FF
9CE7: FF       ill  $FF
9CE8: FF       ill  $FF
9CE9: FF       ill  $FF
9CEA: FF       ill  $FF
9CEB: FF       ill  $FF
9CEC: FF       ill  $FF
9CED: FF       ill  $FF
9CEE: FF       ill  $FF
9CEF: FF       ill  $FF
9CF0: FF       ill  $FF
9CF1: FF       ill  $FF
9CF2: FF       ill  $FF
9CF3: FF       ill  $FF
9CF4: FF       ill  $FF
9CF5: FF       ill  $FF
9CF6: FF       ill  $FF
9CF7: FF       ill  $FF
9CF8: FF       ill  $FF
9CF9: FF       ill  $FF
9CFA: FF       ill  $FF
9CFB: FF       ill  $FF
9CFC: FF       ill  $FF
9CFD: FF       ill  $FF
9CFE: FF       ill  $FF
9CFF: FF       ill  $FF
9D00: FF       ill  $FF
9D01: FF       ill  $FF
9D02: FF       ill  $FF
9D03: FF       ill  $FF
9D04: FF       ill  $FF
9D05: FF       ill  $FF
9D06: FF       ill  $FF
9D07: FF       ill  $FF
9D08: FF       ill  $FF
9D09: FF       ill  $FF
9D0A: FF       ill  $FF
9D0B: FF       ill  $FF
9D0C: FF       ill  $FF
9D0D: FF       ill  $FF
9D0E: FF       ill  $FF
9D0F: FF       ill  $FF
9D10: FF       ill  $FF
9D11: FF       ill  $FF
9D12: FF       ill  $FF
9D13: FF       ill  $FF
9D14: FF       ill  $FF
9D15: FF       ill  $FF
9D16: FF       ill  $FF
9D17: FF       ill  $FF
9D18: FF       ill  $FF
9D19: FF       ill  $FF
9D1A: FF       ill  $FF
9D1B: FF       ill  $FF
9D1C: FF       ill  $FF
9D1D: FF       ill  $FF
9D1E: FF       ill  $FF
9D1F: FF       ill  $FF
9D20: FF       ill  $FF
9D21: FF       ill  $FF
9D22: FF       ill  $FF
9D23: FF       ill  $FF
9D24: FF       ill  $FF
9D25: FF       ill  $FF
9D26: FF       ill  $FF
9D27: FF       ill  $FF
9D28: FF       ill  $FF
9D29: FF       ill  $FF
9D2A: FF       ill  $FF
9D2B: FF       ill  $FF
9D2C: FF       ill  $FF
9D2D: FF       ill  $FF
9D2E: FF       ill  $FF
9D2F: FF       ill  $FF
9D30: FF       ill  $FF
9D31: FF       ill  $FF
9D32: FF       ill  $FF
9D33: FF       ill  $FF
9D34: FF       ill  $FF
9D35: FF       ill  $FF
9D36: FF       ill  $FF
9D37: FF       ill  $FF
9D38: FF       ill  $FF
9D39: FF       ill  $FF
9D3A: FF       ill  $FF
9D3B: FF       ill  $FF
9D3C: FF       ill  $FF
9D3D: FF       ill  $FF
9D3E: FF       ill  $FF
9D3F: FF       ill  $FF
9D40: FF       ill  $FF
9D41: FF       ill  $FF
9D42: FF       ill  $FF
9D43: FF       ill  $FF
9D44: FF       ill  $FF
9D45: FF       ill  $FF
9D46: FF       ill  $FF
9D47: FF       ill  $FF
9D48: FF       ill  $FF
9D49: FF       ill  $FF
9D4A: FF       ill  $FF
9D4B: FF       ill  $FF
9D4C: FF       ill  $FF
9D4D: FF       ill  $FF
9D4E: FF       ill  $FF
9D4F: FF       ill  $FF
9D50: FF       ill  $FF
9D51: FF       ill  $FF
9D52: FF       ill  $FF
9D53: FF       ill  $FF
9D54: FF       ill  $FF
9D55: FF       ill  $FF
9D56: FF       ill  $FF
9D57: FF       ill  $FF
9D58: FF       ill  $FF
9D59: FF       ill  $FF
9D5A: FF       ill  $FF
9D5B: FF       ill  $FF
9D5C: FF       ill  $FF
9D5D: FF       ill  $FF
9D5E: FF       ill  $FF
9D5F: FF       ill  $FF
9D60: FF       ill  $FF
9D61: FF       ill  $FF
9D62: FF       ill  $FF
9D63: FF       ill  $FF
9D64: FF       ill  $FF
9D65: FF       ill  $FF
9D66: FF       ill  $FF
9D67: FF       ill  $FF
9D68: FF       ill  $FF
9D69: FF       ill  $FF
9D6A: FF       ill  $FF
9D6B: FF       ill  $FF
9D6C: FF       ill  $FF
9D6D: FF       ill  $FF
9D6E: FF       ill  $FF
9D6F: FF       ill  $FF
9D70: FF       ill  $FF
9D71: FF       ill  $FF
9D72: FF       ill  $FF
9D73: FF       ill  $FF
9D74: FF       ill  $FF
9D75: FF       ill  $FF
9D76: FF       ill  $FF
9D77: FF       ill  $FF
9D78: FF       ill  $FF
9D79: FF       ill  $FF
9D7A: FF       ill  $FF
9D7B: FF       ill  $FF
9D7C: FF       ill  $FF
9D7D: FF       ill  $FF
9D7E: FF       ill  $FF
9D7F: FF       ill  $FF
9D80: FF       ill  $FF
9D81: FF       ill  $FF
9D82: FF       ill  $FF
9D83: FF       ill  $FF
9D84: FF       ill  $FF
9D85: FF       ill  $FF
9D86: FF       ill  $FF
9D87: FF       ill  $FF
9D88: FF       ill  $FF
9D89: FF       ill  $FF
9D8A: FF       ill  $FF
9D8B: FF       ill  $FF
9D8C: FF       ill  $FF
9D8D: FF       ill  $FF
9D8E: FF       ill  $FF
9D8F: FF       ill  $FF
9D90: FF       ill  $FF
9D91: FF       ill  $FF
9D92: FF       ill  $FF
9D93: FF       ill  $FF
9D94: FF       ill  $FF
9D95: FF       ill  $FF
9D96: FF       ill  $FF
9D97: FF       ill  $FF
9D98: FF       ill  $FF
9D99: FF       ill  $FF
9D9A: FF       ill  $FF
9D9B: FF       ill  $FF
9D9C: FF       ill  $FF
9D9D: FF       ill  $FF
9D9E: FF       ill  $FF
9D9F: FF       ill  $FF
9DA0: FF       ill  $FF
9DA1: FF       ill  $FF
9DA2: FF       ill  $FF
9DA3: FF       ill  $FF
9DA4: FF       ill  $FF
9DA5: FF       ill  $FF
9DA6: FF       ill  $FF
9DA7: FF       ill  $FF
9DA8: FF       ill  $FF
9DA9: FF       ill  $FF
9DAA: FF       ill  $FF
9DAB: FF       ill  $FF
9DAC: FF       ill  $FF
9DAD: FF       ill  $FF
9DAE: FF       ill  $FF
9DAF: FF       ill  $FF
9DB0: FF       ill  $FF
9DB1: FF       ill  $FF
9DB2: FF       ill  $FF
9DB3: FF       ill  $FF
9DB4: FF       ill  $FF
9DB5: FF       ill  $FF
9DB6: FF       ill  $FF
9DB7: FF       ill  $FF
9DB8: FF       ill  $FF
9DB9: FF       ill  $FF
9DBA: FF       ill  $FF
9DBB: FF       ill  $FF
9DBC: FF       ill  $FF
9DBD: FF       ill  $FF
9DBE: FF       ill  $FF
9DBF: FF       ill  $FF
9DC0: FF       ill  $FF
9DC1: FF       ill  $FF
9DC2: FF       ill  $FF
9DC3: FF       ill  $FF
9DC4: FF       ill  $FF
9DC5: FF       ill  $FF
9DC6: FF       ill  $FF
9DC7: FF       ill  $FF
9DC8: FF       ill  $FF
9DC9: FF       ill  $FF
9DCA: FF       ill  $FF
9DCB: FF       ill  $FF
9DCC: FF       ill  $FF
9DCD: FF       ill  $FF
9DCE: FF       ill  $FF
9DCF: FF       ill  $FF
9DD0: FF       ill  $FF
9DD1: FF       ill  $FF
9DD2: FF       ill  $FF
9DD3: FF       ill  $FF
9DD4: FF       ill  $FF
9DD5: FF       ill  $FF
9DD6: FF       ill  $FF
9DD7: FF       ill  $FF
9DD8: FF       ill  $FF
9DD9: FF       ill  $FF
9DDA: FF       ill  $FF
9DDB: FF       ill  $FF
9DDC: FF       ill  $FF
9DDD: FF       ill  $FF
9DDE: FF       ill  $FF
9DDF: FF       ill  $FF
9DE0: FF       ill  $FF
9DE1: FF       ill  $FF
9DE2: FF       ill  $FF
9DE3: FF       ill  $FF
9DE4: FF       ill  $FF
9DE5: FF       ill  $FF
9DE6: FF       ill  $FF
9DE7: FF       ill  $FF
9DE8: FF       ill  $FF
9DE9: FF       ill  $FF
9DEA: FF       ill  $FF
9DEB: FF       ill  $FF
9DEC: FF       ill  $FF
9DED: FF       ill  $FF
9DEE: FF       ill  $FF
9DEF: FF       ill  $FF
9DF0: FF       ill  $FF
9DF1: FF       ill  $FF
9DF2: FF       ill  $FF
9DF3: FF       ill  $FF
9DF4: FF       ill  $FF
9DF5: FF       ill  $FF
9DF6: FF       ill  $FF
9DF7: FF       ill  $FF
9DF8: FF       ill  $FF
9DF9: FF       ill  $FF
9DFA: FF       ill  $FF
9DFB: FF       ill  $FF
9DFC: FF       ill  $FF
9DFD: FF       ill  $FF
9DFE: FF       ill  $FF
9DFF: FF       ill  $FF
9E00: FF       ill  $FF
9E01: FF       ill  $FF
9E02: FF       ill  $FF
9E03: FF       ill  $FF
9E04: FF       ill  $FF
9E05: FF       ill  $FF
9E06: FF       ill  $FF
9E07: FF       ill  $FF
9E08: FF       ill  $FF
9E09: FF       ill  $FF
9E0A: FF       ill  $FF
9E0B: FF       ill  $FF
9E0C: FF       ill  $FF
9E0D: FF       ill  $FF
9E0E: FF       ill  $FF
9E0F: FF       ill  $FF
9E10: FF       ill  $FF
9E11: FF       ill  $FF
9E12: FF       ill  $FF
9E13: FF       ill  $FF
9E14: FF       ill  $FF
9E15: FF       ill  $FF
9E16: FF       ill  $FF
9E17: FF       ill  $FF
9E18: FF       ill  $FF
9E19: FF       ill  $FF
9E1A: FF       ill  $FF
9E1B: FF       ill  $FF
9E1C: FF       ill  $FF
9E1D: FF       ill  $FF
9E1E: FF       ill  $FF
9E1F: FF       ill  $FF
9E20: FF       ill  $FF
9E21: FF       ill  $FF
9E22: FF       ill  $FF
9E23: FF       ill  $FF
9E24: FF       ill  $FF
9E25: FF       ill  $FF
9E26: FF       ill  $FF
9E27: FF       ill  $FF
9E28: FF       ill  $FF
9E29: FF       ill  $FF
9E2A: FF       ill  $FF
9E2B: FF       ill  $FF
9E2C: FF       ill  $FF
9E2D: FF       ill  $FF
9E2E: FF       ill  $FF
9E2F: FF       ill  $FF
9E30: FF       ill  $FF
9E31: FF       ill  $FF
9E32: FF       ill  $FF
9E33: FF       ill  $FF
9E34: FF       ill  $FF
9E35: FF       ill  $FF
9E36: FF       ill  $FF
9E37: FF       ill  $FF
9E38: FF       ill  $FF
9E39: FF       ill  $FF
9E3A: FF       ill  $FF
9E3B: FF       ill  $FF
9E3C: FF       ill  $FF
9E3D: FF       ill  $FF
9E3E: FF       ill  $FF
9E3F: FF       ill  $FF
9E40: FF       ill  $FF
9E41: FF       ill  $FF
9E42: FF       ill  $FF
9E43: FF       ill  $FF
9E44: FF       ill  $FF
9E45: FF       ill  $FF
9E46: FF       ill  $FF
9E47: FF       ill  $FF
9E48: FF       ill  $FF
9E49: FF       ill  $FF
9E4A: FF       ill  $FF
9E4B: FF       ill  $FF
9E4C: FF       ill  $FF
9E4D: FF       ill  $FF
9E4E: FF       ill  $FF
9E4F: FF       ill  $FF
9E50: FF       ill  $FF
9E51: FF       ill  $FF
9E52: FF       ill  $FF
9E53: FF       ill  $FF
9E54: FF       ill  $FF
9E55: FF       ill  $FF
9E56: FF       ill  $FF
9E57: FF       ill  $FF
9E58: FF       ill  $FF
9E59: FF       ill  $FF
9E5A: FF       ill  $FF
9E5B: FF       ill  $FF
9E5C: FF       ill  $FF
9E5D: FF       ill  $FF
9E5E: FF       ill  $FF
9E5F: FF       ill  $FF
9E60: FF       ill  $FF
9E61: FF       ill  $FF
9E62: FF       ill  $FF
9E63: FF       ill  $FF
9E64: FF       ill  $FF
9E65: FF       ill  $FF
9E66: FF       ill  $FF
9E67: FF       ill  $FF
9E68: FF       ill  $FF
9E69: FF       ill  $FF
9E6A: FF       ill  $FF
9E6B: FF       ill  $FF
9E6C: FF       ill  $FF
9E6D: FF       ill  $FF
9E6E: FF       ill  $FF
9E6F: FF       ill  $FF
9E70: FF       ill  $FF
9E71: FF       ill  $FF
9E72: FF       ill  $FF
9E73: FF       ill  $FF
9E74: FF       ill  $FF
9E75: FF       ill  $FF
9E76: FF       ill  $FF
9E77: FF       ill  $FF
9E78: FF       ill  $FF
9E79: FF       ill  $FF
9E7A: FF       ill  $FF
9E7B: FF       ill  $FF
9E7C: FF       ill  $FF
9E7D: FF       ill  $FF
9E7E: FF       ill  $FF
9E7F: FF       ill  $FF
9E80: FF       ill  $FF
9E81: FF       ill  $FF
9E82: FF       ill  $FF
9E83: FF       ill  $FF
9E84: FF       ill  $FF
9E85: FF       ill  $FF
9E86: FF       ill  $FF
9E87: FF       ill  $FF
9E88: FF       ill  $FF
9E89: FF       ill  $FF
9E8A: FF       ill  $FF
9E8B: FF       ill  $FF
9E8C: FF       ill  $FF
9E8D: FF       ill  $FF
9E8E: FF       ill  $FF
9E8F: FF       ill  $FF
9E90: FF       ill  $FF
9E91: FF       ill  $FF
9E92: FF       ill  $FF
9E93: FF       ill  $FF
9E94: FF       ill  $FF
9E95: FF       ill  $FF
9E96: FF       ill  $FF
9E97: FF       ill  $FF
9E98: FF       ill  $FF
9E99: FF       ill  $FF
9E9A: FF       ill  $FF
9E9B: FF       ill  $FF
9E9C: FF       ill  $FF
9E9D: FF       ill  $FF
9E9E: FF       ill  $FF
9E9F: FF       ill  $FF
9EA0: FF       ill  $FF
9EA1: FF       ill  $FF
9EA2: FF       ill  $FF
9EA3: FF       ill  $FF
9EA4: FF       ill  $FF
9EA5: FF       ill  $FF
9EA6: FF       ill  $FF
9EA7: FF       ill  $FF
9EA8: FF       ill  $FF
9EA9: FF       ill  $FF
9EAA: FF       ill  $FF
9EAB: FF       ill  $FF
9EAC: FF       ill  $FF
9EAD: FF       ill  $FF
9EAE: FF       ill  $FF
9EAF: FF       ill  $FF
9EB0: FF       ill  $FF
9EB1: FF       ill  $FF
9EB2: FF       ill  $FF
9EB3: FF       ill  $FF
9EB4: FF       ill  $FF
9EB5: FF       ill  $FF
9EB6: FF       ill  $FF
9EB7: FF       ill  $FF
9EB8: FF       ill  $FF
9EB9: FF       ill  $FF
9EBA: FF       ill  $FF
9EBB: FF       ill  $FF
9EBC: FF       ill  $FF
9EBD: FF       ill  $FF
9EBE: FF       ill  $FF
9EBF: FF       ill  $FF
9EC0: FF       ill  $FF
9EC1: FF       ill  $FF
9EC2: FF       ill  $FF
9EC3: FF       ill  $FF
9EC4: FF       ill  $FF
9EC5: FF       ill  $FF
9EC6: FF       ill  $FF
9EC7: FF       ill  $FF
9EC8: FF       ill  $FF
9EC9: FF       ill  $FF
9ECA: FF       ill  $FF
9ECB: FF       ill  $FF
9ECC: FF       ill  $FF
9ECD: FF       ill  $FF
9ECE: FF       ill  $FF
9ECF: FF       ill  $FF
9ED0: FF       ill  $FF
9ED1: FF       ill  $FF
9ED2: FF       ill  $FF
9ED3: FF       ill  $FF
9ED4: FF       ill  $FF
9ED5: FF       ill  $FF
9ED6: FF       ill  $FF
9ED7: FF       ill  $FF
9ED8: FF       ill  $FF
9ED9: FF       ill  $FF
9EDA: FF       ill  $FF
9EDB: FF       ill  $FF
9EDC: FF       ill  $FF
9EDD: FF       ill  $FF
9EDE: FF       ill  $FF
9EDF: FF       ill  $FF
9EE0: FF       ill  $FF
9EE1: FF       ill  $FF
9EE2: FF       ill  $FF
9EE3: FF       ill  $FF
9EE4: FF       ill  $FF
9EE5: FF       ill  $FF
9EE6: FF       ill  $FF
9EE7: FF       ill  $FF
9EE8: FF       ill  $FF
9EE9: FF       ill  $FF
9EEA: FF       ill  $FF
9EEB: FF       ill  $FF
9EEC: FF       ill  $FF
9EED: FF       ill  $FF
9EEE: FF       ill  $FF
9EEF: FF       ill  $FF
9EF0: FF       ill  $FF
9EF1: FF       ill  $FF
9EF2: FF       ill  $FF
9EF3: FF       ill  $FF
9EF4: FF       ill  $FF
9EF5: FF       ill  $FF
9EF6: FF       ill  $FF
9EF7: FF       ill  $FF
9EF8: FF       ill  $FF
9EF9: FF       ill  $FF
9EFA: FF       ill  $FF
9EFB: FF       ill  $FF
9EFC: FF       ill  $FF
9EFD: FF       ill  $FF
9EFE: FF       ill  $FF
9EFF: FF       ill  $FF
9F00: FF       ill  $FF
9F01: FF       ill  $FF
9F02: FF       ill  $FF
9F03: FF       ill  $FF
9F04: FF       ill  $FF
9F05: FF       ill  $FF
9F06: FF       ill  $FF
9F07: FF       ill  $FF
9F08: FF       ill  $FF
9F09: FF       ill  $FF
9F0A: FF       ill  $FF
9F0B: FF       ill  $FF
9F0C: FF       ill  $FF
9F0D: FF       ill  $FF
9F0E: FF       ill  $FF
9F0F: FF       ill  $FF
9F10: FF       ill  $FF
9F11: FF       ill  $FF
9F12: FF       ill  $FF
9F13: FF       ill  $FF
9F14: FF       ill  $FF
9F15: FF       ill  $FF
9F16: FF       ill  $FF
9F17: FF       ill  $FF
9F18: FF       ill  $FF
9F19: FF       ill  $FF
9F1A: FF       ill  $FF
9F1B: FF       ill  $FF
9F1C: FF       ill  $FF
9F1D: FF       ill  $FF
9F1E: FF       ill  $FF
9F1F: FF       ill  $FF
9F20: FF       ill  $FF
9F21: FF       ill  $FF
9F22: FF       ill  $FF
9F23: FF       ill  $FF
9F24: FF       ill  $FF
9F25: FF       ill  $FF
9F26: FF       ill  $FF
9F27: FF       ill  $FF
9F28: FF       ill  $FF
9F29: FF       ill  $FF
9F2A: FF       ill  $FF
9F2B: FF       ill  $FF
9F2C: FF       ill  $FF
9F2D: FF       ill  $FF
9F2E: FF       ill  $FF
9F2F: FF       ill  $FF
9F30: FF       ill  $FF
9F31: FF       ill  $FF
9F32: FF       ill  $FF
9F33: FF       ill  $FF
9F34: FF       ill  $FF
9F35: FF       ill  $FF
9F36: FF       ill  $FF
9F37: FF       ill  $FF
9F38: FF       ill  $FF
9F39: FF       ill  $FF
9F3A: FF       ill  $FF
9F3B: FF       ill  $FF
9F3C: FF       ill  $FF
9F3D: FF       ill  $FF
9F3E: FF       ill  $FF
9F3F: FF       ill  $FF
9F40: FF       ill  $FF
9F41: FF       ill  $FF
9F42: FF       ill  $FF
9F43: FF       ill  $FF
9F44: FF       ill  $FF
9F45: FF       ill  $FF
9F46: FF       ill  $FF
9F47: FF       ill  $FF
9F48: FF       ill  $FF
9F49: FF       ill  $FF
9F4A: FF       ill  $FF
9F4B: FF       ill  $FF
9F4C: FF       ill  $FF
9F4D: FF       ill  $FF
9F4E: FF       ill  $FF
9F4F: FF       ill  $FF
9F50: FF       ill  $FF
9F51: FF       ill  $FF
9F52: FF       ill  $FF
9F53: FF       ill  $FF
9F54: FF       ill  $FF
9F55: FF       ill  $FF
9F56: FF       ill  $FF
9F57: FF       ill  $FF
9F58: FF       ill  $FF
9F59: FF       ill  $FF
9F5A: FF       ill  $FF
9F5B: FF       ill  $FF
9F5C: FF       ill  $FF
9F5D: FF       ill  $FF
9F5E: FF       ill  $FF
9F5F: FF       ill  $FF
9F60: FF       ill  $FF
9F61: FF       ill  $FF
9F62: FF       ill  $FF
9F63: FF       ill  $FF
9F64: FF       ill  $FF
9F65: FF       ill  $FF
9F66: FF       ill  $FF
9F67: FF       ill  $FF
9F68: FF       ill  $FF
9F69: FF       ill  $FF
9F6A: FF       ill  $FF
9F6B: FF       ill  $FF
9F6C: FF       ill  $FF
9F6D: FF       ill  $FF
9F6E: FF       ill  $FF
9F6F: FF       ill  $FF
9F70: FF       ill  $FF
9F71: FF       ill  $FF
9F72: FF       ill  $FF
9F73: FF       ill  $FF
9F74: FF       ill  $FF
9F75: FF       ill  $FF
9F76: FF       ill  $FF
9F77: FF       ill  $FF
9F78: FF       ill  $FF
9F79: FF       ill  $FF
9F7A: FF       ill  $FF
9F7B: FF       ill  $FF
9F7C: FF       ill  $FF
9F7D: FF       ill  $FF
9F7E: FF       ill  $FF
9F7F: FF       ill  $FF
9F80: FF       ill  $FF
9F81: FF       ill  $FF
9F82: FF       ill  $FF
9F83: FF       ill  $FF
9F84: FF       ill  $FF
9F85: FF       ill  $FF
9F86: FF       ill  $FF
9F87: FF       ill  $FF
9F88: FF       ill  $FF
9F89: FF       ill  $FF
9F8A: FF       ill  $FF
9F8B: FF       ill  $FF
9F8C: FF       ill  $FF
9F8D: FF       ill  $FF
9F8E: FF       ill  $FF
9F8F: FF       ill  $FF
9F90: FF       ill  $FF
9F91: FF       ill  $FF
9F92: FF       ill  $FF
9F93: FF       ill  $FF
9F94: FF       ill  $FF
9F95: FF       ill  $FF
9F96: FF       ill  $FF
9F97: FF       ill  $FF
9F98: FF       ill  $FF
9F99: FF       ill  $FF
9F9A: FF       ill  $FF
9F9B: FF       ill  $FF
9F9C: FF       ill  $FF
9F9D: FF       ill  $FF
9F9E: FF       ill  $FF
9F9F: FF       ill  $FF
9FA0: FF       ill  $FF
9FA1: FF       ill  $FF
9FA2: FF       ill  $FF
9FA3: FF       ill  $FF
9FA4: FF       ill  $FF
9FA5: FF       ill  $FF
9FA6: FF       ill  $FF
9FA7: FF       ill  $FF
9FA8: FF       ill  $FF
9FA9: FF       ill  $FF
9FAA: FF       ill  $FF
9FAB: FF       ill  $FF
9FAC: FF       ill  $FF
9FAD: FF       ill  $FF
9FAE: FF       ill  $FF
9FAF: FF       ill  $FF
9FB0: FF       ill  $FF
9FB1: FF       ill  $FF
9FB2: FF       ill  $FF
9FB3: FF       ill  $FF
9FB4: FF       ill  $FF
9FB5: FF       ill  $FF
9FB6: FF       ill  $FF
9FB7: FF       ill  $FF
9FB8: FF       ill  $FF
9FB9: FF       ill  $FF
9FBA: FF       ill  $FF
9FBB: FF       ill  $FF
9FBC: FF       ill  $FF
9FBD: FF       ill  $FF
9FBE: FF       ill  $FF
9FBF: FF       ill  $FF
9FC0: FF       ill  $FF
9FC1: FF       ill  $FF
9FC2: FF       ill  $FF
9FC3: FF       ill  $FF
9FC4: FF       ill  $FF
9FC5: FF       ill  $FF
9FC6: FF       ill  $FF
9FC7: FF       ill  $FF
9FC8: FF       ill  $FF
9FC9: FF       ill  $FF
9FCA: FF       ill  $FF
9FCB: FF       ill  $FF
9FCC: FF       ill  $FF
9FCD: FF       ill  $FF
9FCE: FF       ill  $FF
9FCF: FF       ill  $FF
9FD0: FF       ill  $FF
9FD1: FF       ill  $FF
9FD2: FF       ill  $FF
9FD3: FF       ill  $FF
9FD4: FF       ill  $FF
9FD5: FF       ill  $FF
9FD6: FF       ill  $FF
9FD7: FF       ill  $FF
9FD8: FF       ill  $FF
9FD9: FF       ill  $FF
9FDA: FF       ill  $FF
9FDB: FF       ill  $FF
9FDC: FF       ill  $FF
9FDD: FF       ill  $FF
9FDE: FF       ill  $FF
9FDF: FF       ill  $FF
9FE0: FF       ill  $FF
9FE1: FF       ill  $FF
9FE2: FF       ill  $FF
9FE3: FF       ill  $FF
9FE4: FF       ill  $FF
9FE5: FF       ill  $FF
9FE6: FF       ill  $FF
9FE7: FF       ill  $FF
9FE8: FF       ill  $FF
9FE9: FF       ill  $FF
9FEA: FF       ill  $FF
9FEB: FF       ill  $FF
9FEC: FF       ill  $FF
9FED: FF       ill  $FF
9FEE: FF       ill  $FF
9FEF: FF       ill  $FF
9FF0: FF       ill  $FF
9FF1: FF       ill  $FF
9FF2: FF       ill  $FF
9FF3: FF       ill  $FF
9FF4: FF       ill  $FF
9FF5: FF       ill  $FF
9FF6: FF       ill  $FF
9FF7: FF       ill  $FF
9FF8: FF       ill  $FF
9FF9: FF       ill  $FF
9FFA: FF       ill  $FF
9FFB: FF       ill  $FF
9FFC: FF       ill  $FF
9FFD: FF       ill  $FF
9FFE: FF       ill  $FF
9FFF: FF       ill  $FF

A000: 00 00    brk  #$00
A002: 00 00    brk  #$00
A004: 00 00    brk  #$00
A006: 00 00    brk  #$00
A008: 00 00    brk  #$00
A00A: 00 00    brk  #$00
A00C: 00 00    brk  #$00
A00E: 00 00    brk  #$00
A010: 00 00    brk  #$00
A012: 00 00    brk  #$00
A014: 00 00    brk  #$00
A016: 00 00    brk  #$00
A018: 00 00    brk  #$00
A01A: 00 00    brk  #$00
A01C: 00 00    brk  #$00
A01E: 00 00    brk  #$00
A020: 00 00    brk  #$00
A022: 00 00    brk  #$00
A024: 00 00    brk  #$00
A026: 00 00    brk  #$00
A028: 00 00    brk  #$00
A02A: 00 00    brk  #$00
A02C: 00 00    brk  #$00
A02E: 00 00    brk  #$00
A030: 00 00    brk  #$00
A032: 00 00    brk  #$00
A034: 00 00    brk  #$00
A036: 00 00    brk  #$00
A038: 00 00    brk  #$00
A03A: 00 00    brk  #$00
A03C: 00 00    brk  #$00
A03E: 00 00    brk  #$00
A040: 00 00    brk  #$00
A042: 00 00    brk  #$00
A044: 00 00    brk  #$00
A046: 00 00    brk  #$00
A048: 00 00    brk  #$00
A04A: 00 00    brk  #$00
A04C: 00 00    brk  #$00
A04E: 00 00    brk  #$00
A050: 00 00    brk  #$00
A052: 00 00    brk  #$00
A054: 00 00    brk  #$00
A056: 00 00    brk  #$00
A058: 00 00    brk  #$00
A05A: 00 00    brk  #$00
A05C: 00 00    brk  #$00
A05E: 00 00    brk  #$00
A060: 00 00    brk  #$00
A062: 00 00    brk  #$00
A064: 00 00    brk  #$00
A066: 00 00    brk  #$00
A068: 00 00    brk  #$00
A06A: 00 00    brk  #$00
A06C: 03       ill  $03
A06D: B0 00    bcs  $A06F
A06F: 0B       ill  $0B
A070: F8       sed  
A071: 00 0F    brk  #$0F
A073: EC 00 3F cpx  $3F00
A076: BF       ill  $BF
A077: 00 3F    brk  #$3F
A079: BF       ill  $BF
A07A: 00 3E    brk  #$3E
A07C: FE 00 3B inc  $3B00,x
A07F: FB       ill  $FB
A080: 00 2F    brk  #$2F
A082: EF       ill  $EF
A083: 00 3F    brk  #$3F
A085: BF       ill  $BF
A086: 00 03    brk  #$03
A088: B0 00    bcs  $A08A
A08A: 00 C0    brk  #$C0
A08C: 00 00    brk  #$00
A08E: 00 00    brk  #$00
A090: C0 C0    cpy  #$C0
A092: AA       tax  
A093: 80       ill  $80
A094: 00 00    brk  #$00
A096: 00 00    brk  #$00
A098: 00 00    brk  #$00
A09A: 00 00    brk  #$00
A09C: 00 00    brk  #$00
A09E: 00 00    brk  #$00
A0A0: 00 00    brk  #$00
A0A2: 00 00    brk  #$00
A0A4: 00 00    brk  #$00
A0A6: 00 00    brk  #$00
A0A8: 00 00    brk  #$00
A0AA: 00 00    brk  #$00
A0AC: 00 00    brk  #$00
A0AE: 00 00    brk  #$00
A0B0: 00 00    brk  #$00
A0B2: 00 00    brk  #$00
A0B4: 00 00    brk  #$00
A0B6: 00 00    brk  #$00
A0B8: 00 00    brk  #$00
A0BA: 00 00    brk  #$00
A0BC: 00 00    brk  #$00
A0BE: 00 00    brk  #$00
A0C0: 00 00    brk  #$00
A0C2: 00 00    brk  #$00
A0C4: 00 00    brk  #$00
A0C6: 00 00    brk  #$00
A0C8: 00 00    brk  #$00
A0CA: 00 00    brk  #$00
A0CC: 00 00    brk  #$00
A0CE: 00 00    brk  #$00
A0D0: 00 00    brk  #$00
A0D2: 00 00    brk  #$00
A0D4: 00 00    brk  #$00
A0D6: 00 00    brk  #$00
A0D8: 00 00    brk  #$00
A0DA: 00 00    brk  #$00
A0DC: 00 FF    brk  #$FF
A0DE: FF       ill  $FF
A0DF: FF       ill  $FF
A0E0: FF       ill  $FF
A0E1: FF       ill  $FF
A0E2: FF       ill  $FF
A0E3: FF       ill  $FF
A0E4: FF       ill  $FF
A0E5: FF       ill  $FF
A0E6: FF       ill  $FF
A0E7: FF       ill  $FF
A0E8: FF       ill  $FF
A0E9: FF       ill  $FF
A0EA: FF       ill  $FF
A0EB: FF       ill  $FF
A0EC: FF       ill  $FF
A0ED: FF       ill  $FF
A0EE: FF       ill  $FF
A0EF: FF       ill  $FF
A0F0: FF       ill  $FF
A0F1: FF       ill  $FF
A0F2: FF       ill  $FF
A0F3: FF       ill  $FF
A0F4: FF       ill  $FF
A0F5: FF       ill  $FF
A0F6: FF       ill  $FF
A0F7: FF       ill  $FF
A0F8: FF       ill  $FF
A0F9: FF       ill  $FF
A0FA: FF       ill  $FF
A0FB: FF       ill  $FF
A0FC: FF       ill  $FF
A0FD: FF       ill  $FF
A0FE: FF       ill  $FF
A0FF: FF       ill  $FF
A100: 00 00    brk  #$00
A102: 00 00    brk  #$00
A104: 00 00    brk  #$00
A106: 00 00    brk  #$00
A108: 00 00    brk  #$00
A10A: 00 00    brk  #$00
A10C: 00 00    brk  #$00
A10E: 00 00    brk  #$00
A110: 00 00    brk  #$00
A112: 00 00    brk  #$00
A114: 00 00    brk  #$00
A116: 00 00    brk  #$00
A118: 00 00    brk  #$00
A11A: 00 00    brk  #$00
A11C: 00 00    brk  #$00
A11E: 00 00    brk  #$00
A120: 00 00    brk  #$00
A122: 00 00    brk  #$00
A124: 00 00    brk  #$00
A126: 00 00    brk  #$00
A128: 00 00    brk  #$00
A12A: 00 00    brk  #$00
A12C: 00 00    brk  #$00
A12E: 00 00    brk  #$00
A130: 00 00    brk  #$00
A132: 00 00    brk  #$00
A134: 00 00    brk  #$00
A136: 00 00    brk  #$00
A138: 00 00    brk  #$00
A13A: 00 00    brk  #$00
A13C: 00 00    brk  #$00
A13E: 00 00    brk  #$00
A140: 00 00    brk  #$00
A142: 00 00    brk  #$00
A144: 00 00    brk  #$00
A146: 00 00    brk  #$00
A148: 00 00    brk  #$00
A14A: 00 00    brk  #$00
A14C: 00 00    brk  #$00
A14E: 00 00    brk  #$00
A150: 00 00    brk  #$00
A152: 00 00    brk  #$00
A154: 00 00    brk  #$00
A156: 00 00    brk  #$00
A158: 00 00    brk  #$00
A15A: 00 00    brk  #$00
A15C: 00 00    brk  #$00
A15E: 00 00    brk  #$00
A160: 00 00    brk  #$00
A162: 00 00    brk  #$00
A164: 00 00    brk  #$00
A166: 00 00    brk  #$00
A168: 00 00    brk  #$00
A16A: 00 00    brk  #$00
A16C: 02       ill  $02
A16D: 20 00 0E jsr  $0E00
A170: EC 00 3E cpx  $3E00
A173: FB       ill  $FB
A174: 00 80    brk  #$80
A176: 00 80    brk  #$80
A178: 80       ill  $80
A179: 00 80    brk  #$80
A17B: C0 00    cpy  #$00
A17D: C0 C0    cpy  #$C0
A17F: 00 C0    brk  #$C0
A181: C0 00    cpy  #$00
A183: C0 00    cpy  #$00
A185: 00 00    brk  #$00
A187: 00 00    brk  #$00
A189: 00 00    brk  #$00
A18B: C0 00    cpy  #$00
A18D: 00 00    brk  #$00
A18F: 00 F3    brk  #$F3
A191: C0 80    cpy  #$80
A193: 80       ill  $80
A194: 00 00    brk  #$00
A196: 00 00    brk  #$00
A198: 00 00    brk  #$00
A19A: 00 00    brk  #$00
A19C: 00 00    brk  #$00
A19E: 00 00    brk  #$00
A1A0: 00 00    brk  #$00
A1A2: 00 00    brk  #$00
A1A4: 00 00    brk  #$00
A1A6: 00 00    brk  #$00
A1A8: 00 00    brk  #$00
A1AA: 00 00    brk  #$00
A1AC: 00 00    brk  #$00
A1AE: 00 00    brk  #$00
A1B0: 00 00    brk  #$00
A1B2: 00 00    brk  #$00
A1B4: 00 00    brk  #$00
A1B6: 00 00    brk  #$00
A1B8: 00 00    brk  #$00
A1BA: 00 00    brk  #$00
A1BC: 00 00    brk  #$00
A1BE: 00 00    brk  #$00
A1C0: 00 00    brk  #$00
A1C2: 00 00    brk  #$00
A1C4: 00 00    brk  #$00
A1C6: 00 00    brk  #$00
A1C8: 00 00    brk  #$00
A1CA: 00 00    brk  #$00
A1CC: 00 00    brk  #$00
A1CE: 00 00    brk  #$00
A1D0: 00 00    brk  #$00
A1D2: 00 00    brk  #$00
A1D4: 00 00    brk  #$00
A1D6: 00 00    brk  #$00
A1D8: 00 00    brk  #$00
A1DA: 00 00    brk  #$00
A1DC: 00 FF    brk  #$FF
A1DE: FF       ill  $FF
A1DF: FF       ill  $FF
A1E0: FF       ill  $FF
A1E1: FF       ill  $FF
A1E2: FF       ill  $FF
A1E3: FF       ill  $FF
A1E4: FF       ill  $FF
A1E5: FF       ill  $FF
A1E6: FF       ill  $FF
A1E7: FF       ill  $FF
A1E8: FF       ill  $FF
A1E9: FF       ill  $FF
A1EA: FF       ill  $FF
A1EB: FF       ill  $FF
A1EC: FF       ill  $FF
A1ED: FF       ill  $FF
A1EE: FF       ill  $FF
A1EF: FF       ill  $FF
A1F0: FF       ill  $FF
A1F1: FF       ill  $FF
A1F2: FF       ill  $FF
A1F3: FF       ill  $FF
A1F4: FF       ill  $FF
A1F5: FF       ill  $FF
A1F6: FF       ill  $FF
A1F7: FF       ill  $FF
A1F8: FF       ill  $FF
A1F9: FF       ill  $FF
A1FA: FF       ill  $FF
A1FB: FF       ill  $FF
A1FC: FF       ill  $FF
A1FD: FF       ill  $FF
A1FE: FF       ill  $FF
A1FF: FF       ill  $FF
A200: 00 00    brk  #$00
A202: 00 00    brk  #$00
A204: 00 00    brk  #$00
A206: 00 00    brk  #$00
A208: 00 00    brk  #$00
A20A: 00 00    brk  #$00
A20C: 00 00    brk  #$00
A20E: 00 00    brk  #$00
A210: 00 00    brk  #$00
A212: 00 00    brk  #$00
A214: 00 00    brk  #$00
A216: 00 00    brk  #$00
A218: 00 00    brk  #$00
A21A: 00 00    brk  #$00
A21C: 00 00    brk  #$00
A21E: 00 00    brk  #$00
A220: 00 00    brk  #$00
A222: 00 00    brk  #$00
A224: 00 00    brk  #$00
A226: 00 00    brk  #$00
A228: 00 00    brk  #$00
A22A: 00 00    brk  #$00
A22C: 00 00    brk  #$00
A22E: 00 00    brk  #$00
A230: 00 00    brk  #$00
A232: 00 00    brk  #$00
A234: 00 00    brk  #$00
A236: 00 00    brk  #$00
A238: 00 00    brk  #$00
A23A: 00 00    brk  #$00
A23C: 00 00    brk  #$00
A23E: 00 00    brk  #$00
A240: 00 00    brk  #$00
A242: 00 00    brk  #$00
A244: 00 00    brk  #$00
A246: 00 00    brk  #$00
A248: 00 00    brk  #$00
A24A: 00 00    brk  #$00
A24C: 00 00    brk  #$00
A24E: 00 00    brk  #$00
A250: 00 00    brk  #$00
A252: 00 00    brk  #$00
A254: 00 00    brk  #$00
A256: 00 00    brk  #$00
A258: 00 00    brk  #$00
A25A: 00 00    brk  #$00
A25C: 00 00    brk  #$00
A25E: 00 00    brk  #$00
A260: 00 00    brk  #$00
A262: 00 00    brk  #$00
A264: 00 00    brk  #$00
A266: 00 00    brk  #$00
A268: 00 00    brk  #$00
A26A: 00 00    brk  #$00
A26C: 02       ill  $02
A26D: 60       rts  
A26E: 00 09    brk  #$09
A270: 08       php  
A271: 00 0A    brk  #$0A
A273: A8       tay  
A274: 00 FB    brk  #$FB
A276: FB       ill  $FB
A277: C0 C0    cpy  #$C0
A279: 00 C0    brk  #$C0
A27B: 80       ill  $80
A27C: 00 C0    brk  #$C0
A27E: C0 00    cpy  #$00
A280: C0 C0    cpy  #$C0
A282: 00 80    brk  #$80
A284: C3       ill  $C3
A285: 30 C0    bmi  $A247
A287: 03       ill  $03
A288: 30 00    bmi  $A28A
A28A: 00 C0    brk  #$C0
A28C: 00 00    brk  #$00
A28E: 00 00    brk  #$00
A290: C0 C0    cpy  #$C0
A292: A2 80    ldx  #$80
A294: 00 00    brk  #$00
A296: 00 00    brk  #$00
A298: 00 00    brk  #$00
A29A: 00 00    brk  #$00
A29C: 00 00    brk  #$00
A29E: 00 00    brk  #$00
A2A0: 00 00    brk  #$00
A2A2: 00 00    brk  #$00
A2A4: 00 00    brk  #$00
A2A6: 00 00    brk  #$00
A2A8: 00 00    brk  #$00
A2AA: 00 00    brk  #$00
A2AC: 00 00    brk  #$00
A2AE: 00 00    brk  #$00
A2B0: 00 00    brk  #$00
A2B2: 00 00    brk  #$00
A2B4: 00 00    brk  #$00
A2B6: 00 00    brk  #$00
A2B8: 00 00    brk  #$00
A2BA: 00 00    brk  #$00
A2BC: 00 00    brk  #$00
A2BE: 00 00    brk  #$00
A2C0: 00 00    brk  #$00
A2C2: 00 00    brk  #$00
A2C4: 00 00    brk  #$00
A2C6: 00 00    brk  #$00
A2C8: 00 00    brk  #$00
A2CA: 00 00    brk  #$00
A2CC: 00 00    brk  #$00
A2CE: 00 00    brk  #$00
A2D0: 00 00    brk  #$00
A2D2: 00 00    brk  #$00
A2D4: 00 00    brk  #$00
A2D6: 00 00    brk  #$00
A2D8: 00 00    brk  #$00
A2DA: 00 00    brk  #$00
A2DC: 00 FF    brk  #$FF
A2DE: FF       ill  $FF
A2DF: FF       ill  $FF
A2E0: FF       ill  $FF
A2E1: FF       ill  $FF
A2E2: FF       ill  $FF
A2E3: FF       ill  $FF
A2E4: FF       ill  $FF
A2E5: FF       ill  $FF
A2E6: FF       ill  $FF
A2E7: FF       ill  $FF
A2E8: FF       ill  $FF
A2E9: FF       ill  $FF
A2EA: FF       ill  $FF
A2EB: FF       ill  $FF
A2EC: FF       ill  $FF
A2ED: FF       ill  $FF
A2EE: FF       ill  $FF
A2EF: FF       ill  $FF
A2F0: FF       ill  $FF
A2F1: FF       ill  $FF
A2F2: FF       ill  $FF
A2F3: FF       ill  $FF
A2F4: FF       ill  $FF
A2F5: FF       ill  $FF
A2F6: FF       ill  $FF
A2F7: FF       ill  $FF
A2F8: FF       ill  $FF
A2F9: FF       ill  $FF
A2FA: FF       ill  $FF
A2FB: FF       ill  $FF
A2FC: FF       ill  $FF
A2FD: FF       ill  $FF
A2FE: FF       ill  $FF
A2FF: FF       ill  $FF
A300: 00 00    brk  #$00
A302: 00 00    brk  #$00
A304: 00 00    brk  #$00
A306: 00 00    brk  #$00
A308: 00 00    brk  #$00
A30A: 00 00    brk  #$00
A30C: 00 00    brk  #$00
A30E: 00 00    brk  #$00
A310: 00 00    brk  #$00
A312: 00 00    brk  #$00
A314: 00 00    brk  #$00
A316: 00 00    brk  #$00
A318: 00 00    brk  #$00
A31A: 00 00    brk  #$00
A31C: 00 00    brk  #$00
A31E: 00 00    brk  #$00
A320: 00 00    brk  #$00
A322: 00 00    brk  #$00
A324: 00 00    brk  #$00
A326: 00 00    brk  #$00
A328: 00 00    brk  #$00
A32A: 00 00    brk  #$00
A32C: 00 00    brk  #$00
A32E: 00 00    brk  #$00
A330: 00 00    brk  #$00
A332: 00 00    brk  #$00
A334: 00 00    brk  #$00
A336: 00 00    brk  #$00
A338: 00 00    brk  #$00
A33A: 00 00    brk  #$00
A33C: 00 00    brk  #$00
A33E: 00 00    brk  #$00
A340: 00 00    brk  #$00
A342: 00 00    brk  #$00
A344: 00 00    brk  #$00
A346: 00 00    brk  #$00
A348: 00 00    brk  #$00
A34A: 00 00    brk  #$00
A34C: 00 00    brk  #$00
A34E: 00 00    brk  #$00
A350: 00 00    brk  #$00
A352: 00 00    brk  #$00
A354: 00 00    brk  #$00
A356: 00 00    brk  #$00
A358: 00 00    brk  #$00
A35A: 00 00    brk  #$00
A35C: 00 00    brk  #$00
A35E: 00 00    brk  #$00
A360: 00 00    brk  #$00
A362: 00 00    brk  #$00
A364: 00 00    brk  #$00
A366: 00 00    brk  #$00
A368: 00 00    brk  #$00
A36A: 00 00    brk  #$00
A36C: 02       ill  $02
A36D: A0 00    ldy  #$00
A36F: 09 18    ora  #$18
A371: 00 09    brk  #$09
A373: 48       pha  
A374: 00 2A    brk  #$2A
A376: AA       tax  
A377: 00 FB    brk  #$FB
A379: FB       ill  $FB
A37A: C0 FE    cpy  #$FE
A37C: FE C0 BF inc  $BFC0,x
A37F: BF       ill  $BF
A380: 80       ill  $80
A381: EF       ill  $EF
A382: EF       ill  $EF
A383: C0 00    cpy  #$00
A385: 00 00    brk  #$00
A387: 00 80    brk  #$80
A389: 00 00    brk  #$00
A38B: 80       ill  $80
A38C: 00 00    brk  #$00
A38E: 00 00    brk  #$00
A390: F3       ill  $F3
A391: C0 A2    cpy  #$A2
A393: 80       ill  $80
A394: 00 00    brk  #$00
A396: 00 00    brk  #$00
A398: 00 00    brk  #$00
A39A: 00 00    brk  #$00
A39C: 00 00    brk  #$00
A39E: 00 00    brk  #$00
A3A0: 00 00    brk  #$00
A3A2: 00 00    brk  #$00
A3A4: 00 00    brk  #$00
A3A6: 00 00    brk  #$00
A3A8: 00 00    brk  #$00
A3AA: 00 00    brk  #$00
A3AC: 00 00    brk  #$00
A3AE: 00 00    brk  #$00
A3B0: 00 00    brk  #$00
A3B2: 00 00    brk  #$00
A3B4: 00 00    brk  #$00
A3B6: 00 00    brk  #$00
A3B8: 00 00    brk  #$00
A3BA: 00 00    brk  #$00
A3BC: 00 00    brk  #$00
A3BE: 00 00    brk  #$00
A3C0: 00 00    brk  #$00
A3C2: 00 00    brk  #$00
A3C4: 00 00    brk  #$00
A3C6: 00 00    brk  #$00
A3C8: 00 00    brk  #$00
A3CA: 00 00    brk  #$00
A3CC: 00 00    brk  #$00
A3CE: 00 00    brk  #$00
A3D0: 00 00    brk  #$00
A3D2: 00 00    brk  #$00
A3D4: 00 00    brk  #$00
A3D6: 00 00    brk  #$00
A3D8: 00 00    brk  #$00
A3DA: 00 00    brk  #$00
A3DC: 00 FF    brk  #$FF
A3DE: FF       ill  $FF
A3DF: FF       ill  $FF
A3E0: FF       ill  $FF
A3E1: FF       ill  $FF
A3E2: FF       ill  $FF
A3E3: FF       ill  $FF
A3E4: FF       ill  $FF
A3E5: FF       ill  $FF
A3E6: FF       ill  $FF
A3E7: FF       ill  $FF
A3E8: FF       ill  $FF
A3E9: FF       ill  $FF
A3EA: FF       ill  $FF
A3EB: FF       ill  $FF
A3EC: FF       ill  $FF
A3ED: FF       ill  $FF
A3EE: FF       ill  $FF
A3EF: FF       ill  $FF
A3F0: FF       ill  $FF
A3F1: FF       ill  $FF
A3F2: FF       ill  $FF
A3F3: FF       ill  $FF
A3F4: FF       ill  $FF
A3F5: FF       ill  $FF
A3F6: FF       ill  $FF
A3F7: FF       ill  $FF
A3F8: FF       ill  $FF
A3F9: FF       ill  $FF
A3FA: FF       ill  $FF
A3FB: FF       ill  $FF
A3FC: FF       ill  $FF
A3FD: FF       ill  $FF
A3FE: FF       ill  $FF
A3FF: FF       ill  $FF
A400: 00 00    brk  #$00
A402: 00 00    brk  #$00
A404: 00 00    brk  #$00
A406: 00 00    brk  #$00
A408: 00 00    brk  #$00
A40A: 00 00    brk  #$00
A40C: 00 00    brk  #$00
A40E: 00 00    brk  #$00
A410: 00 00    brk  #$00
A412: 00 00    brk  #$00
A414: 00 00    brk  #$00
A416: 00 00    brk  #$00
A418: 00 00    brk  #$00
A41A: 00 00    brk  #$00
A41C: 00 00    brk  #$00
A41E: 00 00    brk  #$00
A420: 00 00    brk  #$00
A422: 00 00    brk  #$00
A424: 00 00    brk  #$00
A426: 00 00    brk  #$00
A428: 00 00    brk  #$00
A42A: 00 00    brk  #$00
A42C: 00 00    brk  #$00
A42E: 00 00    brk  #$00
A430: 00 00    brk  #$00
A432: 00 00    brk  #$00
A434: 00 00    brk  #$00
A436: 00 00    brk  #$00
A438: 00 00    brk  #$00
A43A: 00 00    brk  #$00
A43C: 00 00    brk  #$00
A43E: 00 00    brk  #$00
A440: 00 00    brk  #$00
A442: 00 00    brk  #$00
A444: 00 00    brk  #$00
A446: 00 00    brk  #$00
A448: 00 00    brk  #$00
A44A: 00 00    brk  #$00
A44C: 00 00    brk  #$00
A44E: 00 00    brk  #$00
A450: 00 00    brk  #$00
A452: 00 00    brk  #$00
A454: 00 00    brk  #$00
A456: 00 00    brk  #$00
A458: 00 00    brk  #$00
A45A: 00 00    brk  #$00
A45C: 00 00    brk  #$00
A45E: 00 00    brk  #$00
A460: 00 00    brk  #$00
A462: 00 00    brk  #$00
A464: 00 00    brk  #$00
A466: 00 00    brk  #$00
A468: 00 00    brk  #$00
A46A: 00 00    brk  #$00
A46C: 00 80    brk  #$80
A46E: 00 0A    brk  #$0A
A470: A8       tay  
A471: 00 09    brk  #$09
A473: 48       pha  
A474: 00 25    brk  #$25
A476: 46 00    lsr  $00
A478: 2A       rol  a
A479: AA       tax  
A47A: 00 2A    brk  #$2A
A47C: AA       tax  
A47D: 00 2A    brk  #$2A
A47F: AA       tax  
A480: 00 2A    brk  #$2A
A482: AA       tax  
A483: 00 2A    brk  #$2A
A485: AA       tax  
A486: 00 02    brk  #$02
A488: A0 00    ldy  #$00
A48A: 00 80    brk  #$80
A48C: 00 00    brk  #$00
A48E: 80       ill  $80
A48F: 00 C0    brk  #$C0
A491: C0 80    cpy  #$80
A493: 80       ill  $80
A494: FF       ill  $FF
A495: AA       tax  
A496: AA       tax  
A497: FF       ill  $FF
A498: 00 00    brk  #$00
A49A: 00 00    brk  #$00
A49C: 00 00    brk  #$00
A49E: 00 00    brk  #$00
A4A0: 00 00    brk  #$00
A4A2: 00 00    brk  #$00
A4A4: 00 00    brk  #$00
A4A6: 00 00    brk  #$00
A4A8: 00 00    brk  #$00
A4AA: 01 00    ora  ($00,x)
A4AC: 00 00    brk  #$00
A4AE: 00 00    brk  #$00
A4B0: 00 00    brk  #$00
A4B2: 00 00    brk  #$00
A4B4: 00 00    brk  #$00
A4B6: 01 00    ora  ($00,x)
A4B8: 00 00    brk  #$00
A4BA: 00 00    brk  #$00
A4BC: 00 00    brk  #$00
A4BE: 00 00    brk  #$00
A4C0: 01 00    ora  ($00,x)
A4C2: 00 00    brk  #$00
A4C4: 00 00    brk  #$00
A4C6: 00 00    brk  #$00
A4C8: 01 00    ora  ($00,x)
A4CA: 00 00    brk  #$00
A4CC: 00 00    brk  #$00
A4CE: 00 00    brk  #$00
A4D0: 01 00    ora  ($00,x)
A4D2: 01 00    ora  ($00,x)
A4D4: 01 00    ora  ($00,x)
A4D6: 00 00    brk  #$00
A4D8: 00 00    brk  #$00
A4DA: 00 00    brk  #$00
A4DC: 00 FF    brk  #$FF
A4DE: FF       ill  $FF
A4DF: FF       ill  $FF
A4E0: FF       ill  $FF
A4E1: FF       ill  $FF
A4E2: FF       ill  $FF
A4E3: FF       ill  $FF
A4E4: FF       ill  $FF
A4E5: FF       ill  $FF
A4E6: FF       ill  $FF
A4E7: FF       ill  $FF
A4E8: FF       ill  $FF
A4E9: FF       ill  $FF
A4EA: FF       ill  $FF
A4EB: FF       ill  $FF
A4EC: FF       ill  $FF
A4ED: FF       ill  $FF
A4EE: FF       ill  $FF
A4EF: FF       ill  $FF
A4F0: FF       ill  $FF
A4F1: FF       ill  $FF
A4F2: FF       ill  $FF
A4F3: FF       ill  $FF
A4F4: FF       ill  $FF
A4F5: FF       ill  $FF
A4F6: FF       ill  $FF
A4F7: FF       ill  $FF
A4F8: FF       ill  $FF
A4F9: FF       ill  $FF
A4FA: FF       ill  $FF
A4FB: FF       ill  $FF
A4FC: FF       ill  $FF
A4FD: FF       ill  $FF
A4FE: FF       ill  $FF
A4FF: FF       ill  $FF
A500: 00 00    brk  #$00
A502: 00 00    brk  #$00
A504: 00 00    brk  #$00
A506: 00 00    brk  #$00
A508: 00 00    brk  #$00
A50A: 00 00    brk  #$00
A50C: 00 00    brk  #$00
A50E: 00 00    brk  #$00
A510: 00 00    brk  #$00
A512: 00 00    brk  #$00
A514: 00 00    brk  #$00
A516: 00 00    brk  #$00
A518: 00 00    brk  #$00
A51A: 00 00    brk  #$00
A51C: 00 00    brk  #$00
A51E: 00 00    brk  #$00
A520: 00 00    brk  #$00
A522: 00 00    brk  #$00
A524: 00 00    brk  #$00
A526: 00 00    brk  #$00
A528: 00 00    brk  #$00
A52A: 00 00    brk  #$00
A52C: 00 00    brk  #$00
A52E: 00 00    brk  #$00
A530: 00 00    brk  #$00
A532: 00 00    brk  #$00
A534: 00 00    brk  #$00
A536: 00 00    brk  #$00
A538: 00 00    brk  #$00
A53A: 00 00    brk  #$00
A53C: 00 00    brk  #$00
A53E: 00 00    brk  #$00
A540: 00 00    brk  #$00
A542: 00 00    brk  #$00
A544: 00 00    brk  #$00
A546: 00 00    brk  #$00
A548: 00 00    brk  #$00
A54A: 00 00    brk  #$00
A54C: 00 00    brk  #$00
A54E: 00 00    brk  #$00
A550: 00 00    brk  #$00
A552: 00 00    brk  #$00
A554: 00 00    brk  #$00
A556: 00 00    brk  #$00
A558: 00 00    brk  #$00
A55A: 00 00    brk  #$00
A55C: 00 00    brk  #$00
A55E: 00 00    brk  #$00
A560: 00 00    brk  #$00
A562: 00 00    brk  #$00
A564: 00 00    brk  #$00
A566: 00 00    brk  #$00
A568: 00 00    brk  #$00
A56A: 00 00    brk  #$00
A56C: 00 00    brk  #$00
A56E: 00 00    brk  #$00
A570: 80       ill  $80
A571: 00 08    brk  #$08
A573: 18       clc  
A574: 00 25    brk  #$25
A576: 46 00    lsr  $00
A578: 20 02 00 jsr  $0002
A57B: 20 02 00 jsr  $0002
A57E: 20 02 00 jsr  $0002
A581: 20 02 00 jsr  $0002
A584: 00 00    brk  #$00
A586: 00 00    brk  #$00
A588: 00 00    brk  #$00
A58A: 00 40    brk  #$40
A58C: 00 00    brk  #$00
A58E: 40       rti  
A58F: 00 A2    brk  #$A2
A591: 80       ill  $80
A592: 80       ill  $80
A593: 80       ill  $80
A594: 30 82    bmi  $A518
A596: 82       ill  $82
A597: 0C       ill  $0C
A598: FF       ill  $FF
A599: C0 AA    cpy  #$AA
A59B: 80       ill  $80
A59C: AA       tax  
A59D: 80       ill  $80
A59E: 2A       rol  a
A59F: 00 08    brk  #$08
A5A1: 00 00    brk  #$00
A5A3: 00 00    brk  #$00
A5A5: 00 00    brk  #$00
A5A7: 00 00    brk  #$00
A5A9: 10 01    bpl  $A5AC
A5AB: 00 10    brk  #$10
A5AD: 00 00    brk  #$00
A5AF: 00 00    brk  #$00
A5B1: 00 00    brk  #$00
A5B3: 00 00    brk  #$00
A5B5: 10 01    bpl  $A5B8
A5B7: 00 10    brk  #$10
A5B9: 00 00    brk  #$00
A5BB: 00 00    brk  #$00
A5BD: 00 00    brk  #$00
A5BF: 10 01    bpl  $A5C2
A5C1: 00 10    brk  #$10
A5C3: 00 00    brk  #$00
A5C5: 00 00    brk  #$00
A5C7: 00 01    brk  #$01
A5C9: 10 10    bpl  $A5DB
A5CB: 10 00    bpl  $A5CD
A5CD: 10 00    bpl  $A5CF
A5CF: 10 11    bpl  $A5E2
A5D1: 00 01    brk  #$01
A5D3: 00 01    brk  #$01
A5D5: 00 10    brk  #$10
A5D7: 00 10    brk  #$10
A5D9: 00 00    brk  #$00
A5DB: 00 00    brk  #$00
A5DD: FF       ill  $FF
A5DE: FF       ill  $FF
A5DF: FF       ill  $FF
A5E0: FF       ill  $FF
A5E1: FF       ill  $FF
A5E2: FF       ill  $FF
A5E3: FF       ill  $FF
A5E4: FF       ill  $FF
A5E5: FF       ill  $FF
A5E6: FF       ill  $FF
A5E7: FF       ill  $FF
A5E8: FF       ill  $FF
A5E9: FF       ill  $FF
A5EA: FF       ill  $FF
A5EB: FF       ill  $FF
A5EC: FF       ill  $FF
A5ED: FF       ill  $FF
A5EE: FF       ill  $FF
A5EF: FF       ill  $FF
A5F0: FF       ill  $FF
A5F1: FF       ill  $FF
A5F2: FF       ill  $FF
A5F3: FF       ill  $FF
A5F4: FF       ill  $FF
A5F5: FF       ill  $FF
A5F6: FF       ill  $FF
A5F7: FF       ill  $FF
A5F8: FF       ill  $FF
A5F9: FF       ill  $FF
A5FA: FF       ill  $FF
A5FB: FF       ill  $FF
A5FC: FF       ill  $FF
A5FD: FF       ill  $FF
A5FE: FF       ill  $FF
A5FF: FF       ill  $FF
A600: 00 00    brk  #$00
A602: 00 00    brk  #$00
A604: 00 00    brk  #$00
A606: 00 00    brk  #$00
A608: 00 00    brk  #$00
A60A: 00 00    brk  #$00
A60C: 00 00    brk  #$00
A60E: 00 00    brk  #$00
A610: 00 00    brk  #$00
A612: 00 00    brk  #$00
A614: 00 00    brk  #$00
A616: 00 00    brk  #$00
A618: 00 00    brk  #$00
A61A: 00 00    brk  #$00
A61C: 00 00    brk  #$00
A61E: 00 00    brk  #$00
A620: 00 00    brk  #$00
A622: 00 FC    brk  #$FC
A624: FF       ill  $FF
A625: F0 FF    beq  $A626
A627: FC       ill  $FC
A628: 00 00    brk  #$00
A62A: 00 00    brk  #$00
A62C: 00 00    brk  #$00
A62E: 00 00    brk  #$00
A630: 00 00    brk  #$00
A632: 00 00    brk  #$00
A634: 00 00    brk  #$00
A636: 00 00    brk  #$00
A638: 00 00    brk  #$00
A63A: 00 00    brk  #$00
A63C: 00 00    brk  #$00
A63E: 00 00    brk  #$00
A640: 00 00    brk  #$00
A642: 00 00    brk  #$00
A644: 00 00    brk  #$00
A646: 00 03    brk  #$03
A648: 00 0D    brk  #$0D
A64A: C0 1F    cpy  #$1F
A64C: D0 3F    bne  $A68D
A64E: F0 3F    beq  $A68F
A650: F0 3F    beq  $A691
A652: F0 05    beq  $A659
A654: 40       rti  
A655: 45 44    eor  $44
A657: 00 00    brk  #$00
A659: 00 00    brk  #$00
A65B: 00 00    brk  #$00
A65D: 00 00    brk  #$00
A65F: 00 00    brk  #$00
A661: 00 00    brk  #$00
A663: 00 00    brk  #$00
A665: 00 00    brk  #$00
A667: 00 00    brk  #$00
A669: 00 00    brk  #$00
A66B: 00 00    brk  #$00
A66D: 00 00    brk  #$00
A66F: 02       ill  $02
A670: A0 00    ldy  #$00
A672: 09 48    ora  #$48
A674: 00 20    brk  #$20
A676: 46 00    lsr  $00
A678: 25 46    and  $46
A67A: 00 25    brk  #$25
A67C: 56 00    lsr  $00,x
A67E: 24 56    bit  $56
A680: 00 25    brk  #$25
A682: 16 00    asl  $00,x
A684: 25 46    and  $46
A686: 00 01    brk  #$01
A688: 40       rti  
A689: 00 00    brk  #$00
A68B: 40       rti  
A68C: 00 00    brk  #$00
A68E: 40       rti  
A68F: 00 88    brk  #$88
A691: 80       ill  $80
A692: 80       ill  $80
A693: 80       ill  $80
A694: F3       ill  $F3
A695: 8A       txa  
A696: A2 CF    ldx  #$CF
A698: EA       nop  
A699: C0 88    cpy  #$88
A69B: 80       ill  $80
A69C: 00 00    brk  #$00
A69E: 00 00    brk  #$00
A6A0: 00 00    brk  #$00
A6A2: 00 00    brk  #$00
A6A4: 00 00    brk  #$00
A6A6: 00 00    brk  #$00
A6A8: 00 10    brk  #$10
A6AA: 01 00    ora  ($00,x)
A6AC: 10 00    bpl  $A6AE
A6AE: 00 00    brk  #$00
A6B0: 00 00    brk  #$00
A6B2: 00 00    brk  #$00
A6B4: 00 10    brk  #$10
A6B6: 01 00    ora  ($00,x)
A6B8: 10 00    bpl  $A6BA
A6BA: 00 00    brk  #$00
A6BC: 00 00    brk  #$00
A6BE: 00 10    brk  #$10
A6C0: 01 00    ora  ($00,x)
A6C2: 10 00    bpl  $A6C4
A6C4: 00 00    brk  #$00
A6C6: 00 00    brk  #$00
A6C8: 01 10    ora  ($10,x)
A6CA: 10 10    bpl  $A6DC
A6CC: 00 10    brk  #$10
A6CE: 00 10    brk  #$10
A6D0: 11 00    ora  ($00),y
A6D2: 01 00    ora  ($00,x)
A6D4: 01 00    ora  ($00,x)
A6D6: 10 00    bpl  $A6D8
A6D8: 10 00    bpl  $A6DA
A6DA: 00 00    brk  #$00
A6DC: 00 FF    brk  #$FF
A6DE: FF       ill  $FF
A6DF: FF       ill  $FF
A6E0: FF       ill  $FF
A6E1: FF       ill  $FF
A6E2: FF       ill  $FF
A6E3: FF       ill  $FF
A6E4: FF       ill  $FF
A6E5: FF       ill  $FF
A6E6: FF       ill  $FF
A6E7: FF       ill  $FF
A6E8: FF       ill  $FF
A6E9: FF       ill  $FF
A6EA: FF       ill  $FF
A6EB: FF       ill  $FF
A6EC: FF       ill  $FF
A6ED: FF       ill  $FF
A6EE: FF       ill  $FF
A6EF: FF       ill  $FF
A6F0: FF       ill  $FF
A6F1: FF       ill  $FF
A6F2: FF       ill  $FF
A6F3: FF       ill  $FF
A6F4: FF       ill  $FF
A6F5: FF       ill  $FF
A6F6: FF       ill  $FF
A6F7: FF       ill  $FF
A6F8: FF       ill  $FF
A6F9: FF       ill  $FF
A6FA: FF       ill  $FF
A6FB: FF       ill  $FF
A6FC: FF       ill  $FF
A6FD: FF       ill  $FF
A6FE: FF       ill  $FF
A6FF: FF       ill  $FF
A700: 00 00    brk  #$00
A702: 00 00    brk  #$00
A704: 00 00    brk  #$00
A706: 00 00    brk  #$00
A708: 00 00    brk  #$00
A70A: 00 00    brk  #$00
A70C: 00 00    brk  #$00
A70E: 00 00    brk  #$00
A710: 00 00    brk  #$00
A712: 00 00    brk  #$00
A714: 00 00    brk  #$00
A716: 00 00    brk  #$00
A718: 00 00    brk  #$00
A71A: 00 03    brk  #$03
A71C: 00 03    brk  #$03
A71E: 00 03    brk  #$03
A720: 00 FF    brk  #$FF
A722: C0 FC    cpy  #$FC
A724: 3F       ill  $3F
A725: F0 C0    beq  $A6E7
A727: 00 00    brk  #$00
A729: 00 00    brk  #$00
A72B: 00 00    brk  #$00
A72D: 00 00    brk  #$00
A72F: 00 00    brk  #$00
A731: 00 00    brk  #$00
A733: 00 00    brk  #$00
A735: 00 00    brk  #$00
A737: 00 00    brk  #$00
A739: 00 00    brk  #$00
A73B: 00 00    brk  #$00
A73D: 00 00    brk  #$00
A73F: 00 00    brk  #$00
A741: 00 00    brk  #$00
A743: 00 00    brk  #$00
A745: 00 00    brk  #$00
A747: 01 00    ora  ($00,x)
A749: 01 00    ora  ($00,x)
A74B: 01 00    ora  ($00,x)
A74D: 07       ill  $07
A74E: 40       rti  
A74F: 0F       ill  $0F
A750: C0 00    cpy  #$00
A752: 00 45    brk  #$45
A754: 44       ill  $44
A755: 00 00    brk  #$00
A757: 00 00    brk  #$00
A759: 00 00    brk  #$00
A75B: 00 00    brk  #$00
A75D: 00 00    brk  #$00
A75F: 00 15    brk  #$15
A761: 40       rti  
A762: 00 50    brk  #$50
A764: 50 00    bvc  $A766
A766: 40       rti  
A767: 10 00    bpl  $A769
A769: 00 00    brk  #$00
A76B: 00 00    brk  #$00
A76D: 00 00    brk  #$00
A76F: 00 00    brk  #$00
A771: 00 0A    brk  #$0A
A773: A8       tay  
A774: 00 25    brk  #$25
A776: 02       ill  $02
A777: 00 20    brk  #$20
A779: 46 00    lsr  $00
A77B: 21 12    and  ($12,x)
A77D: 00 24    brk  #$24
A77F: 42       ill  $42
A780: 00 24    brk  #$24
A782: 46 00    lsr  $00
A784: 00 00    brk  #$00
A786: 00 00    brk  #$00
A788: 40       rti  
A789: 00 00    brk  #$00
A78B: 40       rti  
A78C: 00 00    brk  #$00
A78E: 80       ill  $80
A78F: 00 A2    brk  #$A2
A791: 80       ill  $80
A792: 80       ill  $80
A793: 80       ill  $80
A794: 30 82    bmi  $A718
A796: A2 CF    ldx  #$CF
A798: FB       ill  $FB
A799: C0 A2    cpy  #$A2
A79B: 80       ill  $80
A79C: A2 80    ldx  #$80
A79E: 22       ill  $22
A79F: 00 08    brk  #$08
A7A1: 00 00    brk  #$00
A7A3: 00 00    brk  #$00
A7A5: 00 00    brk  #$00
A7A7: 00 00    brk  #$00
A7A9: 40       rti  
A7AA: 01 00    ora  ($00,x)
A7AC: 04       ill  $04
A7AD: 00 00    brk  #$00
A7AF: 00 00    brk  #$00
A7B1: 00 00    brk  #$00
A7B3: 00 00    brk  #$00
A7B5: 40       rti  
A7B6: 01 00    ora  ($00,x)
A7B8: 04       ill  $04
A7B9: 00 00    brk  #$00
A7BB: 00 00    brk  #$00
A7BD: 00 00    brk  #$00
A7BF: 40       rti  
A7C0: 01 00    ora  ($00,x)
A7C2: 04       ill  $04
A7C3: 00 00    brk  #$00
A7C5: 00 00    brk  #$00
A7C7: 00 01    brk  #$01
A7C9: 40       rti  
A7CA: 04       ill  $04
A7CB: 40       rti  
A7CC: 00 40    brk  #$40
A7CE: 00 40    brk  #$40
A7D0: 05 00    ora  $00
A7D2: 01 00    ora  ($00,x)
A7D4: 01 00    ora  ($00,x)
A7D6: 04       ill  $04
A7D7: 00 04    brk  #$04
A7D9: 00 00    brk  #$00
A7DB: 00 00    brk  #$00
A7DD: FF       ill  $FF
A7DE: FF       ill  $FF
A7DF: FF       ill  $FF
A7E0: FF       ill  $FF
A7E1: FF       ill  $FF
A7E2: FF       ill  $FF
A7E3: FF       ill  $FF
A7E4: FF       ill  $FF
A7E5: FF       ill  $FF
A7E6: FF       ill  $FF
A7E7: FF       ill  $FF
A7E8: FF       ill  $FF
A7E9: FF       ill  $FF
A7EA: FF       ill  $FF
A7EB: FF       ill  $FF
A7EC: FF       ill  $FF
A7ED: FF       ill  $FF
A7EE: FF       ill  $FF
A7EF: FF       ill  $FF
A7F0: FF       ill  $FF
A7F1: FF       ill  $FF
A7F2: FF       ill  $FF
A7F3: FF       ill  $FF
A7F4: FF       ill  $FF
A7F5: FF       ill  $FF
A7F6: FF       ill  $FF
A7F7: FF       ill  $FF
A7F8: FF       ill  $FF
A7F9: FF       ill  $FF
A7FA: FF       ill  $FF
A7FB: FF       ill  $FF
A7FC: FF       ill  $FF
A7FD: FF       ill  $FF
A7FE: FF       ill  $FF
A7FF: FF       ill  $FF

;Character table

A800: 00 00    brk  #$00
A802: 00 00    brk  #$00
A804: 00 00    brk  #$00
A806: 00 00    brk  #$00
A808: 00 00    brk  #$00
A80A: 00 00    brk  #$00
A80C: 00 00    brk  #$00
A80E: 00 00    brk  #$00
A810: 00 00    brk  #$00
A812: 00 00    brk  #$00
A814: 00 00    brk  #$00
A816: 00 00    brk  #$00
A818: 00 00    brk  #$00
A81A: 00 33    brk  #$33
A81C: 30 33    bmi  $A851
A81E: 30 0F    bmi  $A82F
A820: C0 FF    cpy  #$FF
A822: C0 FC    cpy  #$FC
A824: 3F       ill  $3F
A825: F0 CF    beq  $A7F6
A827: FC       ill  $FC
A828: 00 00    brk  #$00
A82A: 00 00    brk  #$00
A82C: 03       ill  $03
A82D: 00 00    brk  #$00
A82F: 00 03    brk  #$03
A831: 00 00    brk  #$00
A833: 00 03    brk  #$03
A835: 00 00    brk  #$00
A837: 3F       ill  $3F
A838: C0 00    cpy  #$00
A83A: 00 0F    brk  #$0F
A83C: FC       ill  $FC
A83D: 0F       ill  $0F
A83E: FC       ill  $FC
A83F: 00 00    brk  #$00
A841: 00 00    brk  #$00
A843: 00 00    brk  #$00
A845: 00 00    brk  #$00
A847: 03       ill  $03
A848: 00 0D    brk  #$0D
A84A: C0 35    cpy  #$35
A84C: 70 01    bvs  $A84F
A84E: 00 01    brk  #$01
A850: 00 C5    brk  #$C5
A852: 4C 00 00 jmp  $0000
A855: 04       ill  $04
A856: 40       rti  
A857: 00 00    brk  #$00
A859: 00 00    brk  #$00
A85B: 00 00    brk  #$00
A85D: 00 00    brk  #$00
A85F: 00 50    brk  #$50
A861: 10 00    bpl  $A863
A863: 40       rti  
A864: 10 00    bpl  $A866
A866: 10 40    bpl  $A8A8
A868: 00 00    brk  #$00
A86A: 00 00    brk  #$00
A86C: 00 00    brk  #$00
A86E: 00 00    brk  #$00
A870: 00 00    brk  #$00
A872: 00 00    brk  #$00
A874: 00 2A    brk  #$2A
A876: AA       tax  
A877: 00 20    brk  #$20
A879: 46 00    lsr  $00
A87B: 24 06    bit  $06
A87D: 00 24    brk  #$24
A87F: 42       ill  $42
A880: 00 24    brk  #$24
A882: 46 00    lsr  $00
A884: 20 46 00 jsr  $0046
A887: 00 40    brk  #$40
A889: 00 00    brk  #$00
A88B: 40       rti  
A88C: 00 00    brk  #$00
A88E: 80       ill  $80
A88F: 00 A2    brk  #$A2
A891: 80       ill  $80
A892: A2 80    ldx  #$80
A894: 30 82    bmi  $A818
A896: 82       ill  $82
A897: 0C       ill  $0C
A898: FB       ill  $FB
A899: C0 A2    cpy  #$A2
A89B: 80       ill  $80
A89C: 00 00    brk  #$00
A89E: 00 00    brk  #$00
A8A0: 00 00    brk  #$00
A8A2: 00 00    brk  #$00
A8A4: 00 00    brk  #$00
A8A6: 00 00    brk  #$00
A8A8: 00 40    brk  #$40
A8AA: 01 00    ora  ($00,x)
A8AC: 04       ill  $04
A8AD: 00 00    brk  #$00
A8AF: 00 00    brk  #$00
A8B1: 00 00    brk  #$00
A8B3: 00 00    brk  #$00
A8B5: 40       rti  
A8B6: 01 00    ora  ($00,x)
A8B8: 04       ill  $04
A8B9: 00 00    brk  #$00
A8BB: 00 00    brk  #$00
A8BD: 00 00    brk  #$00
A8BF: 40       rti  
A8C0: 01 00    ora  ($00,x)
A8C2: 04       ill  $04
A8C3: 00 00    brk  #$00
A8C5: 00 00    brk  #$00
A8C7: 00 01    brk  #$01
A8C9: 40       rti  
A8CA: 04       ill  $04
A8CB: 40       rti  
A8CC: 00 40    brk  #$40
A8CE: 00 40    brk  #$40
A8D0: 05 00    ora  $00
A8D2: 01 00    ora  ($00,x)
A8D4: 01 00    ora  ($00,x)
A8D6: 04       ill  $04
A8D7: 00 04    brk  #$04
A8D9: 00 00    brk  #$00
A8DB: 00 00    brk  #$00
A8DD: FF       ill  $FF
A8DE: FF       ill  $FF
A8DF: FF       ill  $FF
A8E0: FF       ill  $FF
A8E1: FF       ill  $FF
A8E2: FF       ill  $FF
A8E3: FF       ill  $FF
A8E4: FF       ill  $FF
A8E5: FF       ill  $FF
A8E6: FF       ill  $FF
A8E7: FF       ill  $FF
A8E8: FF       ill  $FF
A8E9: FF       ill  $FF
A8EA: FF       ill  $FF
A8EB: FF       ill  $FF
A8EC: FF       ill  $FF
A8ED: FF       ill  $FF
A8EE: FF       ill  $FF
A8EF: FF       ill  $FF
A8F0: FF       ill  $FF
A8F1: FF       ill  $FF
A8F2: FF       ill  $FF
A8F3: FF       ill  $FF
A8F4: FF       ill  $FF
A8F5: FF       ill  $FF
A8F6: FF       ill  $FF
A8F7: FF       ill  $FF
A8F8: FF       ill  $FF
A8F9: FF       ill  $FF
A8FA: FF       ill  $FF
A8FB: FF       ill  $FF
A8FC: FF       ill  $FF
A8FD: FF       ill  $FF
A8FE: FF       ill  $FF
A8FF: FF       ill  $FF
A900: 00 54    brk  #$54
A902: 54       ill  $54
A903: 54       ill  $54
A904: 54       ill  $54
A905: 04       ill  $04
A906: 54       ill  $54
A907: 54       ill  $54
A908: 10 54    bpl  $A95E
A90A: 54       ill  $54
A90B: A8       tay  
A90C: A8       tay  
A90D: A8       tay  
A90E: A8       tay  
A90F: 08       php  
A910: A8       tay  
A911: A8       tay  
A912: 20 A8 A8 jsr  $A8A8
A915: 44       ill  $44
A916: 00 00    brk  #$00
A918: 00 00    brk  #$00
A91A: 00 3F    brk  #$3F
A91C: F0 0C    beq  $A92A
A91E: C0 3F    cpy  #$3F
A920: F0 FF    beq  $A921
A922: C0 FC    cpy  #$FC
A924: 0F       ill  $0F
A925: F0 CC    beq  $A8F3
A927: 0C       ill  $0C
A928: FF       ill  $FF
A929: FF       ill  $FF
A92A: FF       ill  $FF
A92B: FC       ill  $FC
A92C: 0F       ill  $0F
A92D: C0 00    cpy  #$00
A92F: 00 0C    brk  #$0C
A931: C0 00    cpy  #$00
A933: 00 0F    brk  #$0F
A935: C0 30    cpy  #$30
A937: 0F       ill  $0F
A938: C0 03    cpy  #$03
A93A: C0 0C    cpy  #$0C
A93C: 0C       ill  $0C
A93D: 0C       ill  $0C
A93E: 0C       ill  $0C
A93F: 00 00    brk  #$00
A941: 00 00    brk  #$00
A943: 00 00    brk  #$00
A945: 00 00    brk  #$00
A947: 00 00    brk  #$00
A949: 03       ill  $03
A94A: 00 01    brk  #$01
A94C: 00 75    brk  #$75
A94E: 74       ill  $74
A94F: C5 4C    cmp  $4C
A951: 05 40    ora  $40
A953: 05 40    ora  $40
A955: 00 00    brk  #$00
A957: 00 00    brk  #$00
A959: 00 00    brk  #$00
A95B: 00 00    brk  #$00
A95D: 15 40    ora  $40,x
A95F: 00 44    brk  #$44
A961: 50 00    bvc  $A963
A963: 10 40    bpl  $A9A5
A965: 00 00    brk  #$00
A967: 00 00    brk  #$00
A969: 00 00    brk  #$00
A96B: 00 00    brk  #$00
A96D: 00 00    brk  #$00
A96F: 00 00    brk  #$00
A971: 00 00    brk  #$00
A973: B0 00    bcs  $A975
A975: 00 80    brk  #$80
A977: 00 25    brk  #$25
A979: 02       ill  $02
A97A: 00 25    brk  #$25
A97C: 16 00    asl  $00,x
A97E: 20 16 00 jsr  $0016
A981: 21 52    and  ($52,x)
A983: 00 00    brk  #$00
A985: 00 00    brk  #$00
A987: 00 00    brk  #$00
A989: 00 00    brk  #$00
A98B: 40       rti  
A98C: 00 00    brk  #$00
A98E: C0 00    cpy  #$00
A990: 80       ill  $80
A991: 80       ill  $80
A992: A2 80    ldx  #$80
A994: 30 82    bmi  $A918
A996: 82       ill  $82
A997: 0C       ill  $0C
A998: EA       nop  
A999: C0 80    cpy  #$80
A99B: 80       ill  $80
A99C: 80       ill  $80
A99D: 80       ill  $80
A99E: 22       ill  $22
A99F: 00 08    brk  #$08
A9A1: 00 08    brk  #$08
A9A3: 00 01    brk  #$01
A9A5: 00 01    brk  #$01
A9A7: 54       ill  $54
A9A8: 01 00    ora  ($00,x)
A9AA: 01 00    ora  ($00,x)
A9AC: 01 00    ora  ($00,x)
A9AE: 55 00    eor  $00,x
A9B0: 01 00    ora  ($00,x)
A9B2: 01 54    ora  ($54,x)
A9B4: 01 00    ora  ($00,x)
A9B6: 01 00    ora  ($00,x)
A9B8: 01 00    ora  ($00,x)
A9BA: 55 00    eor  $00,x
A9BC: 01 00    ora  ($00,x)
A9BE: 01 54    ora  ($54,x)
A9C0: 01 54    ora  ($54,x)
A9C2: 01 54    ora  ($54,x)
A9C4: 55 54    eor  $54,x
A9C6: 01 54    ora  ($54,x)
A9C8: 01 00    ora  ($00,x)
A9CA: 01 00    ora  ($00,x)
A9CC: 55 00    eor  $00,x
A9CE: 01 00    ora  ($00,x)
A9D0: 01 00    ora  ($00,x)
A9D2: 55 00    eor  $00,x
A9D4: 01 00    ora  ($00,x)
A9D6: 55 00    eor  $00,x
A9D8: 01 00    ora  ($00,x)
A9DA: 55 00    eor  $00,x
A9DC: 00 FF    brk  #$FF
A9DE: FF       ill  $FF
A9DF: FF       ill  $FF
A9E0: FF       ill  $FF
A9E1: FF       ill  $FF
A9E2: FF       ill  $FF
A9E3: FF       ill  $FF
A9E4: FF       ill  $FF
A9E5: FF       ill  $FF
A9E6: FF       ill  $FF
A9E7: FF       ill  $FF
A9E8: FF       ill  $FF
A9E9: FF       ill  $FF
A9EA: FF       ill  $FF
A9EB: FF       ill  $FF
A9EC: FF       ill  $FF
A9ED: FF       ill  $FF
A9EE: FF       ill  $FF
A9EF: FF       ill  $FF
A9F0: FF       ill  $FF
A9F1: FF       ill  $FF
A9F2: FF       ill  $FF
A9F3: FF       ill  $FF
A9F4: FF       ill  $FF
A9F5: FF       ill  $FF
A9F6: FF       ill  $FF
A9F7: FF       ill  $FF
A9F8: FF       ill  $FF
A9F9: FF       ill  $FF
A9FA: FF       ill  $FF
A9FB: FF       ill  $FF
A9FC: FF       ill  $FF
A9FD: FF       ill  $FF
A9FE: FF       ill  $FF
A9FF: FF       ill  $FF
AA00: 00 44    brk  #$44
AA02: 10 40    bpl  $AA44
AA04: 04       ill  $04
AA05: 04       ill  $04
AA06: 04       ill  $04
AA07: 44       ill  $44
AA08: 10 44    bpl  $AA4E
AA0A: 04       ill  $04
AA0B: 88       dey  
AA0C: 20 80 08 jsr  $0880
AA0F: 08       php  
AA10: 08       php  
AA11: 88       dey  
AA12: 20 88 08 jsr  $0888
AA15: 10 FF    bpl  $AA16
AA17: CC C3 0F cpy  $0FC3
AA1A: C0 0F    cpy  #$0F
AA1C: C0 33    cpy  #$33
AA1E: 30 3F    bmi  $AA5F
AA20: F0 FF    beq  $AA21
AA22: C0 FC    cpy  #$FC
AA24: 0F       ill  $0F
AA25: F0 CC    beq  $A9F3
AA27: CC 57 57 cpy  $5757
AA2A: 57       ill  $57
AA2B: F4       ill  $F4
AA2C: 0F       ill  $0F
AA2D: C0 03    cpy  #$03
AA2F: 00 33    brk  #$33
AA31: 30 03    bmi  $AA36
AA33: 00 0F    brk  #$0F
AA35: C0 30    cpy  #$30
AA37: 0F       ill  $0F
AA38: C0 03    cpy  #$03
AA3A: C0 0C    cpy  #$0C
AA3C: CC 0C CC cpy  $CC0C
AA3F: 00 00    brk  #$00
AA41: 00 00    brk  #$00
AA43: 00 00    brk  #$00
AA45: 00 00    brk  #$00
AA47: 00 00    brk  #$00
AA49: 00 00    brk  #$00
AA4B: 0D C0 0F ora  $0FC0
AA4E: C0 35    cpy  #$35
AA50: 70 00    bvs  $AA52
AA52: 00 00    brk  #$00
AA54: 00 00    brk  #$00
AA56: 00 00    brk  #$00
AA58: 00 00    brk  #$00
AA5A: 05 00    ora  $00
AA5C: 00 10    brk  #$10
AA5E: 40       rti  
AA5F: 00 44    brk  #$44
AA61: 10 00    bpl  $AA63
AA63: 04       ill  $04
AA64: 00 00    brk  #$00
AA66: 00 00    brk  #$00
AA68: 00 00    brk  #$00
AA6A: 00 00    brk  #$00
AA6C: 00 00    brk  #$00
AA6E: 00 00    brk  #$00
AA70: 00 00    brk  #$00
AA72: 00 A0    brk  #$A0
AA74: 00 02    brk  #$02
AA76: A0 00    ldy  #$00
AA78: 2A       rol  a
AA79: AA       tax  
AA7A: 00 2A    brk  #$2A
AA7C: AA       tax  
AA7D: 00 2A    brk  #$2A
AA7F: AA       tax  
AA80: 00 2A    brk  #$2A
AA82: AA       tax  
AA83: 00 2A    brk  #$2A
AA85: AA       tax  
AA86: 00 02    brk  #$02
AA88: A0 00    ldy  #$00
AA8A: 00 80    brk  #$80
AA8C: 00 00    brk  #$00
AA8E: 00 00    brk  #$00
AA90: 80       ill  $80
AA91: 80       ill  $80
AA92: 88       dey  
AA93: 80       ill  $80
AA94: 30 82    bmi  $AA18
AA96: 82       ill  $82
AA97: 0C       ill  $0C
AA98: EA       nop  
AA99: C0 80    cpy  #$80
AA9B: 80       ill  $80
AA9C: 00 00    brk  #$00
AA9E: 00 00    brk  #$00
AAA0: 00 00    brk  #$00
AAA2: 00 00    brk  #$00
AAA4: 01 00    ora  ($00,x)
AAA6: 01 54    ora  ($54,x)
AAA8: 01 00    ora  ($00,x)
AAAA: 01 00    ora  ($00,x)
AAAC: 01 00    ora  ($00,x)
AAAE: 55 00    eor  $00,x
AAB0: 01 00    ora  ($00,x)
AAB2: 01 54    ora  ($54,x)
AAB4: 01 00    ora  ($00,x)
AAB6: 01 00    ora  ($00,x)
AAB8: 01 00    ora  ($00,x)
AABA: 55 00    eor  $00,x
AABC: 01 00    ora  ($00,x)
AABE: 01 54    ora  ($54,x)
AAC0: 01 54    ora  ($54,x)
AAC2: 01 54    ora  ($54,x)
AAC4: 55 54    eor  $54,x
AAC6: 01 54    ora  ($54,x)
AAC8: 01 00    ora  ($00,x)
AACA: 01 00    ora  ($00,x)
AACC: 55 00    eor  $00,x
AACE: 01 00    ora  ($00,x)
AAD0: 01 00    ora  ($00,x)
AAD2: 55 00    eor  $00,x
AAD4: 01 00    ora  ($00,x)
AAD6: 55 00    eor  $00,x
AAD8: 01 00    ora  ($00,x)
AADA: 55 00    eor  $00,x
AADC: 00 FF    brk  #$FF
AADE: FF       ill  $FF
AADF: FF       ill  $FF
AAE0: FF       ill  $FF
AAE1: FF       ill  $FF
AAE2: FF       ill  $FF
AAE3: FF       ill  $FF
AAE4: FF       ill  $FF
AAE5: FF       ill  $FF
AAE6: FF       ill  $FF
AAE7: FF       ill  $FF
AAE8: FF       ill  $FF
AAE9: FF       ill  $FF
AAEA: FF       ill  $FF
AAEB: FF       ill  $FF
AAEC: FF       ill  $FF
AAED: FF       ill  $FF
AAEE: FF       ill  $FF
AAEF: FF       ill  $FF
AAF0: FF       ill  $FF
AAF1: FF       ill  $FF
AAF2: FF       ill  $FF
AAF3: FF       ill  $FF
AAF4: FF       ill  $FF
AAF5: FF       ill  $FF
AAF6: FF       ill  $FF
AAF7: FF       ill  $FF
AAF8: FF       ill  $FF
AAF9: FF       ill  $FF
AAFA: FF       ill  $FF
AAFB: FF       ill  $FF
AAFC: FF       ill  $FF
AAFD: FF       ill  $FF
AAFE: FF       ill  $FF
AAFF: FF       ill  $FF
AB00: 00 44    brk  #$44
AB02: 10 40    bpl  $AB44
AB04: 04       ill  $04
AB05: 04       ill  $04
AB06: 04       ill  $04
AB07: 44       ill  $44
AB08: 10 44    bpl  $AB4E
AB0A: 04       ill  $04
AB0B: 88       dey  
AB0C: 20 80 08 jsr  $0880
AB0F: 08       php  
AB10: 08       php  
AB11: 88       dey  
AB12: 20 88 08 jsr  $0888
AB15: 54       ill  $54
AB16: CC CC C3 cpy  $C3CC
AB19: 0C       ill  $0C
AB1A: 00 FF    brk  #$FF
AB1C: FC       ill  $FC
AB1D: CC CC FF cpy  $FFCC
AB20: FC       ill  $FC
AB21: FF       ill  $FF
AB22: C0 FC    cpy  #$FC
AB24: 03       ill  $03
AB25: F0 CC    beq  $AAF3
AB27: CC 7F 77 cpy  $777F
AB2A: 77       ill  $77
AB2B: F4       ill  $F4
AB2C: 3F       ill  $3F
AB2D: F0 0F    beq  $AB3E
AB2F: C0 0C    cpy  #$0C
AB31: C0 0C    cpy  #$0C
AB33: C0 0F    cpy  #$0F
AB35: C0 30    cpy  #$30
AB37: 03       ill  $03
AB38: C0 00    cpy  #$00
AB3A: C0 0C    cpy  #$0C
AB3C: CC 0C C0 cpy  $C00C
AB3F: 07       ill  $07
AB40: 57       ill  $57
AB41: 57       ill  $57
AB42: C0 00    cpy  #$00
AB44: 00 00    brk  #$00
AB46: 00 00    brk  #$00
AB48: 00 00    brk  #$00
AB4A: 00 03    brk  #$03
AB4C: 00 35    brk  #$35
AB4E: 70 C5    bvs  $AB15
AB50: 4C 05 40 jmp  $4005
AB53: 05 40    ora  $40
AB55: 00 00    brk  #$00
AB57: 05 00    ora  $00
AB59: 00 05    brk  #$05
AB5B: 00 00    brk  #$00
AB5D: 15 40    ora  $40,x
AB5F: 00 45    brk  #$45
AB61: 10 00    bpl  $AB63
AB63: 15 40    ora  $40,x
AB65: 00 50    brk  #$50
AB67: 50 00    bvc  $AB69
AB69: FE AA A0 inc  $A0AA,x
AB6C: 00 00    brk  #$00
AB6E: 00 00    brk  #$00
AB70: 00 00    brk  #$00
AB72: 00 00    brk  #$00
AB74: 00 02    brk  #$02
AB76: 20 00 00 jsr  $0000
AB79: 80       ill  $80
AB7A: 00 00    brk  #$00
AB7C: 80       ill  $80
AB7D: 00 00    brk  #$00
AB7F: 80       ill  $80
AB80: 00 00    brk  #$00
AB82: 80       ill  $80
AB83: 00 00    brk  #$00
AB85: 00 00    brk  #$00
AB87: 00 80    brk  #$80
AB89: 00 00    brk  #$00
AB8B: 80       ill  $80
AB8C: 00 00    brk  #$00
AB8E: 00 00    brk  #$00
AB90: 80       ill  $80
AB91: 80       ill  $80
AB92: F3       ill  $F3
AB93: C0 F3    cpy  #$F3
AB95: 8A       txa  
AB96: A2 CF    ldx  #$CF
AB98: EA       nop  
AB99: C0 80    cpy  #$80
AB9B: 80       ill  $80
AB9C: 80       ill  $80
AB9D: 80       ill  $80
AB9E: 22       ill  $22
AB9F: 00 08    brk  #$08
ABA1: 00 08    brk  #$08
ABA3: 00 01    brk  #$01
ABA5: 40       rti  
ABA6: 01 00    ora  ($00,x)
ABA8: 01 00    ora  ($00,x)
ABAA: 01 00    ora  ($00,x)
ABAC: 01 00    ora  ($00,x)
ABAE: 01 00    ora  ($00,x)
ABB0: 05 00    ora  $00
ABB2: 00 40    brk  #$40
ABB4: 00 40    brk  #$40
ABB6: 00 40    brk  #$40
ABB8: 00 40    brk  #$40
ABBA: 00 40    brk  #$40
ABBC: 04       ill  $04
ABBD: 40       rti  
ABBE: 00 00    brk  #$00
ABC0: 00 00    brk  #$00
ABC2: 00 00    brk  #$00
ABC4: 00 00    brk  #$00
ABC6: 04       ill  $04
ABC7: 00 00    brk  #$00
ABC9: 00 00    brk  #$00
ABCB: 00 00    brk  #$00
ABCD: 00 04    brk  #$04
ABCF: 00 00    brk  #$00
ABD1: 00 00    brk  #$00
ABD3: 00 04    brk  #$04
ABD5: 00 00    brk  #$00
ABD7: 00 04    brk  #$04
ABD9: 00 04    brk  #$04
ABDB: 00 14    brk  #$14
ABDD: FF       ill  $FF
ABDE: FF       ill  $FF
ABDF: FF       ill  $FF
ABE0: FF       ill  $FF
ABE1: FF       ill  $FF
ABE2: FF       ill  $FF
ABE3: FF       ill  $FF
ABE4: FF       ill  $FF
ABE5: FF       ill  $FF
ABE6: FF       ill  $FF
ABE7: FF       ill  $FF
ABE8: FF       ill  $FF
ABE9: FF       ill  $FF
ABEA: FF       ill  $FF
ABEB: FF       ill  $FF
ABEC: FF       ill  $FF
ABED: FF       ill  $FF
ABEE: FF       ill  $FF
ABEF: FF       ill  $FF
ABF0: FF       ill  $FF
ABF1: FF       ill  $FF
ABF2: FF       ill  $FF
ABF3: FF       ill  $FF
ABF4: FF       ill  $FF
ABF5: FF       ill  $FF
ABF6: FF       ill  $FF
ABF7: FF       ill  $FF
ABF8: FF       ill  $FF
ABF9: FF       ill  $FF
ABFA: FF       ill  $FF
ABFB: FF       ill  $FF
ABFC: FF       ill  $FF
ABFD: FF       ill  $FF
ABFE: FF       ill  $FF
ABFF: FF       ill  $FF
AC00: 00 44    brk  #$44
AC02: 10 40    bpl  $AC44
AC04: 04       ill  $04
AC05: 54       ill  $54
AC06: 04       ill  $04
AC07: 44       ill  $44
AC08: 10 44    bpl  $AC4E
AC0A: 54       ill  $54
AC0B: 88       dey  
AC0C: 20 80 08 jsr  $0880
AC0F: A8       tay  
AC10: 08       php  
AC11: 88       dey  
AC12: 20 88 A8 jsr  $A888
AC15: 10 CC    bpl  $ABE3
AC17: CC CC CC cpy  $CCCC
AC1A: 00 0F    brk  #$0F
AC1C: C0 33    cpy  #$33
AC1E: 30 3F    bmi  $AC5F
AC20: F0 FF    beq  $AC21
AC22: C0 FC    cpy  #$FC
AC24: 03       ill  $03
AC25: F0 CC    beq  $ABF3
AC27: CC 57 77 cpy  $7757
AC2A: 57       ill  $57
AC2B: 54       ill  $54
AC2C: 0F       ill  $0F
AC2D: C0 03    cpy  #$03
AC2F: 00 33    brk  #$33
AC31: 30 03    bmi  $AC36
AC33: 00 0F    brk  #$0F
AC35: C0 30    cpy  #$30
AC37: 00 C0    brk  #$C0
AC39: 00 00    brk  #$00
AC3B: 0C       ill  $0C
AC3C: CC 0C C0 cpy  $C00C
AC3F: 0F       ill  $0F
AC40: 77       ill  $77
AC41: 77       ill  $77
AC42: C0 0F    cpy  #$0F
AC44: 77       ill  $77
AC45: 77       ill  $77
AC46: C0 00    cpy  #$00
AC48: 00 00    brk  #$00
AC4A: 00 00    brk  #$00
AC4C: 00 0D    brk  #$0D
AC4E: C0 0F    cpy  #$0F
AC50: C0 CF    cpy  #$CF
AC52: CC 00 00 cpy  $0000
AC55: 00 00    brk  #$00
AC57: 00 00    brk  #$00
AC59: 00 05    brk  #$05
AC5B: 00 00    brk  #$00
AC5D: 10 40    bpl  $AC9F
AC5F: 00 41    brk  #$41
AC61: 10 00    bpl  $AC63
AC63: 01 00    ora  ($00,x)
AC65: 00 00    brk  #$00
AC67: 00 00    brk  #$00
AC69: 32       ill  $32
AC6A: 22       ill  $22
AC6B: 20 00 00 jsr  $0000
AC6E: 00 00    brk  #$00
AC70: 00 00    brk  #$00
AC72: 00 00    brk  #$00
AC74: 00 02    brk  #$02
AC76: E0 00    cpx  #$00
AC78: 0A       asl  a
AC79: A8       tay  
AC7A: 00 0A    brk  #$0A
AC7C: A8       tay  
AC7D: 00 0A    brk  #$0A
AC7F: A8       tay  
AC80: 00 0A    brk  #$0A
AC82: A8       tay  
AC83: 00 0A    brk  #$0A
AC85: A8       tay  
AC86: 00 02    brk  #$02
AC88: A0 00    ldy  #$00
AC8A: 00 80    brk  #$80
AC8C: 00 00    brk  #$00
AC8E: 00 00    brk  #$00
AC90: 80       ill  $80
AC91: 80       ill  $80
AC92: C0 C0    cpy  #$C0
AC94: 30 82    bmi  $AC18
AC96: 82       ill  $82
AC97: 0C       ill  $0C
AC98: EA       nop  
AC99: C0 80    cpy  #$80
AC9B: 80       ill  $80
AC9C: 00 00    brk  #$00
AC9E: 00 00    brk  #$00
ACA0: 00 00    brk  #$00
ACA2: 00 00    brk  #$00
ACA4: 01 40    ora  ($40,x)
ACA6: 01 00    ora  ($00,x)
ACA8: 01 00    ora  ($00,x)
ACAA: 01 00    ora  ($00,x)
ACAC: 01 00    ora  ($00,x)
ACAE: 01 00    ora  ($00,x)
ACB0: 05 00    ora  $00
ACB2: 00 40    brk  #$40
ACB4: 00 40    brk  #$40
ACB6: 00 40    brk  #$40
ACB8: 00 40    brk  #$40
ACBA: 00 40    brk  #$40
ACBC: 04       ill  $04
ACBD: 40       rti  
ACBE: 00 00    brk  #$00
ACC0: 00 00    brk  #$00
ACC2: 00 00    brk  #$00
ACC4: 00 00    brk  #$00
ACC6: 04       ill  $04
ACC7: 00 00    brk  #$00
ACC9: 00 00    brk  #$00
ACCB: 00 00    brk  #$00
ACCD: 00 04    brk  #$04
ACCF: 00 00    brk  #$00
ACD1: 00 00    brk  #$00
ACD3: 00 04    brk  #$04
ACD5: 00 00    brk  #$00
ACD7: 00 04    brk  #$04
ACD9: 00 04    brk  #$04
ACDB: 00 7D    brk  #$7D
ACDD: FF       ill  $FF
ACDE: FF       ill  $FF
ACDF: FF       ill  $FF
ACE0: FF       ill  $FF
ACE1: FF       ill  $FF
ACE2: FF       ill  $FF
ACE3: FF       ill  $FF
ACE4: FF       ill  $FF
ACE5: FF       ill  $FF
ACE6: FF       ill  $FF
ACE7: FF       ill  $FF
ACE8: FF       ill  $FF
ACE9: FF       ill  $FF
ACEA: FF       ill  $FF
ACEB: FF       ill  $FF
ACEC: FF       ill  $FF
ACED: FF       ill  $FF
ACEE: FF       ill  $FF
ACEF: FF       ill  $FF
ACF0: FF       ill  $FF
ACF1: FF       ill  $FF
ACF2: FF       ill  $FF
ACF3: FF       ill  $FF
ACF4: FF       ill  $FF
ACF5: FF       ill  $FF
ACF6: FF       ill  $FF
ACF7: FF       ill  $FF
ACF8: FF       ill  $FF
ACF9: FF       ill  $FF
ACFA: FF       ill  $FF
ACFB: FF       ill  $FF
ACFC: FF       ill  $FF
ACFD: FF       ill  $FF
ACFE: FF       ill  $FF
ACFF: FF       ill  $FF
AD00: 00 44    brk  #$44
AD02: 10 54    bpl  $AD58
AD04: 14       ill  $14
AD05: 44       ill  $44
AD06: 54       ill  $54
AD07: 54       ill  $54
AD08: 04       ill  $04
AD09: 54       ill  $54
AD0A: 44       ill  $44
AD0B: 88       dey  
AD0C: 20 A8 28 jsr  $28A8
AD0F: 88       dey  
AD10: A8       tay  
AD11: A8       tay  
AD12: 08       php  
AD13: A8       tay  
AD14: 88       dey  
AD15: 54       ill  $54
AD16: CC CF CC cpy  $CCCF
AD19: CF       ill  $CF
AD1A: 00 3F    brk  #$3F
AD1C: F0 0C    beq  $AD2A
AD1E: C0 3F    cpy  #$3F
AD20: F0 FF    beq  $AD21
AD22: C0 FC    cpy  #$FC
AD24: 00 F0    brk  #$F0
AD26: CF       ill  $CF
AD27: CC F7 77 cpy  $77F7
AD2A: 77       ill  $77
AD2B: 74       ill  $74
AD2C: 0F       ill  $0F
AD2D: C0 00    cpy  #$00
AD2F: 00 0C    brk  #$0C
AD31: C0 00    cpy  #$00
AD33: 00 0F    brk  #$0F
AD35: C0 00    cpy  #$00
AD37: 00 C0    brk  #$C0
AD39: 00 00    brk  #$00
AD3B: CF       ill  $CF
AD3C: CC 0F C0 cpy  $C00F
AD3F: 07       ill  $07
AD40: 77       ill  $77
AD41: 57       ill  $57
AD42: 40       rti  
AD43: 00 00    brk  #$00
AD45: 00 00    brk  #$00
AD47: 00 00    brk  #$00
AD49: 00 00    brk  #$00
AD4B: 00 00    brk  #$00
AD4D: 03       ill  $03
AD4E: 00 35    brk  #$35
AD50: 70 00    bvs  $AD52
AD52: 00 45    brk  #$45
AD54: 44       ill  $44
AD55: 04       ill  $04
AD56: 40       rti  
AD57: 00 00    brk  #$00
AD59: 00 00    brk  #$00
AD5B: 00 00    brk  #$00
AD5D: 15 40    ora  $40,x
AD5F: 00 51    brk  #$51
AD61: 10 00    bpl  $AD63
AD63: 10 40    bpl  $ADA5
AD65: 00 00    brk  #$00
AD67: 00 00    brk  #$00
AD69: 32       ill  $32
AD6A: 22       ill  $22
AD6B: 20 00 00 jsr  $0000
AD6E: 00 00    brk  #$00
AD70: 00 00    brk  #$00
AD72: 00 00    brk  #$00
AD74: 00 02    brk  #$02
AD76: A0 00    ldy  #$00
AD78: 08       php  
AD79: 08       php  
AD7A: 00 08    brk  #$08
AD7C: 08       php  
AD7D: 00 08    brk  #$08
AD7F: 08       php  
AD80: 00 08    brk  #$08
AD82: 08       php  
AD83: 00 00    brk  #$00
AD85: 00 00    brk  #$00
AD87: 00 00    brk  #$00
AD89: 00 00    brk  #$00
AD8B: 80       ill  $80
AD8C: 00 00    brk  #$00
AD8E: 00 00    brk  #$00
AD90: A2 80    ldx  #$80
AD92: F3       ill  $F3
AD93: C0 F3    cpy  #$F3
AD95: 8A       txa  
AD96: A2 CF    ldx  #$CF
AD98: FB       ill  $FB
AD99: C0 A2    cpy  #$A2
AD9B: 80       ill  $80
AD9C: A2 80    ldx  #$80
AD9E: 22       ill  $22
AD9F: 00 08    brk  #$08
ADA1: 00 00    brk  #$00
ADA3: 00 01    brk  #$01
ADA5: 10 01    bpl  $ADA8
ADA7: 00 01    brk  #$01
ADA9: 00 01    brk  #$01
ADAB: 00 01    brk  #$01
ADAD: 00 01    brk  #$01
ADAF: 00 11    brk  #$11
ADB1: 00 00    brk  #$00
ADB3: 10 00    bpl  $ADB5
ADB5: 10 00    bpl  $ADB7
ADB7: 10 00    bpl  $ADB9
ADB9: 10 00    bpl  $ADBB
ADBB: 10 10    bpl  $ADCD
ADBD: 10 00    bpl  $ADBF
ADBF: 00 00    brk  #$00
ADC1: 00 00    brk  #$00
ADC3: 00 00    brk  #$00
ADC5: 00 10    brk  #$10
ADC7: 00 00    brk  #$00
ADC9: 00 00    brk  #$00
ADCB: 00 00    brk  #$00
ADCD: 00 10    brk  #$10
ADCF: 00 00    brk  #$00
ADD1: 00 00    brk  #$00
ADD3: 00 10    brk  #$10
ADD5: 00 00    brk  #$00
ADD7: 00 10    brk  #$10
ADD9: 00 10    brk  #$10
ADDB: 00 7D    brk  #$7D
ADDD: FF       ill  $FF
ADDE: FF       ill  $FF
ADDF: FF       ill  $FF
ADE0: FF       ill  $FF
ADE1: FF       ill  $FF
ADE2: FF       ill  $FF
ADE3: FF       ill  $FF
ADE4: FF       ill  $FF
ADE5: FF       ill  $FF
ADE6: FF       ill  $FF
ADE7: FF       ill  $FF
ADE8: FF       ill  $FF
ADE9: FF       ill  $FF
ADEA: FF       ill  $FF
ADEB: FF       ill  $FF
ADEC: FF       ill  $FF
ADED: FF       ill  $FF
ADEE: FF       ill  $FF
ADEF: FF       ill  $FF
ADF0: FF       ill  $FF
ADF1: FF       ill  $FF
ADF2: FF       ill  $FF
ADF3: FF       ill  $FF
ADF4: FF       ill  $FF
ADF5: FF       ill  $FF
ADF6: FF       ill  $FF
ADF7: FF       ill  $FF
ADF8: FF       ill  $FF
ADF9: FF       ill  $FF
ADFA: FF       ill  $FF
ADFB: FF       ill  $FF
ADFC: FF       ill  $FF
ADFD: FF       ill  $FF
ADFE: FF       ill  $FF
ADFF: FF       ill  $FF
AE00: 00 44    brk  #$44
AE02: 10 04    bpl  $AE08
AE04: 04       ill  $04
AE05: 44       ill  $44
AE06: 40       rti  
AE07: 40       rti  
AE08: 04       ill  $04
AE09: 44       ill  $44
AE0A: 44       ill  $44
AE0B: 88       dey  
AE0C: 20 08 08 jsr  $0808
AE0F: 88       dey  
AE10: 80       ill  $80
AE11: 80       ill  $80
AE12: 08       php  
AE13: 88       dey  
AE14: 88       dey  
AE15: DC       ill  $DC
AE16: C0 CC    cpy  #$CC
AE18: CC CC 00 cpy  $00CC
AE1B: 33       ill  $33
AE1C: 30 33    bmi  $AE51
AE1E: 30 0F    bmi  $AE2F
AE20: C0 FF    cpy  #$FF
AE22: C0 FC    cpy  #$FC
AE24: 00 F0    brk  #$F0
AE26: C0 0C    cpy  #$0C
AE28: 57       ill  $57
AE29: 57       ill  $57
AE2A: 57       ill  $57
AE2B: 7C       ill  $7C
AE2C: 03       ill  $03
AE2D: 00 00    brk  #$00
AE2F: 00 03    brk  #$03
AE31: 00 00    brk  #$00
AE33: 00 03    brk  #$03
AE35: 00 00    brk  #$00
AE37: 00 00    brk  #$00
AE39: 00 00    brk  #$00
AE3B: C0 0C    cpy  #$0C
AE3D: 00 00    brk  #$00
AE3F: 00 00    brk  #$00
AE41: 00 00    brk  #$00
AE43: 00 00    brk  #$00
AE45: 00 00    brk  #$00
AE47: 00 00    brk  #$00
AE49: 00 00    brk  #$00
AE4B: 00 00    brk  #$00
AE4D: 00 00    brk  #$00
AE4F: 0D C0 0D ora  $0DC0
AE52: C0 00    cpy  #$00
AE54: 00 00    brk  #$00
AE56: 00 00    brk  #$00
AE58: 00 00    brk  #$00
AE5A: 00 00    brk  #$00
AE5C: 00 00    brk  #$00
AE5E: 00 00    brk  #$00
AE60: 40       rti  
AE61: 50 00    bvc  $AE63
AE63: 40       rti  
AE64: 10 00    bpl  $AE66
AE66: 10 40    bpl  $AEA8
AE68: 00 32    brk  #$32
AE6A: 22       ill  $22
AE6B: 20 00 00 jsr  $0000
AE6E: 00 00    brk  #$00
AE70: 00 00    brk  #$00
AE72: 00 00    brk  #$00
AE74: 00 00    brk  #$00
AE76: 00 00    brk  #$00
AE78: 0B       ill  $0B
AE79: 38       sec  
AE7A: 00 0B    brk  #$0B
AE7C: 38       sec  
AE7D: 00 0B    brk  #$0B
AE7F: 08       php  
AE80: 00 08    brk  #$08
AE82: 08       php  
AE83: 00 0B    brk  #$0B
AE85: 38       sec  
AE86: 00 03    brk  #$03
AE88: 30 00    bmi  $AE8A
AE8A: 00 C0    brk  #$C0
AE8C: 00 00    brk  #$00
AE8E: 00 00    brk  #$00
AE90: A2 80    ldx  #$80
AE92: C0 C0    cpy  #$C0
AE94: 30 82    bmi  $AE18
AE96: 82       ill  $82
AE97: 0C       ill  $0C
AE98: FB       ill  $FB
AE99: C0 A2    cpy  #$A2
AE9B: 80       ill  $80
AE9C: 00 00    brk  #$00
AE9E: 00 00    brk  #$00
AEA0: 00 00    brk  #$00
AEA2: 00 00    brk  #$00
AEA4: 01 10    ora  ($10,x)
AEA6: 01 00    ora  ($00,x)
AEA8: 01 00    ora  ($00,x)
AEAA: 01 00    ora  ($00,x)
AEAC: 01 00    ora  ($00,x)
AEAE: 01 00    ora  ($00,x)
AEB0: 11 00    ora  ($00),y
AEB2: 00 10    brk  #$10
AEB4: 00 10    brk  #$10
AEB6: 00 10    brk  #$10
AEB8: 00 10    brk  #$10
AEBA: 00 10    brk  #$10
AEBC: 10 10    bpl  $AECE
AEBE: 00 00    brk  #$00
AEC0: 00 00    brk  #$00
AEC2: 00 00    brk  #$00
AEC4: 00 00    brk  #$00
AEC6: 10 00    bpl  $AEC8
AEC8: 00 00    brk  #$00
AECA: 00 00    brk  #$00
AECC: 00 00    brk  #$00
AECE: 10 00    bpl  $AED0
AED0: 00 00    brk  #$00
AED2: 00 00    brk  #$00
AED4: 10 00    bpl  $AED6
AED6: 00 00    brk  #$00
AED8: 10 00    bpl  $AEDA
AEDA: 10 00    bpl  $AEDC
AEDC: 7D FF FF adc  $FFFF,x
AEDF: FF       ill  $FF
AEE0: FF       ill  $FF
AEE1: FF       ill  $FF
AEE2: FF       ill  $FF
AEE3: FF       ill  $FF
AEE4: FF       ill  $FF
AEE5: FF       ill  $FF
AEE6: FF       ill  $FF
AEE7: FF       ill  $FF
AEE8: FF       ill  $FF
AEE9: FF       ill  $FF
AEEA: FF       ill  $FF
AEEB: FF       ill  $FF
AEEC: FF       ill  $FF
AEED: FF       ill  $FF
AEEE: FF       ill  $FF
AEEF: FF       ill  $FF
AEF0: FF       ill  $FF
AEF1: FF       ill  $FF
AEF2: FF       ill  $FF
AEF3: FF       ill  $FF
AEF4: FF       ill  $FF
AEF5: FF       ill  $FF
AEF6: FF       ill  $FF
AEF7: FF       ill  $FF
AEF8: FF       ill  $FF
AEF9: FF       ill  $FF
AEFA: FF       ill  $FF
AEFB: FF       ill  $FF
AEFC: FF       ill  $FF
AEFD: FF       ill  $FF
AEFE: FF       ill  $FF
AEFF: FF       ill  $FF
AF00: 00 54    brk  #$54
AF02: 50 54    bvc  $AF58
AF04: 54       ill  $54
AF05: 40       rti  
AF06: 50 50    bvc  $AF58
AF08: 54       ill  $54
AF09: 54       ill  $54
AF0A: 54       ill  $54
AF0B: A8       tay  
AF0C: A0 A8    ldy  #$A8
AF0E: A8       tay  
AF0F: 80       ill  $80
AF10: A0 A0    ldy  #$A0
AF12: A8       tay  
AF13: A8       tay  
AF14: A8       tay  
AF15: FC       ill  $FC
AF16: C0 CF    cpy  #$CF
AF18: CC CF C0 cpy  $C0CF
AF1B: 03       ill  $03
AF1C: 00 03    brk  #$03
AF1E: 00 03    brk  #$03
AF20: 00 FF    brk  #$FF
AF22: C0 FC    cpy  #$FC
AF24: 00 30    brk  #$30
AF26: FF       ill  $FF
AF27: FC       ill  $FC
AF28: FF       ill  $FF
AF29: FF       ill  $FF
AF2A: FF       ill  $FF
AF2B: FC       ill  $FC
AF2C: 00 00    brk  #$00
AF2E: 00 00    brk  #$00
AF30: 00 00    brk  #$00
AF32: 00 00    brk  #$00
AF34: 00 00    brk  #$00
AF36: 00 00    brk  #$00
AF38: 00 00    brk  #$00
AF3A: 00 FF    brk  #$FF
AF3C: FC       ill  $FC
AF3D: 00 00    brk  #$00
AF3F: 00 00    brk  #$00
AF41: 00 00    brk  #$00
AF43: 00 00    brk  #$00
AF45: 00 00    brk  #$00
AF47: 00 00    brk  #$00
AF49: 00 00    brk  #$00
AF4B: 00 00    brk  #$00
AF4D: 00 00    brk  #$00
AF4F: 03       ill  $03
AF50: 00 03    brk  #$03
AF52: 00 0F    brk  #$0F
AF54: C0 45    cpy  #$45
AF56: 44       ill  $44
AF57: 00 00    brk  #$00
AF59: 00 00    brk  #$00
AF5B: 00 00    brk  #$00
AF5D: 00 00    brk  #$00
AF5F: 00 15    brk  #$15
AF61: 40       rti  
AF62: 00 50    brk  #$50
AF64: 50 00    bvc  $AF66
AF66: 40       rti  
AF67: 10 00    bpl  $AF69
AF69: F2       ill  $F2
AF6A: AA       tax  
AF6B: A0 00    ldy  #$00
AF6D: 00 00    brk  #$00
AF6F: 00 00    brk  #$00
AF71: 00 00    brk  #$00
AF73: 00 00    brk  #$00
AF75: 00 00    brk  #$00
AF77: 00 0A    brk  #$0A
AF79: A8       tay  
AF7A: 00 0A    brk  #$0A
AF7C: A8       tay  
AF7D: 00 0A    brk  #$0A
AF7F: A8       tay  
AF80: 00 0A    brk  #$0A
AF82: A8       tay  
AF83: 00 00    brk  #$00
AF85: 00 00    brk  #$00
AF87: 00 00    brk  #$00
AF89: 00 00    brk  #$00
AF8B: 00 00    brk  #$00
AF8D: 00 00    brk  #$00
AF8F: 00 AA    brk  #$AA
AF91: 80       ill  $80
AF92: F3       ill  $F3
AF93: C0 FF    cpy  #$FF
AF95: AA       tax  
AF96: AA       tax  
AF97: FF       ill  $FF
AF98: FF       ill  $FF
AF99: C0 AA    cpy  #$AA
AF9B: 80       ill  $80
AF9C: AA       tax  
AF9D: 80       ill  $80
AF9E: 2A       rol  a
AF9F: 00 08    brk  #$08
AFA1: 00 00    brk  #$00
AFA3: 00 01    brk  #$01
AFA5: 00 01    brk  #$01
AFA7: 00 01    brk  #$01
AFA9: 00 01    brk  #$01
AFAB: 00 01    brk  #$01
AFAD: 00 01    brk  #$01
AFAF: 00 01    brk  #$01
AFB1: 00 00    brk  #$00
AFB3: 00 00    brk  #$00
AFB5: 00 00    brk  #$00
AFB7: 00 00    brk  #$00
AFB9: 00 00    brk  #$00
AFBB: 00 00    brk  #$00
AFBD: 00 00    brk  #$00
AFBF: 00 00    brk  #$00
AFC1: 00 00    brk  #$00
AFC3: 00 00    brk  #$00
AFC5: 00 00    brk  #$00
AFC7: 00 00    brk  #$00
AFC9: 00 00    brk  #$00
AFCB: 00 00    brk  #$00
AFCD: 00 00    brk  #$00
AFCF: 00 00    brk  #$00
AFD1: 00 00    brk  #$00
AFD3: 00 00    brk  #$00
AFD5: 00 00    brk  #$00
AFD7: 00 00    brk  #$00
AFD9: 00 00    brk  #$00
AFDB: 00 14    brk  #$14
AFDD: FF       ill  $FF
AFDE: FF       ill  $FF
AFDF: FF       ill  $FF
AFE0: FF       ill  $FF
AFE1: FF       ill  $FF
AFE2: FF       ill  $FF
AFE3: FF       ill  $FF
AFE4: FF       ill  $FF
AFE5: FF       ill  $FF
AFE6: FF       ill  $FF
AFE7: FF       ill  $FF
AFE8: FF       ill  $FF
AFE9: FF       ill  $FF
AFEA: FF       ill  $FF
AFEB: FF       ill  $FF
AFEC: FF       ill  $FF
AFED: FF       ill  $FF
AFEE: FF       ill  $FF
AFEF: FF       ill  $FF
AFF0: FF       ill  $FF
AFF1: FF       ill  $FF
AFF2: FF       ill  $FF
AFF3: FF       ill  $FF
AFF4: FF       ill  $FF
AFF5: FF       ill  $FF
AFF6: FF       ill  $FF
AFF7: FF       ill  $FF
AFF8: FF       ill  $FF
AFF9: FF       ill  $FF
AFFA: FF       ill  $FF
AFFB: FF       ill  $FF
AFFC: FF       ill  $FF
AFFD: FF       ill  $FF
AFFE: FF       ill  $FF
AFFF: FF       ill  $FF


;Start a new level

B000: E6 D5    inc  $D5		;Current level
B002: F8       sed  
B003: A6 61    ldx  $61		;Get player number
B005: 18       clc  		;
B006: B5 E8    lda  $E8,x	;Get players current level
B008: 69 01    adc  #$01	;Increment to next level
B00A: 95 E8    sta  $E8,x	;Save it
B00C: D8       cld  		;
B00D: A9 00    lda  #$00	
B00F: 85 A2    sta  $A2
B011: A5 D5    lda  $D5		;Get current level
B013: C9 29    cmp  #$29	;
B015: 90 08    bcc  $B01F	;Branch if level less the 40
B017: 38       sec  		;
B018: E9 14    sbc  #$14	;Cycle back 20 levels
B01A: 85 D5    sta  $D5		;
B01C: 4C 13 B0 jmp  $B013	;

;Calculate pointer to level data
B01F: 0A       asl  a		;A = A * 16
B020: 26 A2    rol  $A2		;Accumulate carries into $A2
B022: 0A       asl  a		;
B023: 26 A2    rol  $A2		;
B025: 0A       asl  a		;
B026: 26 A2    rol  $A2		;
B028: 0A       asl  a		;
B029: 26 A2    rol  $A2		;
B02B: 18       clc  
B02C: 69 0A    adc  #$0A	;A = A + $0A
B02E: 85 BA    sta  $BA		;Store in pointer
B030: A5 A2    lda  $A2		;Add high byte
B032: 69 EF    adc  #$EF	;
B034: 85 BB    sta  $BB		;Store in pointer

B036: E6 6E    inc  $6E		
B038: A5 6E    lda  $6E
B03A: C5 73    cmp  $73
B03C: 90 07    bcc  $B045
B03E: A5 73    lda  $73
B040: 38       sec  
B041: E9 14    sbc  #$14
B043: 85 6E    sta  $6E

B045: A0 0F    ldy  #$0F	;Copy level data to RAM table
B047: B1 BA    lda  ($BA),y	;
B049: 99 06 19 sta  $1906,y	;
B04C: 88       dey  		;
B04D: 10 F8    bpl  $B047	;

B04F: C8       iny  
B050: 84 6D    sty  $6D
B052: F0 04    beq  $B058
B054: A9 01    lda  #$01
B056: 85 6D    sta  $6D
B058: A9 00    lda  #$00
B05A: A0 57    ldy  #$57
B05C: 99 91 1F sta  SPRITE_STATE_1F91,y	;Clear sprite enable table
B05F: 99 8C 1E sta  SPRITE_TYPE_1E8C,y	;Clear sprite type table
B062: 99 E8 1F sta  $1FE8,y
B065: 99 87 1D sta  $1D87,y
B068: 99 DE 1D sta  $1DDE,y
B06B: 99 35 1E sta  $1E35,y
B06E: 88       dey  
B06F: 10 EB    bpl  $B05C

B071: A5 72    lda  $72
B073: 85 EC    sta  $EC
B075: A9 FF    lda  #$FF
B077: A0 07    ldy  #$07
B079: 99 26 19 sta  $1926,y
B07C: 88       dey  
B07D: 10 FA    bpl  $B079
B07F: A2 01    ldx  #$01	;Start with sprite #1
B081: A9 00    lda  #$00
B083: 85 C9    sta  $C9
B085: AC 06 19 ldy  $1906	;Get number of grunts
B088: D0 03    bne  $B08D	;Branch if there are any
B08A: 4C D3 B0 jmp  $B0D3	;If not jump

;Grunts
B08D: 88       dey  		
B08E: 20 D8 D3 jsr  $D3D8	;Get Random Screen coords
B091: A5 C3    lda  $C3		;Get X-pos
B093: 9D CF 1A sta  SPRITE_X,x	;Store in sprite table
B096: 18       clc  		;
B097: 69 07    adc  #$07	;X Extent = Xpos + $07
B099: 9D E3 1E sta  SPRITE_X_EXTENT,x	;Store in sprite table
B09C: A5 C4    lda  $C4		;Get Y-pos
B09E: 9D 26 1B sta  SPRITE_Y,x	;Store in sprite table
B0A1: 18       clc  		;
B0A2: 69 0C    adc  #$0C	;Y Extent = Ypos + $0C
B0A4: 9D 3A 1F sta  SPRITE_Y_EXTENT,x	;Store in sprite table
B0A7: 98       tya  		;Get Grunt count
B0A8: 29 0F    and  #$0F	;Mask off bottom 4 bits
B0AA: 18       clc  		;
B0AB: 69 08    adc  #$08	; add 8, this value will be how many frames before this grunt can start moving
B0AD: 9D 7D 1B sta  SPRITE_FRAMES_BEFORE_MOVE_1B7D,x
B0B0: 20 14 D4 jsr  $D414	;Get random number into A
B0B3: 18       clc  		;	
B0B4: 69 01    adc  #$01	;	
B0B6: 9D D9 1C sta  SPRITE_ANIM_FRAME_1CD9,x	;Set animation frame
B0B9: A9 00    lda  #$00	;
B0BB: 9D D4 1B sta  SPRITE_DIRECTION_1BD4,x	;Clear facing direction
B0BE: A9 01    lda  #$01	;
B0C0: 9D 8C 1E sta  SPRITE_TYPE_1E8C,x	;Set sprite type to Grunt
B0C3: A9 01    lda  #$01	;
B0C5: 9D 91 1F sta  SPRITE_STATE_1F91,x	;Enable it
B0C8: A9 00    lda  #$00	;
B0CA: 9D E8 1F sta  $1FE8,x	;
B0CD: E6 C9    inc  $C9		;Count total sprites		
B0CF: E8       inx  		;next sprite location
B0D0: 88       dey  		;Next Grunt
B0D1: 10 BB    bpl  $B08E	;

B0D3: A4 6E    ldy  $6E		
B0D5: B9 76 ED lda  $ED76,y
B0D8: A8       tay  
B0D9: A5 6D    lda  $6D
B0DB: 0A       asl  a
B0DC: 85 CC    sta  $CC
B0DE: 98       tya  
B0DF: 38       sec  
B0E0: E5 CC    sbc  $CC
B0E2: 85 CC    sta  $CC
B0E4: 86 DF    stx  $DF		;Save sprite index of end of grunts

;Electrodes

B0E6: AC 15 19 ldy  $1915	;Get number of electrodes
B0E9: D0 03    bne  $B0EE	;Branch if there are any
B0EB: 4C 4B B1 jmp  $B14B	;Jump if not

B0EE: 84 A3    sty  $A3		;Save number of electrodes
B0F0: AC 14 19 ldy  $1914	;Get type of electrode for this screen
B0F3: B9 34 ED lda  $ED34,y	;Get electrode width from table
B0F6: 85 A0    sta  $A0		;
B0F8: B9 3C ED lda  $ED3C,y	;Get electrode height from table
B0FB: 85 A1    sta  $A1
B0FD: A4 A3    ldy  $A3
B0FF: 20 D8 D3 jsr  $D3D8	;Get random screen position
B102: A5 C3    lda  $C3		;Get random X-pos
B104: 9D CF 1A sta  SPRITE_X,x	;Store in Sprite table
B107: 18       clc  		;
B108: 65 A0    adc  $A0		;Add electrode width
B10A: 9D E3 1E sta  SPRITE_X_EXTENT,x	;Store in sprite table
B10D: A5 C4    lda  $C4		;Get random Y-pos
B10F: 9D 26 1B sta  SPRITE_Y,x	;Store in sprite table
B112: 18       clc  		;
B113: 65 A1    adc  $A1		;Add electrode height
B115: 9D 3A 1F sta  SPRITE_Y_EXTENT,x	;Store in sprite table
B118: 8A       txa  		;
B119: A8       tay  		;
B11A: 88       dey  		;Put previous sprite index into Y
B11B: F0 0A    beq  $B127	;skip if we are on the first sprite
B11D: 20 5D DC jsr  $DC5D	;see if this sprite overlaps a previous one
B120: A5 B7    lda  $B7		;get result
B122: D0 DB    bne  $B0FF	;If they overlap, try again
B124: 88       dey  		;goto next previous sprite
B125: D0 F6    bne  $B11D	;Branch if we are not done
B127: AD 14 19 lda  $1914	;Get electrode style
B12A: 9D D4 1B sta  SPRITE_DIRECTION_1BD4,x	;Store in sprite table
B12D: A9 10    lda  #$10	;
B12F: 9D 8C 1E sta  SPRITE_TYPE_1E8C,x	;Set sprite type to Electrode
B132: A9 01    lda  #$01	;
B134: 9D 91 1F sta  SPRITE_STATE_1F91,x	;Enable sprite
B137: A9 00    lda  #$00	;
B139: 9D D9 1C sta  SPRITE_ANIM_FRAME_1CD9,x	;Set animation frame
B13C: A9 00    lda  #$00	
B13E: 9D E8 1F sta  $1FE8,x	
B141: A9 7F    lda  #$7F
B143: 9D 7D 1B sta  SPRITE_FRAMES_BEFORE_MOVE_1B7D,x
B146: E8       inx  		;Next sprite position
B147: C6 A3    dec  $A3		;Decrement number of Electrodes		
B149: D0 B4    bne  $B0FF	;Branch if not done

;Humans

B14B: 86 D6    stx  $D6		;Save index of first Human
B14D: 18       clc  		;
B14E: AD 09 19 lda  $1909	;Get number of Mikies
B151: 6D 08 19 adc  $1908	;add to number of Daddies
B154: 6D 07 19 adc  $1907	;add to number of Mommies
B157: 85 5B    sta  $5B		;Save
B159: AD 07 19 lda  $1907	;Get number of Mommies
B15C: D0 0D    bne  $B16B	;Branch if there are any
B15E: AD 08 19 lda  $1908	;Get number of Daddies
B161: D0 08    bne  $B16B	;Branch if there are any
B163: AD 09 19 lda  $1909	;Get number of Mikies
B166: D0 03    bne  $B16B	;Branch if there are any
B168: 4C FF B1 jmp  $B1FF	;No humans, done

B16B: A9 02    lda  #$02	;
B16D: 85 A2    sta  $A2		;
B16F: CE 07 19 dec  $1907	;Decrement number of Mommies
B172: 10 05    bpl  $B179	;Branch if there are still some left
B174: C6 A2    dec  $A2		;No Mommies left
B176: 4C 81 B1 jmp  $B181	

B179: A9 02    lda  #$02	;
B17B: 9D 8C 1E sta  SPRITE_TYPE_1E8C,x	;Set sprite type to Mommy
B17E: 20 AC B1 jsr  $B1AC	;Put Mommy in sprite table
B181: CE 08 19 dec  $1908	;Decrement number of Daddies
B184: 10 05    bpl  $B18B	;Bracnh if there are still some left
B186: C6 A2    dec  $A2		;No Daddies left
B188: 4C 93 B1 jmp  $B193	

B18B: A9 03    lda  #$03	;
B18D: 9D 8C 1E sta  SPRITE_TYPE_1E8C,x	;Set sprite type to Daddy
B190: 20 AC B1 jsr  $B1AC	;put Daddy in sprite table
B193: CE 09 19 dec  $1909	;Decrement number of Mikies
B196: 10 05    bpl  $B19D	;Branch if there are still some left
B198: C6 A2    dec  $A2		;No Mikies left
B19A: 4C A5 B1 jmp  $B1A5	

B19D: A9 04    lda  #$04	;
B19F: 9D 8C 1E sta  SPRITE_TYPE_1E8C,x	;set sprite type to Mikie
B1A2: 20 AC B1 jsr  $B1AC	;Put Mikie in sprite table

B1A5: A5 A2    lda  $A2		;Done with all humans?
B1A7: 10 C2    bpl  $B16B	;branch if not
B1A9: 4C FF B1 jmp  $B1FF	;Done

B1AC: 20 BD D3 jsr  $D3BD	;Get random screen position
B1AF: A5 C3    lda  $C3		;Get X-pos
B1B1: 9D CF 1A sta  SPRITE_X,x	;Put it in sprite table
B1B4: 18       clc  		;
B1B5: 69 04    adc  #$04	;xpos = xpos + 4 (width)
B1B7: 9D E3 1E sta  SPRITE_X_EXTENT,x	;Store in sprite table
B1BA: A5 C4    lda  $C4		;Get Y-pos
B1BC: 9D 26 1B sta  SPRITE_Y,x	;Put it in sprite table
B1BF: 18       clc  		;
B1C0: 69 0B    adc  #$0B	;ypos = ypos + 11 (height)
B1C2: 9D 3A 1F sta  SPRITE_Y_EXTENT,x	;Put it in sprite table
B1C5: A4 DF    ldy  $DF		;Get sprite index of end of grunts
B1C7: C4 D6    cpy  $D6		;compare with current sprite index
B1C9: F0 0C    beq  $B1D7	;if they are equal, skip

B1CB: 20 5D DC jsr  $DC5D	;see if sprite overlaps any electrodes
B1CE: A5 B7    lda  $B7		;get result
B1D0: D0 DA    bne  $B1AC	;try again if it overlaps
B1D2: C8       iny  		;Next electrode
B1D3: C4 D6    cpy  $D6		;Done with electrodes yet
B1D5: 90 F4    bcc  $B1CB	;Branch if not
B1D7: 20 A8 D3 jsr  $D3A8	;Get random number
B1DA: 29 07    and  #$07	;number from 0 - 7
B1DC: 9D 82 1C sta  $1C82,x	;
B1DF: 8A       txa  
B1E0: 29 0F    and  #$0F	
B1E2: 9D 7D 1B sta  SPRITE_FRAMES_BEFORE_MOVE_1B7D,x
B1E5: 20 14 D4 jsr  $D414	;Get random number from 0 to 2
B1E8: 9D D9 1C sta  SPRITE_ANIM_FRAME_1CD9,x	;Sprite animation frame
B1EB: 20 A8 D3 jsr  $D3A8	;Get random number
B1EE: 29 07    and  #$07	;number from 0 -7
B1F0: 9D D4 1B sta  SPRITE_DIRECTION_1BD4,x	;Store in direction sprite is facing
B1F3: A9 01    lda  #$01	;
B1F5: 9D 91 1F sta  SPRITE_STATE_1F91,x	;Enabled sprite
B1F8: A9 00    lda  #$00	
B1FA: 9D E8 1F sta  $1FE8,x
B1FD: E8       inx  		;Next human
B1FE: 60       rts  

;Hulks

B1FF: A9 0A    lda  #$0A	
B201: 85 CD    sta  $CD
B203: A9 00    lda  #$00
B205: 85 D4    sta  $D4
B207: 86 D7    stx  $D7		;Save index of first Hulk
B209: AC 0A 19 ldy  $190A	;Get number of Hulks
B20C: D0 03    bne  $B211	;Branch if there are some 
B20E: 4C 78 B2 jmp  $B278	; otherwise if we have no hulks, do our spheroids

B211: A4 6E    ldy  $6E			
B213: B9 BC ED lda  $EDBC,y
B216: 85 CE    sta  $CE
B218: B9 02 EE lda  $EE02,y
B21B: 85 A0    sta  $A0
B21D: AC 0A 19 ldy  $190A	;Get number of Hulks
B220: 88       dey  		;
B221: 20 D8 D3 jsr  $D3D8	;Get random screen position
B224: A5 C3    lda  $C3		;Get result
B226: 9D CF 1A sta  SPRITE_X,x ;Write X position to sprite table	
B229: 18       clc  	  	 ;
B22A: 69 07    adc  #$07	 ;Width
B22C: 9D E3 1E sta  SPRITE_X_EXTENT,x ;Store in sprite table
B22F: A5 C4    lda  $C4		 ;Get Y component from random screen pos func
B231: 9D 26 1B sta  SPRITE_Y,x ;Write Y position to sprite table
B234: 18       clc  		 ;
B235: 69 0E    adc  #$0E	 ;Height
B237: 9D 3A 1F sta  SPRITE_Y_EXTENT,x ;Store in sprite table
B23A: 98       tya  		 ; number of hulks into acc
B23B: 29 0F    and  #$0F	 
B23D: 18       clc  	
B23E: 69 08    adc  #$08	
B240: 9D 7D 1B sta  SPRITE_FRAMES_BEFORE_MOVE_1B7D,x
B243: 20 14 D4 jsr  $D414	;Random number between 0 and 2 to determine what sprite frame to start with use
B246: 18       clc  		;
B247: 69 01    adc  #$01	;Add 1 to frame index
B249: 9D D9 1C sta  SPRITE_ANIM_FRAME_1CD9,x	;Animation frame
B24C: 20 A8 D3 jsr  $D3A8	;Random
B24F: 29 07    and  #$07	;
B251: 9D 82 1C sta  $1C82,x	;
B254: 29 03    and  #$03	; produces a "random" direction
B256: 9D D4 1B sta  SPRITE_DIRECTION_1BD4,x
B259: A9 05    lda  #$05	; Hulk
B25B: 9D 8C 1E sta  SPRITE_TYPE_1E8C,x
B25E: A9 00    lda  #$00
B260: 9D 30 1D sta  $1D30,x	
B263: C6 A0    dec  $A0
B265: A5 A0    lda  $A0
B267: 9D 2B 1C sta  $1C2B,x
B26A: A9 01    lda  #$01	; make hulk active
B26C: 9D 91 1F sta  SPRITE_STATE_1F91,x
B26F: A9 00    lda  #$00
B271: 9D E8 1F sta  $1FE8,x
B274: E8       inx  
B275: 88       dey  
B276: 10 A9    bpl  $B221

B278: 86 D8    stx  $D8			;Save index of first Spheroid

B27A: A4 6E    ldy  $6E
B27C: B9 8E EE lda  $EE8E,y
B27F: 85 CF    sta  $CF
B281: B9 48 EE lda  $EE48,y
B284: 85 EB    sta  $EB
B286: A9 01    lda  #$01
B288: 85 A4    sta  $A4
B28A: 20 05 D4 jsr  $D405
B28D: A8       tay  
B28E: A5 6D    lda  $6D
B290: F0 05    beq  $B297
B292: C0 01    cpy  #$01
B294: D0 01    bne  $B297
B296: 88       dey  
B297: 98       tya  
B298: 18       clc  
B299: 65 EB    adc  $EB
B29B: 85 EB    sta  $EB
B29D: A9 04    lda  #$04
B29F: 85 EA    sta  $EA
B2A1: 0A       asl  a
B2A2: 85 60    sta  $60
B2A4: A9 00    lda  #$00
B2A6: 85 7D    sta  $7D
B2A8: AC 0B 19 ldy  $190B		; get spheroid count
B2AB: D0 03    bne  $B2B0		; if we have some
B2AD: 4C 21 B3 jmp  $B321
B2B0: 88       dey			  
B2B1: 20 D8 D3 jsr  $D3D8		; get random screen coords
B2B4: A5 C4    lda  $C4			
B2B6: 9D 26 1B sta  SPRITE_Y,x
B2B9: 18       clc  
B2BA: 69 0D    adc  #$0D
B2BC: 9D 3A 1F sta  SPRITE_Y_EXTENT,x		; Y Extent = YPos + #$0D
B2BF: 8A       txa  
B2C0: 29 01    and  #$01
B2C2: F0 04    beq  $B2C8
B2C4: A9 02    lda  #$02
B2C6: D0 02    bne  $B2CA
B2C8: A9 94    lda  #$94
B2CA: 9D CF 1A sta  SPRITE_X,x
B2CD: 18       clc  
B2CE: 69 09    adc  #$09					; X Extent = XPos + 9
B2D0: 9D E3 1E sta  SPRITE_X_EXTENT,x
B2D3: A9 06    lda  #$06					; spheroid
B2D5: 9D 8C 1E sta  SPRITE_TYPE_1E8C,x		; save to sprite type
B2D8: 20 A8 D3 jsr  $D3A8
B2DB: 29 03    and  #$03
B2DD: 18       clc  
B2DE: 69 03    adc  #$03
B2E0: 9D 30 1D sta  $1D30,x
B2E3: A9 00    lda  #$00
B2E5: 85 B1    sta  $B1
B2E7: 85 B2    sta  $B2
B2E9: A9 03    lda  #$03
B2EB: 85 A4    sta  $A4
B2ED: 20 05 D4 jsr  $D405
B2F0: 85 B3    sta  $B3
B2F2: 20 05 D4 jsr  $D405
B2F5: 85 B4    sta  $B4
B2F7: 20 03 BA jsr  $BA03
B2FA: 20 A8 D3 jsr  $D3A8
B2FD: 29 3F    and  #$3F
B2FF: C9 20    cmp  #$20
B301: 10 F7    bpl  $B2FA
B303: 9D 82 1C sta  $1C82,x
B306: A9 01    lda  #$01
B308: 9D 91 1F sta  SPRITE_STATE_1F91,x
B30B: A9 00    lda  #$00
B30D: 9D E8 1F sta  $1FE8,x
B310: 8A       txa  
B311: 29 07    and  #$07
B313: 9D 7D 1B sta  SPRITE_FRAMES_BEFORE_MOVE_1B7D,x
B316: A9 01    lda  #$01
B318: 9D D9 1C sta  SPRITE_ANIM_FRAME_1CD9,x
B31B: E6 C9    inc  $C9
B31D: E8       inx  
B31E: 88       dey  
B31F: 10 90    bpl  $B2B1
B321: 86 D9    stx  $D9
B323: AC 0C 19 ldy  $190C
B326: D0 03    bne  $B32B
B328: 4C 7E B3 jmp  $B37E
B32B: 88       dey  
B32C: 20 D8 D3 jsr  $D3D8
B32F: A5 C3    lda  $C3
B331: 9D CF 1A sta  SPRITE_X,x
B334: 18       clc  
B335: 69 06    adc  #$06
B337: 9D E3 1E sta  SPRITE_X_EXTENT,x
B33A: 8A       txa  
B33B: 29 01    and  #$01
B33D: F0 04    beq  $B343
B33F: A9 12    lda  #$12
B341: D0 02    bne  $B345
B343: A9 B2    lda  #$B2
B345: 9D 26 1B sta  SPRITE_Y,x
B348: 18       clc  
B349: 69 09    adc  #$09
B34B: 9D 3A 1F sta  SPRITE_Y_EXTENT,x
B34E: A9 07    lda  #$07
B350: 9D 8C 1E sta  SPRITE_TYPE_1E8C,x
B353: 20 A8 D3 jsr  $D3A8
B356: 29 07    and  #$07
B358: 9D D4 1B sta  SPRITE_DIRECTION_1BD4,x
B35B: 9D 2B 1C sta  $1C2B,x
B35E: 8A       txa  
B35F: 29 07    and  #$07
B361: 9D 7D 1B sta  SPRITE_FRAMES_BEFORE_MOVE_1B7D,x
B364: A9 04    lda  #$04
B366: 9D 82 1C sta  $1C82,x
B369: A9 01    lda  #$01
B36B: 9D D9 1C sta  SPRITE_ANIM_FRAME_1CD9,x
B36E: A9 01    lda  #$01
B370: 9D 91 1F sta  SPRITE_STATE_1F91,x
B373: A9 00    lda  #$00
B375: 9D E8 1F sta  $1FE8,x
B378: E6 C9    inc  $C9
B37A: E8       inx  
B37B: 88       dey  
B37C: 10 AE    bpl  $B32C
B37E: A9 00    lda  #$00
B380: 85 ED    sta  $ED
B382: 85 EE    sta  $EE
B384: AC 0E 19 ldy  $190E
B387: D0 03    bne  $B38C
B389: 4C DA B3 jmp  $B3DA
B38C: 88       dey  
B38D: 20 D8 D3 jsr  $D3D8
B390: A5 C3    lda  $C3
B392: 9D CF 1A sta  SPRITE_X,x
B395: 18       clc  
B396: 69 09    adc  #$09
B398: 9D E3 1E sta  SPRITE_X_EXTENT,x
B39B: A5 C4    lda  $C4
B39D: 9D 26 1B sta  SPRITE_Y,x
B3A0: 18       clc  
B3A1: 69 0F    adc  #$0F
B3A3: 9D 3A 1F sta  SPRITE_Y_EXTENT,x
B3A6: 98       tya  
B3A7: 29 07    and  #$07
B3A9: 9D 7D 1B sta  SPRITE_FRAMES_BEFORE_MOVE_1B7D,x
B3AC: 09 02    ora  #$02
B3AE: 9D D4 1B sta  SPRITE_DIRECTION_1BD4,x
B3B1: 29 03    and  #$03
B3B3: 09 04    ora  #$04
B3B5: 9D D9 1C sta  SPRITE_ANIM_FRAME_1CD9,x
B3B8: 9D 2B 1C sta  $1C2B,x
B3BB: 20 A8 D3 jsr  $D3A8
B3BE: 29 0F    and  #$0F
B3C0: 69 0F    adc  #$0F
B3C2: 9D 30 1D sta  $1D30,x
B3C5: A9 09    lda  #$09
B3C7: 9D 8C 1E sta  SPRITE_TYPE_1E8C,x
B3CA: A9 01    lda  #$01
B3CC: 9D 91 1F sta  SPRITE_STATE_1F91,x
B3CF: A9 00    lda  #$00
B3D1: 9D E8 1F sta  $1FE8,x
B3D4: E6 C9    inc  $C9
B3D6: E8       inx  
B3D7: 88       dey  
B3D8: 10 B3    bpl  $B38D
B3DA: 86 DC    stx  $DC
B3DC: A5 D6    lda  $D6
B3DE: 85 A0    sta  $A0
B3E0: A9 01    lda  #$01
B3E2: 85 CB    sta  $CB
B3E4: A4 6E    ldy  $6E
B3E6: B9 D4 EE lda  $EED4,y
B3E9: 85 D2    sta  $D2
B3EB: AC 0F 19 ldy  $190F
B3EE: D0 03    bne  $B3F3
B3F0: 4C 63 B4 jmp  $B463

B3F3: 88       dey  
B3F4: 20 D8 D3 jsr  $D3D8
B3F7: A5 C3    lda  $C3
B3F9: 9D CF 1A sta  SPRITE_X,x
B3FC: 18       clc  
B3FD: 69 09    adc  #$09
B3FF: 9D E3 1E sta  SPRITE_X_EXTENT,x
B402: A5 C4    lda  $C4
B404: 9D 26 1B sta  SPRITE_Y,x
B407: 18       clc  
B408: 69 0C    adc  #$0C
B40A: 9D 3A 1F sta  SPRITE_Y_EXTENT,x
B40D: 98       tya  
B40E: 29 0F    and  #$0F
B410: 18       clc  
B411: 69 08    adc  #$08
B413: 9D 7D 1B sta  SPRITE_FRAMES_BEFORE_MOVE_1B7D,x
B416: 20 14 D4 jsr  $D414
B419: 9D D9 1C sta  SPRITE_ANIM_FRAME_1CD9,x
B41C: 20 A8 D3 jsr  $D3A8
B41F: 29 07    and  #$07
B421: 9D D4 1B sta  SPRITE_DIRECTION_1BD4,x
B424: A9 00    lda  #$00
B426: 9D 82 1C sta  $1C82,x
B429: A5 A0    lda  $A0
B42B: F0 10    beq  $B43D
B42D: C5 D7    cmp  $D7
B42F: 90 0C    bcc  $B43D
B431: A5 D6    lda  $D6
B433: 85 A0    sta  $A0
B435: C5 D7    cmp  $D7
B437: D0 04    bne  $B43D
B439: A9 00    lda  #$00
B43B: 85 A0    sta  $A0
B43D: 9D 2B 1C sta  $1C2B,x
B440: A5 A0    lda  $A0
B442: F0 02    beq  $B446
B444: E6 A0    inc  $A0
B446: 20 A8 D3 jsr  $D3A8
B449: 29 3F    and  #$3F
B44B: 9D 30 1D sta  $1D30,x
B44E: A9 0A    lda  #$0A
B450: 9D 8C 1E sta  SPRITE_TYPE_1E8C,x
B453: A9 01    lda  #$01
B455: 9D 91 1F sta  SPRITE_STATE_1F91,x
B458: A9 00    lda  #$00
B45A: 9D E8 1F sta  $1FE8,x
B45D: E6 C9    inc  $C9
B45F: E8       inx  
B460: 88       dey  
B461: 10 91    bpl  $B3F4
B463: A9 80    lda  #$80
B465: 85 EF    sta  $EF
B467: E0 53    cpx  #$53
B469: B0 0A    bcs  $B475
B46B: A5 EF    lda  $EF
B46D: 86 EF    stx  $EF
B46F: 9D 30 1D sta  $1D30,x
B472: E8       inx  
B473: D0 F2    bne  $B467
B475: A9 00    lda  #$00
B477: A2 03    ldx  #$03
B479: 9D 27 1C sta  $1C27,x
B47C: 9D 2C 1D sta  $1D2C,x
B47F: 9D E4 1F sta  $1FE4,x
B482: CA       dex  
B483: 10 F4    bpl  $B479
B485: 8D 30 1D sta  $1D30
B488: 8D 7D 1B sta  SPRITE_FRAMES_BEFORE_MOVE_1B7D
B48B: A9 0F    lda  #$0F
B48D: 8D DF 1E sta  $1EDF
B490: 8D E0 1E sta  $1EE0
B493: 8D E1 1E sta  $1EE1
B496: 8D E2 1E sta  $1EE2

B499: A9 4B    lda  #$4B	;
B49B: 8D CF 1A sta  SPRITE_X	;Set player X-pos Left
B49E: A9 50    lda  #$50	;
B4A0: 8D E3 1E sta  SPRITE_X_EXTENT	;Set player X-pos Right
B4A3: A9 62    lda  #$62	;
B4A5: 8D 26 1B sta  SPRITE_Y	;Set player Y-pos Top
B4A8: A9 6D    lda  #$6D	;
B4AA: 8D 3A 1F sta  SPRITE_Y_EXTENT	;Set player Y-pos Bottom
B4AD: A9 00    lda  #$00	;
B4AF: 8D D9 1C sta  SPRITE_ANIM_FRAME_1CD9	;Set player animation frame
B4B2: A9 0D    lda  #$0D	;
B4B4: 8D D4 1B sta  SPRITE_DIRECTION_1BD4	;Set direction player is facing
B4B7: A9 01    lda  #$01		
B4B9: 85 C8    sta  $C8
B4BB: A9 00    lda  #$00
B4BD: 8D 91 1F sta  SPRITE_STATE_1F91	;Set player as disabled
B4C0: A9 00    lda  #$00
B4C2: 85 CA    sta  $CA
B4C4: 4C 28 91 jmp  $9128


; Tank
B4C7: A5 E2    lda  $E2
B4C9: D0 0A    bne  $B4D5
B4CB: BD 91 1F lda  SPRITE_STATE_1F91,x
B4CE: D0 08    bne  $B4D8
B4D0: A9 00    lda  #$00
B4D2: 9D 8C 1E sta  SPRITE_TYPE_1E8C,x
B4D5: 4C FC 91 jmp  $91FC
B4D8: C9 03    cmp  #$03
B4DA: D0 2C    bne  $B508
B4DC: BD D9 1C lda  SPRITE_ANIM_FRAME_1CD9,x
B4DF: C9 08    cmp  #$08
B4E1: B0 11    bcs  $B4F4
B4E3: A9 08    lda  #$08
B4E5: 9D D9 1C sta  SPRITE_ANIM_FRAME_1CD9,x
B4E8: A9 02    lda  #$02
B4EA: 20 95 E3 jsr  $E395
B4ED: A9 03    lda  #$03
B4EF: 9D 7D 1B sta  SPRITE_FRAMES_BEFORE_MOVE_1B7D,x
B4F2: D0 37    bne  $B52B
B4F4: C9 0B    cmp  #$0B
B4F6: 90 06    bcc  $B4FE
B4F8: 20 1C D7 jsr  $D71C
B4FB: 4C FC 91 jmp  $91FC
B4FE: A9 01    lda  #$01
B500: 9D 7D 1B sta  SPRITE_FRAMES_BEFORE_MOVE_1B7D,x
B503: FE D9 1C inc  SPRITE_ANIM_FRAME_1CD9,x
B506: D0 23    bne  $B52B
B508: A9 03    lda  #$03
B50A: 9D 7D 1B sta  SPRITE_FRAMES_BEFORE_MOVE_1B7D,x
B50D: BD D9 1C lda  SPRITE_ANIM_FRAME_1CD9,x
B510: C9 04    cmp  #$04
B512: B0 1D    bcs  $B531
B514: FE D9 1C inc  SPRITE_ANIM_FRAME_1CD9,x
B517: BD 26 1B lda  SPRITE_Y,x
B51A: 85 BF    sta  $BF
B51C: BD CF 1A lda  SPRITE_X,x
B51F: 85 BE    sta  $BE
B521: BD 3A 1F lda  SPRITE_Y_EXTENT,x
B524: 85 C1    sta  $C1
B526: BD E3 1E lda  SPRITE_X_EXTENT,x
B529: 85 C0    sta  $C0
B52B: 20 AF E1 jsr  $E1AF
B52E: 4C FC 91 jmp  $91FC
B531: A9 02    lda  #$02
B533: 3D D4 1B and  SPRITE_DIRECTION_1BD4,x
B536: D0 11    bne  $B549
B538: FE D9 1C inc  SPRITE_ANIM_FRAME_1CD9,x
B53B: BD D9 1C lda  SPRITE_ANIM_FRAME_1CD9,x
B53E: C9 08    cmp  #$08
B540: 90 16    bcc  $B558
B542: A9 04    lda  #$04
B544: 9D D9 1C sta  SPRITE_ANIM_FRAME_1CD9,x
B547: D0 0F    bne  $B558
B549: DE D9 1C dec  SPRITE_ANIM_FRAME_1CD9,x
B54C: BD D9 1C lda  SPRITE_ANIM_FRAME_1CD9,x
B54F: C9 04    cmp  #$04
B551: B0 05    bcs  $B558
B553: A9 07    lda  #$07
B555: 9D D9 1C sta  SPRITE_ANIM_FRAME_1CD9,x
B558: BC D4 1B ldy  SPRITE_DIRECTION_1BD4,x
B55B: 18       clc  
B55C: BD CF 1A lda  SPRITE_X,x
B55F: 79 1D EC adc  $EC1D,y
B562: 85 BE    sta  $BE
B564: 18       clc  
B565: BD E3 1E lda  SPRITE_X_EXTENT,x
B568: 79 1D EC adc  $EC1D,y
B56B: 85 C0    sta  $C0
B56D: 18       clc  
B56E: BD 26 1B lda  SPRITE_Y,x
B571: 79 25 EC adc  $EC25,y
B574: 85 BF    sta  $BF
B576: 18       clc  
B577: BD 3A 1F lda  SPRITE_Y_EXTENT,x
B57A: 79 25 EC adc  $EC25,y
B57D: 85 C1    sta  $C1
B57F: 20 ED D1 jsr  $D1ED
B582: A5 A4    lda  $A4
B584: F0 05    beq  $B58B
B586: A9 00    lda  #$00
B588: 9D 2B 1C sta  $1C2B,x
B58B: DE 2B 1C dec  $1C2B,x
B58E: 10 14    bpl  $B5A4
B590: 20 A8 D3 jsr  $D3A8
B593: 29 07    and  #$07
B595: C9 02    cmp  #$02
B597: 90 F7    bcc  $B590
B599: 9D D4 1B sta  SPRITE_DIRECTION_1BD4,x
B59C: 20 A8 D3 jsr  $D3A8
B59F: 29 1F    and  #$1F
B5A1: 9D 2B 1C sta  $1C2B,x
B5A4: A5 CB    lda  $CB
B5A6: D0 13    bne  $B5BB
B5A8: DE 30 1D dec  $1D30,x
B5AB: 10 0E    bpl  $B5BB
B5AD: A5 7D    lda  $7D
B5AF: C9 0B    cmp  #$0B
B5B1: B0 08    bcs  $B5BB
B5B3: 20 A2 BB jsr  $BBA2
B5B6: A9 0F    lda  #$0F
B5B8: 9D 30 1D sta  $1D30,x
B5BB: 4C F8 97 jmp  $97F8
B5BE: 86 A6    stx  $A6
B5C0: 20 34 92 jsr  $9234
B5C3: 30 7F    bmi  $B644
B5C5: A4 A6    ldy  $A6
B5C7: B9 CF 1A lda  SPRITE_X,y
B5CA: 9D CF 1A sta  SPRITE_X,x
B5CD: 18       clc  
B5CE: 69 05    adc  #$05
B5D0: 9D E3 1E sta  SPRITE_X_EXTENT,x
B5D3: B9 26 1B lda  SPRITE_Y,y
B5D6: 9D 26 1B sta  SPRITE_Y,x
B5D9: 18       clc  
B5DA: 69 07    adc  #$07
B5DC: 9D 3A 1F sta  SPRITE_Y_EXTENT,x
B5DF: A9 01    lda  #$01
B5E1: 9D 91 1F sta  SPRITE_STATE_1F91,x
B5E4: A9 0C    lda  #$0C
B5E6: 9D 8C 1E sta  SPRITE_TYPE_1E8C,x
B5E9: 20 36 E1 jsr  $E136
B5EC: AD 3E 21 lda  $213E
B5EF: F0 07    beq  $B5F8
B5F1: 8A       txa  
B5F2: A8       tay  
B5F3: A6 A6    ldx  $A6
B5F5: 4C FB BA jmp  $BAFB
B5F8: A9 00    lda  #$00
B5FA: 85 B7    sta  $B7
B5FC: AD CF 1A lda  SPRITE_X
B5FF: 85 B8    sta  $B8
B601: AD 26 1B lda  SPRITE_Y
B604: 85 B9    sta  $B9
B606: 20 DC BC jsr  $BCDC
B609: A9 01    lda  #$01
B60B: 85 A4    sta  $A4
B60D: 20 05 D4 jsr  $D405
B610: 85 B3    sta  $B3
B612: 20 05 D4 jsr  $D405
B615: 85 B4    sta  $B4
B617: 20 03 BA jsr  $BA03
B61A: 20 A8 D3 jsr  $D3A8
B61D: 29 07    and  #$07
B61F: 18       clc  
B620: 69 01    adc  #$01
B622: 85 A4    sta  $A4
B624: 0A       asl  a
B625: 0A       asl  a
B626: 0A       asl  a
B627: 0A       asl  a
B628: 05 A4    ora  $A4
B62A: 9D 82 1C sta  $1C82,x
B62D: A9 20    lda  #$20
B62F: 9D 30 1D sta  $1D30,x
B632: A5 AA    lda  $AA
B634: 9D 7D 1B sta  SPRITE_FRAMES_BEFORE_MOVE_1B7D,x
B637: 0A       asl  a
B638: 0A       asl  a
B639: 0A       asl  a
B63A: 9D D9 1C sta  SPRITE_ANIM_FRAME_1CD9,x
B63D: E6 EE    inc  $EE
B63F: A9 0C    lda  #$0C
B641: 20 95 E3 jsr  $E395
B644: A6 A6    ldx  $A6
B646: 60       rts  
B647: BD 91 1F lda  SPRITE_STATE_1F91,x
B64A: C9 03    cmp  #$03
B64C: D0 03    bne  $B651
B64E: 4C 18 B7 jmp  $B718
B651: DE 30 1D dec  $1D30,x
B654: D0 03    bne  $B659
B656: 4C 18 B7 jmp  $B718
B659: BD D9 1C lda  SPRITE_ANIM_FRAME_1CD9,x
B65C: A8       tay  
B65D: 29 03    and  #$03
B65F: 38       sec  
B660: E9 01    sbc  #$01
B662: 10 02    bpl  $B666
B664: A9 03    lda  #$03
B666: 85 B7    sta  $B7
B668: 98       tya  
B669: 29 F8    and  #$F8
B66B: 05 B7    ora  $B7
B66D: 9D D9 1C sta  SPRITE_ANIM_FRAME_1CD9,x
B670: 20 28 BA jsr  $BA28
B673: 18       clc  
B674: BD CF 1A lda  SPRITE_X,x
B677: 65 B1    adc  $B1
B679: 85 BE    sta  $BE
B67B: 18       clc  
B67C: BD E3 1E lda  SPRITE_X_EXTENT,x
B67F: 65 B1    adc  $B1
B681: 85 C0    sta  $C0
B683: C9 9C    cmp  #$9C
B685: B0 09    bcs  $B690
B687: A5 BE    lda  $BE
B689: 18       clc  
B68A: 69 10    adc  #$10
B68C: C9 12    cmp  #$12
B68E: B0 0A    bcs  $B69A
B690: BD CF 1A lda  SPRITE_X,x
B693: 85 BE    sta  $BE
B695: BD E3 1E lda  SPRITE_X_EXTENT,x
B698: 85 C0    sta  $C0
B69A: 18       clc  
B69B: BD 26 1B lda  SPRITE_Y,x
B69E: 65 B2    adc  $B2
B6A0: 85 BF    sta  $BF
B6A2: 18       clc  
B6A3: BD 3A 1F lda  SPRITE_Y_EXTENT,x
B6A6: 65 B2    adc  $B2
B6A8: 85 C1    sta  $C1
B6AA: C9 BC    cmp  #$BC
B6AC: B0 06    bcs  $B6B4
B6AE: A5 BF    lda  $BF
B6B0: C9 12    cmp  #$12
B6B2: B0 0A    bcs  $B6BE
B6B4: BD 26 1B lda  SPRITE_Y,x
B6B7: 85 BF    sta  $BF
B6B9: BD 3A 1F lda  SPRITE_Y_EXTENT,x
B6BC: 85 C1    sta  $C1
B6BE: BD 82 1C lda  $1C82,x
B6C1: 85 B7    sta  $B7
B6C3: 29 0F    and  #$0F
B6C5: 38       sec  
B6C6: E9 01    sbc  #$01
B6C8: D0 3B    bne  $B705
B6CA: A5 B1    lda  $B1
B6CC: 18       clc  
B6CD: 65 B3    adc  $B3
B6CF: 85 B1    sta  $B1
B6D1: 30 08    bmi  $B6DB
B6D3: A9 08    lda  #$08
B6D5: C5 B1    cmp  $B1
B6D7: 90 08    bcc  $B6E1
B6D9: B0 08    bcs  $B6E3
B6DB: A9 F8    lda  #$F8
B6DD: C5 B1    cmp  $B1
B6DF: 90 02    bcc  $B6E3
B6E1: 85 B1    sta  $B1
B6E3: A5 B2    lda  $B2
B6E5: 18       clc  
B6E6: 65 B4    adc  $B4
B6E8: 85 B2    sta  $B2
B6EA: 30 08    bmi  $B6F4
B6EC: A9 08    lda  #$08
B6EE: C5 B2    cmp  $B2
B6F0: 90 08    bcc  $B6FA
B6F2: B0 08    bcs  $B6FC
B6F4: A9 F8    lda  #$F8
B6F6: C5 B2    cmp  $B2
B6F8: 90 02    bcc  $B6FC
B6FA: 85 B2    sta  $B2
B6FC: 20 03 BA jsr  $BA03
B6FF: A5 B7    lda  $B7
B701: 4A       lsr  a
B702: 4A       lsr  a
B703: 4A       lsr  a
B704: 4A       lsr  a
B705: 85 A1    sta  $A1
B707: A5 B7    lda  $B7
B709: 29 F0    and  #$F0
B70B: 05 A1    ora  $A1
B70D: 9D 82 1C sta  $1C82,x
B710: 20 AF E1 jsr  $E1AF
B713: AD 3E 21 lda  $213E
B716: F0 08    beq  $B720
B718: C6 EE    dec  $EE
B71A: 20 1E D7 jsr  $D71E		; kill this sprite
B71D: 4C FC 91 jmp  $91FC
B720: BD D9 1C lda  SPRITE_ANIM_FRAME_1CD9,x
B723: 4A       lsr  a
B724: 4A       lsr  a
B725: 4A       lsr  a
B726: 9D 7D 1B sta  SPRITE_FRAMES_BEFORE_MOVE_1B7D,x
B729: A5 BE    lda  $BE
B72B: 9D CF 1A sta  SPRITE_X,x
B72E: A5 C0    lda  $C0
B730: 9D E3 1E sta  SPRITE_X_EXTENT,x
B733: A5 BF    lda  $BF
B735: 9D 26 1B sta  SPRITE_Y,x
B738: A5 C1    lda  $C1
B73A: 9D 3A 1F sta  SPRITE_Y_EXTENT,x
B73D: 4C FC 91 jmp  $91FC
B740: A9 04    lda  #$04
B742: 9D 7D 1B sta  SPRITE_FRAMES_BEFORE_MOVE_1B7D,x
B745: BD 91 1F lda  SPRITE_STATE_1F91,x
B748: 29 02    and  #$02
B74A: F0 2D    beq  $B779
B74C: BD D9 1C lda  SPRITE_ANIM_FRAME_1CD9,x
B74F: D0 0F    bne  $B760
B751: BC 30 1D ldy  $1D30,x
B754: F0 05    beq  $B75B
B756: A9 01    lda  #$01
B758: 99 7D 1B sta  SPRITE_FRAMES_BEFORE_MOVE_1B7D,y
B75B: A9 02    lda  #$02
B75D: 20 95 E3 jsr  $E395
B760: FE D9 1C inc  SPRITE_ANIM_FRAME_1CD9,x
B763: A9 01    lda  #$01
B765: 9D 7D 1B sta  SPRITE_FRAMES_BEFORE_MOVE_1B7D,x
B768: A9 04    lda  #$04
B76A: 85 A1    sta  $A1
B76C: BD D9 1C lda  SPRITE_ANIM_FRAME_1CD9,x
B76F: C9 06    cmp  #$06
B771: 90 3F    bcc  $B7B2
B773: 20 1E D7 jsr  $D71E		; kill this sprite
B776: 4C FC 91 jmp  $91FC		; process next object
B779: DE 82 1C dec  $1C82,x
B77C: F0 08    beq  $B786
B77E: BD D4 1B lda  SPRITE_DIRECTION_1BD4,x
B781: 85 A1    sta  $A1
B783: 4C B2 B7 jmp  $B7B2
B786: 20 A8 D3 jsr  $D3A8
B789: 29 07    and  #$07
B78B: F0 F9    beq  $B786
B78D: 9D 82 1C sta  $1C82,x
B790: 20 A8 D3 jsr  $D3A8
B793: 29 0F    and  #$0F
B795: D0 0A    bne  $B7A1
B797: 20 A8 D3 jsr  $D3A8
B79A: 29 03    and  #$03
B79C: 85 A1    sta  $A1
B79E: 4C B2 B7 jmp  $B7B2
B7A1: A9 01    lda  #$01
B7A3: 85 B7    sta  $B7
B7A5: A0 00    ldy  #$00
B7A7: 20 6E BD jsr  $BD6E
B7AA: C9 0F    cmp  #$0F
B7AC: D0 02    bne  $B7B0
B7AE: A9 03    lda  #$03
B7B0: 85 A1    sta  $A1
B7B2: BD D4 1B lda  SPRITE_DIRECTION_1BD4,x
B7B5: 9D 2B 1C sta  $1C2B,x
B7B8: 85 A2    sta  $A2
B7BA: A5 A1    lda  $A1
B7BC: 9D D4 1B sta  SPRITE_DIRECTION_1BD4,x
B7BF: A5 A2    lda  $A2
B7C1: 0A       asl  a
B7C2: 0A       asl  a
B7C3: 0A       asl  a
B7C4: 0A       asl  a
B7C5: 18       clc  
B7C6: 65 A1    adc  $A1
B7C8: 38       sec  
B7C9: A4 A2    ldy  $A2
B7CB: F9 8F EC sbc  $EC8F,y
B7CE: A8       tay  
B7CF: B9 5D EC lda  $EC5D,y
B7D2: 85 B8    sta  $B8
B7D4: B9 76 EC lda  $EC76,y
B7D7: 85 B9    sta  $B9
B7D9: BD D4 1B lda  SPRITE_DIRECTION_1BD4,x
B7DC: 20 35 D1 jsr  $D135
B7DF: BD CF 1A lda  SPRITE_X,x
B7E2: 18       clc  
B7E3: 65 B8    adc  $B8
B7E5: 85 BE    sta  $BE
B7E7: 18       clc  
B7E8: 65 AB    adc  $AB
B7EA: 85 C0    sta  $C0
B7EC: BD 26 1B lda  SPRITE_Y,x
B7EF: 18       clc  
B7F0: 65 B9    adc  $B9
B7F2: 85 BF    sta  $BF
B7F4: 18       clc  
B7F5: 65 AC    adc  $AC
B7F7: 85 C1    sta  $C1
B7F9: 20 ED D1 jsr  $D1ED
B7FC: A5 A4    lda  $A4
B7FE: F0 1C    beq  $B81C
B800: BD 30 1D lda  $1D30,x
B803: F0 92    beq  $B797
B805: 20 53 D1 jsr  $D153
B808: BD CF 1A lda  SPRITE_X,x
B80B: 85 BE    sta  $BE
B80D: BD 26 1B lda  SPRITE_Y,x
B810: 85 BF    sta  $BF
B812: BD E3 1E lda  SPRITE_X_EXTENT,x
B815: 85 C0    sta  $C0
B817: BD 3A 1F lda  SPRITE_Y_EXTENT,x
B81A: 85 C1    sta  $C1
B81C: 20 AF E1 jsr  $E1AF
B81F: AD 3E 21 lda  $213E
B822: F0 0D    beq  $B831
B824: 20 A8 D3 jsr  $D3A8
B827: 29 01    and  #$01
B829: 18       clc  
B82A: 69 02    adc  #$02
B82C: 85 A1    sta  $A1
B82E: 4C BA B7 jmp  $B7BA
B831: A5 BE    lda  $BE
B833: 9D CF 1A sta  SPRITE_X,x
B836: A5 C0    lda  $C0
B838: 9D E3 1E sta  SPRITE_X_EXTENT,x
B83B: A5 BF    lda  $BF
B83D: 9D 26 1B sta  SPRITE_Y,x
B840: A5 C1    lda  $C1
B842: 9D 3A 1F sta  SPRITE_Y_EXTENT,x
B845: A9 00    lda  #$00
B847: 9D 30 1D sta  $1D30,x
B84A: 4C FC 91 jmp  $91FC
B84D: A9 03    lda  #$03
B84F: 9D 7D 1B sta  SPRITE_FRAMES_BEFORE_MOVE_1B7D,x
B852: BD 91 1F lda  SPRITE_STATE_1F91,x
B855: 29 02    and  #$02
B857: F0 0B    beq  $B864
B859: A9 02    lda  #$02
B85B: 20 95 E3 jsr  $E395
B85E: 20 1E D7 jsr  $D71E					; kill this sprite
B861: 4C FC 91 jmp  $91FC					; process next sprite
B864: BD D4 1B lda  SPRITE_DIRECTION_1BD4,x
B867: 85 AA    sta  $AA
B869: BD 2B 1C lda  $1C2B,x
B86C: 85 AB    sta  $AB
B86E: DE 82 1C dec  $1C82,x
B871: F0 08    beq  $B87B
B873: BD D4 1B lda  SPRITE_DIRECTION_1BD4,x
B876: 85 A1    sta  $A1
B878: 4C A8 B8 jmp  $B8A8
B87B: 20 A8 D3 jsr  $D3A8
B87E: 29 03    and  #$03
B880: 18       clc  
B881: 69 02    adc  #$02
B883: 9D 82 1C sta  $1C82,x
B886: 20 A8 D3 jsr  $D3A8
B889: 29 03    and  #$03
B88B: D0 0A    bne  $B897
B88D: 20 A8 D3 jsr  $D3A8
B890: 29 07    and  #$07
B892: 85 A1    sta  $A1
B894: 4C A8 B8 jmp  $B8A8
B897: A9 00    lda  #$00
B899: 85 B7    sta  $B7
B89B: A0 00    ldy  #$00
B89D: 20 6E BD jsr  $BD6E
B8A0: C9 0F    cmp  #$0F
B8A2: D0 02    bne  $B8A6
B8A4: A9 03    lda  #$03
B8A6: 85 A1    sta  $A1
B8A8: BD D4 1B lda  SPRITE_DIRECTION_1BD4,x
B8AB: 9D 2B 1C sta  $1C2B,x
B8AE: 85 A2    sta  $A2
B8B0: A5 A1    lda  $A1
B8B2: 9D D4 1B sta  SPRITE_DIRECTION_1BD4,x
B8B5: A4 A2    ldy  $A2
B8B7: D9 94 EC cmp  $EC94,y
B8BA: D0 0D    bne  $B8C9
B8BC: A5 AA    lda  $AA
B8BE: 9D D4 1B sta  SPRITE_DIRECTION_1BD4,x
B8C1: A5 AB    lda  $AB
B8C3: 9D 2B 1C sta  $1C2B,x
B8C6: 4C 8D B8 jmp  $B88D
B8C9: 20 E9 B9 jsr  $B9E9
B8CC: A4 A2    ldy  $A2
B8CE: 18       clc  
B8CF: BD CF 1A lda  SPRITE_X,x
B8D2: 79 9C EC adc  $EC9C,y
B8D5: 85 BE    sta  $BE
B8D7: 18       clc  
B8D8: BD E3 1E lda  SPRITE_X_EXTENT,x
B8DB: 79 9C EC adc  $EC9C,y
B8DE: 85 C0    sta  $C0
B8E0: 18       clc  
B8E1: BD 26 1B lda  SPRITE_Y,x
B8E4: 79 A4 EC adc  $ECA4,y
B8E7: 85 BF    sta  $BF
B8E9: 18       clc  
B8EA: BD 3A 1F lda  SPRITE_Y_EXTENT,x
B8ED: 79 A4 EC adc  $ECA4,y
B8F0: 85 C1    sta  $C1
B8F2: A4 A1    ldy  $A1
B8F4: A5 BE    lda  $BE
B8F6: 18       clc  
B8F7: 69 10    adc  #$10
B8F9: C9 15    cmp  #$15
B8FB: B0 0E    bcs  $B90B
B8FD: C0 03    cpy  #$03
B8FF: F0 42    beq  $B943
B901: C0 06    cpy  #$06
B903: F0 3E    beq  $B943
B905: C0 07    cpy  #$07
B907: F0 3A    beq  $B943
B909: D0 12    bne  $B91D
B90B: A5 C0    lda  $C0
B90D: C9 9A    cmp  #$9A
B90F: 90 0C    bcc  $B91D
B911: C0 02    cpy  #$02
B913: F0 2E    beq  $B943
B915: C0 04    cpy  #$04
B917: F0 2A    beq  $B943
B919: C0 05    cpy  #$05
B91B: F0 26    beq  $B943
B91D: A5 BF    lda  $BF
B91F: C9 17    cmp  #$17
B921: B0 0E    bcs  $B931
B923: C0 00    cpy  #$00
B925: F0 1C    beq  $B943
B927: C0 04    cpy  #$04
B929: F0 18    beq  $B943
B92B: C0 07    cpy  #$07
B92D: F0 14    beq  $B943
B92F: D0 1F    bne  $B950
B931: A5 C1    lda  $C1
B933: C9 B8    cmp  #$B8
B935: 90 19    bcc  $B950
B937: C0 01    cpy  #$01
B939: F0 08    beq  $B943
B93B: C0 05    cpy  #$05
B93D: F0 04    beq  $B943
B93F: C0 06    cpy  #$06
B941: D0 0D    bne  $B950
B943: A5 AA    lda  $AA
B945: 9D D4 1B sta  SPRITE_DIRECTION_1BD4,x
B948: A5 AB    lda  $AB
B94A: 9D 2B 1C sta  $1C2B,x
B94D: 4C 8D B8 jmp  $B88D
B950: 20 AF E1 jsr  $E1AF
B953: AD 3E 21 lda  $213E
B956: F0 12    beq  $B96A
B958: A9 01    lda  #$01
B95A: 9D 7D 1B sta  SPRITE_FRAMES_BEFORE_MOVE_1B7D,x
B95D: A5 AA    lda  $AA
B95F: 9D D4 1B sta  SPRITE_DIRECTION_1BD4,x
B962: A5 AB    lda  $AB
B964: 9D 2B 1C sta  $1C2B,x
B967: 4C FC 91 jmp  $91FC
B96A: A5 BE    lda  $BE
B96C: 9D CF 1A sta  SPRITE_X,x
B96F: A5 C0    lda  $C0
B971: 9D E3 1E sta  SPRITE_X_EXTENT,x
B974: A5 BF    lda  $BF
B976: 9D 26 1B sta  SPRITE_Y,x
B979: A5 C1    lda  $C1
B97B: 9D 3A 1F sta  SPRITE_Y_EXTENT,x
B97E: 4C FC 91 jmp  $91FC
B981: 86 A6    stx  $A6
B983: 20 34 92 jsr  $9234
B986: 30 5E    bmi  $B9E6
B988: A4 A6    ldy  $A6
B98A: B9 CF 1A lda  SPRITE_X,y
B98D: 9D CF 1A sta  SPRITE_X,x
B990: 18       clc  
B991: 69 07    adc  #$07
B993: 9D E3 1E sta  SPRITE_X_EXTENT,x
B996: B9 26 1B lda  SPRITE_Y,y
B999: 9D 26 1B sta  SPRITE_Y,x
B99C: 18       clc  
B99D: 69 0B    adc  #$0B
B99F: 9D 3A 1F sta  SPRITE_Y_EXTENT,x
B9A2: A9 01    lda  #$01
B9A4: 9D 91 1F sta  SPRITE_STATE_1F91,x
B9A7: A9 0D    lda  #$0D
B9A9: 9D 8C 1E sta  SPRITE_TYPE_1E8C,x
B9AC: 20 36 E1 jsr  $E136
B9AF: AD 3E 21 lda  $213E
B9B2: F0 07    beq  $B9BB
B9B4: 8A       txa  
B9B5: A8       tay  
B9B6: A6 A6    ldx  $A6
B9B8: 4C FB BA jmp  $BAFB
B9BB: A9 00    lda  #$00
B9BD: 85 B7    sta  $B7
B9BF: A0 00    ldy  #$00
B9C1: 20 6E BD jsr  $BD6E
B9C4: 85 A1    sta  $A1
B9C6: 85 A2    sta  $A2
B9C8: 9D D4 1B sta  SPRITE_DIRECTION_1BD4,x
B9CB: 9D 2B 1C sta  $1C2B,x
B9CE: 20 E9 B9 jsr  $B9E9
B9D1: 20 A8 D3 jsr  $D3A8
B9D4: 29 07    and  #$07
B9D6: 18       clc  
B9D7: 69 01    adc  #$01
B9D9: 9D 82 1C sta  $1C82,x
B9DC: A9 01    lda  #$01
B9DE: 9D 7D 1B sta  SPRITE_FRAMES_BEFORE_MOVE_1B7D,x
B9E1: A9 12    lda  #$12
B9E3: 20 95 E3 jsr  $E395
B9E6: A6 A6    ldx  $A6
B9E8: 60       rts  
B9E9: A5 A2    lda  $A2
B9EB: 0A       asl  a
B9EC: 0A       asl  a
B9ED: 0A       asl  a
B9EE: 18       clc  
B9EF: 65 A1    adc  $A1
B9F1: A8       tay  
B9F2: B9 B4 EC lda  $ECB4,y
B9F5: 9D D9 1C sta  SPRITE_ANIM_FRAME_1CD9,x
B9F8: B9 F4 EC lda  $ECF4,y
B9FB: A8       tay  
B9FC: B9 AC EC lda  $ECAC,y
B9FF: 9D 30 1D sta  $1D30,x
BA02: 60       rts  
BA03: A5 B3    lda  $B3
BA05: 0A       asl  a
BA06: 0A       asl  a
BA07: 0A       asl  a
BA08: 0A       asl  a
BA09: 0A       asl  a
BA0A: 85 B3    sta  $B3
BA0C: A5 B1    lda  $B1
BA0E: 29 1F    and  #$1F
BA10: 05 B3    ora  $B3
BA12: 9D D4 1B sta  SPRITE_DIRECTION_1BD4,x
BA15: A5 B4    lda  $B4
BA17: 0A       asl  a
BA18: 0A       asl  a
BA19: 0A       asl  a
BA1A: 0A       asl  a
BA1B: 0A       asl  a
BA1C: 85 B4    sta  $B4
BA1E: A5 B2    lda  $B2
BA20: 29 1F    and  #$1F
BA22: 05 B4    ora  $B4
BA24: 9D 2B 1C sta  $1C2B,x
BA27: 60       rts  
BA28: BD D4 1B lda  SPRITE_DIRECTION_1BD4,x
BA2B: 85 B3    sta  $B3
BA2D: 29 1F    and  #$1F
BA2F: 85 B1    sta  $B1
BA31: 29 10    and  #$10
BA33: F0 06    beq  $BA3B
BA35: A5 B1    lda  $B1
BA37: 09 F0    ora  #$F0
BA39: 85 B1    sta  $B1
BA3B: BD 2B 1C lda  $1C2B,x
BA3E: 85 B4    sta  $B4
BA40: 29 1F    and  #$1F
BA42: 85 B2    sta  $B2
BA44: 29 10    and  #$10
BA46: F0 06    beq  $BA4E
BA48: A5 B2    lda  $B2
BA4A: 09 F0    ora  #$F0
BA4C: 85 B2    sta  $B2
BA4E: A5 B3    lda  $B3
BA50: 30 07    bmi  $BA59
BA52: 4A       lsr  a
BA53: 4A       lsr  a
BA54: 4A       lsr  a
BA55: 4A       lsr  a
BA56: 4A       lsr  a
BA57: 10 07    bpl  $BA60
BA59: 4A       lsr  a
BA5A: 4A       lsr  a
BA5B: 4A       lsr  a
BA5C: 4A       lsr  a
BA5D: 4A       lsr  a
BA5E: 09 F8    ora  #$F8
BA60: 85 B3    sta  $B3
BA62: A5 B4    lda  $B4
BA64: 30 07    bmi  $BA6D
BA66: 4A       lsr  a
BA67: 4A       lsr  a
BA68: 4A       lsr  a
BA69: 4A       lsr  a
BA6A: 4A       lsr  a
BA6B: 10 07    bpl  $BA74
BA6D: 4A       lsr  a
BA6E: 4A       lsr  a
BA6F: 4A       lsr  a
BA70: 4A       lsr  a
BA71: 4A       lsr  a
BA72: 09 F8    ora  #$F8
BA74: 85 B4    sta  $B4
BA76: 60       rts  
BA77: 86 A2    stx  $A2
BA79: 20 34 92 jsr  $9234
BA7C: A6 A2    ldx  $A2
BA7E: A8       tay  
BA7F: 10 03    bpl  $BA84
BA81: 4C 0C BB jmp  $BB0C
BA84: A9 01    lda  #$01
BA86: 99 91 1F sta  SPRITE_STATE_1F91,y
BA89: BD CF 1A lda  SPRITE_X,x
BA8C: 99 CF 1A sta  SPRITE_X,y
BA8F: 18       clc  
BA90: 69 07    adc  #$07
BA92: 99 E3 1E sta  SPRITE_X_EXTENT,y
BA95: BD 26 1B lda  SPRITE_Y,x
BA98: 99 26 1B sta  SPRITE_Y,y
BA9B: 18       clc  
BA9C: 69 0A    adc  #$0A
BA9E: 99 3A 1F sta  SPRITE_Y_EXTENT,y
BAA1: A9 08    lda  #$08
BAA3: 99 8C 1E sta  SPRITE_TYPE_1E8C,y
BAA6: 84 A4    sty  $A4
BAA8: 86 A5    stx  $A5
BAAA: 98       tya  
BAAB: AA       tax  
BAAC: 20 36 E1 jsr  $E136
BAAF: A4 A4    ldy  $A4
BAB1: A6 A5    ldx  $A5
BAB3: AD 3E 21 lda  $213E
BAB6: D0 43    bne  $BAFB
BAB8: A9 00    lda  #$00
BABA: 99 D9 1C sta  SPRITE_ANIM_FRAME_1CD9,y
BABD: A9 00    lda  #$00
BABF: 99 D4 1B sta  SPRITE_DIRECTION_1BD4,y
BAC2: 99 2B 1C sta  $1C2B,y
BAC5: A9 01    lda  #$01
BAC7: 99 82 1C sta  $1C82,y
BACA: A9 04    lda  #$04
BACC: 99 7D 1B sta  SPRITE_FRAMES_BEFORE_MOVE_1B7D,y
BACF: 99 30 1D sta  $1D30,y
BAD2: A0 07    ldy  #$07
BAD4: B9 26 19 lda  $1926,y
BAD7: 30 03    bmi  $BADC
BAD9: 88       dey  
BADA: D0 F8    bne  $BAD4
BADC: A9 04    lda  #$04
BADE: 99 26 19 sta  $1926,y
BAE1: 98       tya  
BAE2: 18       clc  
BAE3: 6A       ror  a
BAE4: 6A       ror  a
BAE5: 6A       ror  a
BAE6: 6A       ror  a
BAE7: A4 A4    ldy  $A4
BAE9: 19 8C 1E ora  SPRITE_TYPE_1E8C,y
BAEC: 99 8C 1E sta  SPRITE_TYPE_1E8C,y
BAEF: E6 ED    inc  $ED
BAF1: E6 C9    inc  $C9
BAF3: A9 0A    lda  #$0A
BAF5: 20 95 E3 jsr  $E395
BAF8: A9 00    lda  #$00
BAFA: 60       rts  
BAFB: A5 EF    lda  $EF
BAFD: 84 EF    sty  $EF
BAFF: 99 30 1D sta  $1D30,y
BB02: A9 00    lda  #$00
BB04: 99 91 1F sta  SPRITE_STATE_1F91,y
BB07: 99 8C 1E sta  SPRITE_TYPE_1E8C,y
BB0A: A9 80    lda  #$80
BB0C: 60       rts  
BB0D: BD 91 1F lda  SPRITE_STATE_1F91,x
BB10: C9 03    cmp  #$03
BB12: F0 05    beq  $BB19
BB14: DE 30 1D dec  $1D30,x
BB17: D0 08    bne  $BB21
BB19: 20 1E D7 jsr  $D71E						; kill this sprite
BB1C: C6 7D    dec  $7D
BB1E: 4C FC 91 jmp  $91FC
BB21: BD CF 1A lda  SPRITE_X,x
BB24: 18       clc  
BB25: 7D D4 1B adc  SPRITE_DIRECTION_1BD4,x
BB28: 85 BE    sta  $BE
BB2A: 18       clc  
BB2B: 69 04    adc  #$04
BB2D: 85 C0    sta  $C0
BB2F: BD 26 1B lda  SPRITE_Y,x
BB32: 18       clc  
BB33: 7D 2B 1C adc  $1C2B,x
BB36: 85 BF    sta  $BF
BB38: 18       clc  
BB39: 69 05    adc  #$05
BB3B: 85 C1    sta  $C1
BB3D: A5 BE    lda  $BE
BB3F: 18       clc  
BB40: 69 10    adc  #$10
BB42: C9 12    cmp  #$12
BB44: 90 06    bcc  $BB4C
BB46: A5 C0    lda  $C0
BB48: C9 9C    cmp  #$9C
BB4A: 90 11    bcc  $BB5D
BB4C: 38       sec  
BB4D: A9 00    lda  #$00
BB4F: FD D4 1B sbc  SPRITE_DIRECTION_1BD4,x
BB52: 9D D4 1B sta  SPRITE_DIRECTION_1BD4,x
BB55: A9 0E    lda  #$0E
BB57: 20 95 E3 jsr  $E395
BB5A: 4C 21 BB jmp  $BB21
BB5D: A5 BF    lda  $BF
BB5F: C9 12    cmp  #$12
BB61: 90 06    bcc  $BB69
BB63: A5 C1    lda  $C1
BB65: C9 BC    cmp  #$BC
BB67: 90 11    bcc  $BB7A
BB69: 38       sec  
BB6A: A9 00    lda  #$00
BB6C: FD 2B 1C sbc  $1C2B,x
BB6F: 9D 2B 1C sta  $1C2B,x
BB72: A9 0E    lda  #$0E
BB74: 20 95 E3 jsr  $E395
BB77: 4C 21 BB jmp  $BB21
BB7A: 20 AF E1 jsr  $E1AF
BB7D: AD 3E 21 lda  $213E
BB80: F0 03    beq  $BB85
BB82: 4C 19 BB jmp  $BB19
BB85: BD 82 1C lda  $1C82,x
BB88: 9D 7D 1B sta  SPRITE_FRAMES_BEFORE_MOVE_1B7D,x
BB8B: A5 BE    lda  $BE
BB8D: 9D CF 1A sta  SPRITE_X,x
BB90: A5 C0    lda  $C0
BB92: 9D E3 1E sta  SPRITE_X_EXTENT,x
BB95: A5 BF    lda  $BF
BB97: 9D 26 1B sta  SPRITE_Y,x
BB9A: A5 C1    lda  $C1
BB9C: 9D 3A 1F sta  SPRITE_Y_EXTENT,x
BB9F: 4C FC 91 jmp  $91FC
BBA2: 86 A6    stx  $A6
BBA4: 20 34 92 jsr  $9234
BBA7: 10 03    bpl  $BBAC
BBA9: 4C D9 BC jmp  $BCD9
BBAC: A4 A6    ldy  $A6
BBAE: B9 CF 1A lda  SPRITE_X,y
BBB1: 18       clc  
BBB2: 69 02    adc  #$02
BBB4: 9D CF 1A sta  SPRITE_X,x
BBB7: 18       clc  
BBB8: 69 04    adc  #$04
BBBA: 9D E3 1E sta  SPRITE_X_EXTENT,x
BBBD: B9 26 1B lda  SPRITE_Y,y
BBC0: 18       clc  
BBC1: 69 06    adc  #$06
BBC3: 9D 26 1B sta  SPRITE_Y,x
BBC6: 18       clc  
BBC7: 69 05    adc  #$05
BBC9: 9D 3A 1F sta  SPRITE_Y_EXTENT,x
BBCC: A9 01    lda  #$01
BBCE: 9D 91 1F sta  SPRITE_STATE_1F91,x
BBD1: A9 0E    lda  #$0E
BBD3: 9D 8C 1E sta  SPRITE_TYPE_1E8C,x
BBD6: 20 36 E1 jsr  $E136
BBD9: AD 3E 21 lda  $213E
BBDC: F0 07    beq  $BBE5
BBDE: 8A       txa  
BBDF: A8       tay  
BBE0: A6 A6    ldx  $A6
BBE2: 4C FB BA jmp  $BAFB
BBE5: 20 A8 D3 jsr  $D3A8
BBE8: 29 03    and  #$03
BBEA: F0 03    beq  $BBEF
BBEC: 4C 99 BC jmp  $BC99
BBEF: 20 A8 D3 jsr  $D3A8
BBF2: 29 03    and  #$03
BBF4: D0 2E    bne  $BC24
BBF6: 20 A8 D3 jsr  $D3A8
BBF9: 29 03    and  #$03
BBFB: A8       tay  
BBFC: C0 00    cpy  #$00
BBFE: D0 07    bne  $BC07
BC00: A9 02    lda  #$02
BC02: 85 B8    sta  $B8
BC04: 4C 62 BC jmp  $BC62
BC07: C0 01    cpy  #$01
BC09: D0 07    bne  $BC12
BC0B: A9 9C    lda  #$9C
BC0D: 85 B8    sta  $B8
BC0F: 4C 62 BC jmp  $BC62
BC12: C0 02    cpy  #$02
BC14: D0 07    bne  $BC1D
BC16: A9 12    lda  #$12
BC18: 85 B9    sta  $B9
BC1A: 4C 7D BC jmp  $BC7D
BC1D: A9 BC    lda  #$BC
BC1F: 85 B9    sta  $B9
BC21: 4C 7D BC jmp  $BC7D
BC24: AD CF 1A lda  SPRITE_X
BC27: C9 4D    cmp  #$4D
BC29: B0 0B    bcs  $BC36
BC2B: 38       sec  
BC2C: E9 02    sbc  #$02
BC2E: 85 A1    sta  $A1
BC30: A9 02    lda  #$02
BC32: 85 B8    sta  $B8
BC34: D0 0A    bne  $BC40
BC36: 38       sec  
BC37: A9 9C    lda  #$9C
BC39: 85 B8    sta  $B8
BC3B: ED CF 1A sbc  SPRITE_X
BC3E: 85 A1    sta  $A1
BC40: AD 26 1B lda  SPRITE_Y
BC43: C9 67    cmp  #$67
BC45: B0 0B    bcs  $BC52
BC47: 38       sec  
BC48: E9 12    sbc  #$12
BC4A: 85 A2    sta  $A2
BC4C: A9 12    lda  #$12
BC4E: 85 B9    sta  $B9
BC50: D0 0A    bne  $BC5C
BC52: 38       sec  
BC53: A9 BC    lda  #$BC
BC55: 85 B9    sta  $B9
BC57: ED 26 1B sbc  SPRITE_Y
BC5A: 85 A2    sta  $A2
BC5C: A5 A1    lda  $A1
BC5E: C5 A2    cmp  $A2
BC60: B0 1B    bcs  $BC7D
BC62: AD 26 1B lda  SPRITE_Y
BC65: 85 B7    sta  $B7
BC67: 4A       lsr  a
BC68: 85 A1    sta  $A1
BC6A: 86 A3    stx  $A3
BC6C: A6 A6    ldx  $A6
BC6E: BD 26 1B lda  SPRITE_Y,x
BC71: 4A       lsr  a
BC72: 38       sec  
BC73: E5 A1    sbc  $A1
BC75: 18       clc  
BC76: 65 B7    adc  $B7
BC78: 85 B9    sta  $B9
BC7A: 4C 95 BC jmp  $BC95
BC7D: AD CF 1A lda  SPRITE_X
BC80: 85 B7    sta  $B7
BC82: 4A       lsr  a
BC83: 85 A1    sta  $A1
BC85: 86 A3    stx  $A3
BC87: A6 A6    ldx  $A6
BC89: BD CF 1A lda  SPRITE_X,x
BC8C: 4A       lsr  a
BC8D: 38       sec  
BC8E: E5 A1    sbc  $A1
BC90: 18       clc  
BC91: 65 B7    adc  $B7
BC93: 85 B8    sta  $B8
BC95: A6 A3    ldx  $A3
BC97: D0 10    bne  $BCA9
BC99: AD CF 1A lda  SPRITE_X
BC9C: 18       clc  
BC9D: 69 02    adc  #$02
BC9F: 85 B8    sta  $B8
BCA1: AD 26 1B lda  SPRITE_Y
BCA4: 18       clc  
BCA5: 69 04    adc  #$04
BCA7: 85 B9    sta  $B9
BCA9: A9 80    lda  #$80
BCAB: 85 B7    sta  $B7
BCAD: 20 DC BC jsr  $BCDC
BCB0: A5 AA    lda  $AA
BCB2: C9 02    cmp  #$02
BCB4: B0 02    bcs  $BCB8
BCB6: A9 02    lda  #$02
BCB8: 9D 82 1C sta  $1C82,x
BCBB: 9D 7D 1B sta  SPRITE_FRAMES_BEFORE_MOVE_1B7D,x
BCBE: A5 B1    lda  $B1
BCC0: 9D D4 1B sta  SPRITE_DIRECTION_1BD4,x
BCC3: A5 B2    lda  $B2
BCC5: 9D 2B 1C sta  $1C2B,x
BCC8: A9 00    lda  #$00
BCCA: 9D D9 1C sta  SPRITE_ANIM_FRAME_1CD9,x
BCCD: A9 24    lda  #$24
BCCF: 9D 30 1D sta  $1D30,x
BCD2: A9 13    lda  #$13
BCD4: 20 95 E3 jsr  $E395
BCD7: E6 7D    inc  $7D
BCD9: A6 A6    ldx  $A6
BCDB: 60       rts  
BCDC: 38       sec  
BCDD: A5 B8    lda  $B8
BCDF: FD CF 1A sbc  SPRITE_X,x
BCE2: 85 B1    sta  $B1
BCE4: A9 00    lda  #$00
BCE6: 2A       rol  a
BCE7: 85 A2    sta  $A2
BCE9: 38       sec  
BCEA: A5 B9    lda  $B9
BCEC: FD 26 1B sbc  SPRITE_Y,x
BCEF: 85 B2    sta  $B2
BCF1: A9 00    lda  #$00
BCF3: 2A       rol  a
BCF4: 85 A4    sta  $A4
BCF6: D0 07    bne  $BCFF
BCF8: 38       sec  
BCF9: A9 00    lda  #$00
BCFB: E5 B2    sbc  $B2
BCFD: 85 B2    sta  $B2
BCFF: A5 A2    lda  $A2
BD01: D0 07    bne  $BD0A
BD03: A9 00    lda  #$00
BD05: 38       sec  
BD06: E5 B1    sbc  $B1
BD08: 85 B1    sta  $B1
BD0A: 18       clc  
BD0B: A5 B1    lda  $B1
BD0D: 65 B2    adc  $B2
BD0F: 6A       ror  a
BD10: 85 A5    sta  $A5
BD12: A9 00    lda  #$00
BD14: 85 AA    sta  $AA
BD16: A5 A5    lda  $A5
BD18: E6 AA    inc  $AA
BD1A: 4A       lsr  a
BD1B: D0 FB    bne  $BD18
BD1D: A9 0A    lda  #$0A
BD1F: 85 A1    sta  $A1
BD21: A5 B7    lda  $B7
BD23: 10 04    bpl  $BD29
BD25: A9 09    lda  #$09
BD27: 85 A1    sta  $A1
BD29: 38       sec  
BD2A: A5 A1    lda  $A1
BD2C: E5 AA    sbc  $AA
BD2E: 85 AA    sta  $AA
BD30: A9 09    lda  #$09
BD32: 85 A1    sta  $A1
BD34: A5 B7    lda  $B7
BD36: F0 06    beq  $BD3E
BD38: 30 04    bmi  $BD3E
BD3A: A9 05    lda  #$05
BD3C: 85 A1    sta  $A1
BD3E: A5 B1    lda  $B1
BD40: C5 A1    cmp  $A1
BD42: B0 06    bcs  $BD4A
BD44: A5 B2    lda  $B2
BD46: C5 A1    cmp  $A1
BD48: 90 0D    bcc  $BD57
BD4A: A5 B1    lda  $B1
BD4C: 4A       lsr  a
BD4D: 85 B1    sta  $B1
BD4F: A5 B2    lda  $B2
BD51: 4A       lsr  a
BD52: 85 B2    sta  $B2
BD54: 4C 3E BD jmp  $BD3E
BD57: A5 A2    lda  $A2
BD59: D0 07    bne  $BD62
BD5B: A9 00    lda  #$00
BD5D: 38       sec  
BD5E: E5 B1    sbc  $B1
BD60: 85 B1    sta  $B1
BD62: A5 A4    lda  $A4
BD64: D0 07    bne  $BD6D
BD66: A9 00    lda  #$00
BD68: 38       sec  
BD69: E5 B2    sbc  $B2
BD6B: 85 B2    sta  $B2
BD6D: 60       rts  

BD6E: A9 00    lda  #$00
BD70: 85 B8    sta  $B8
BD72: 85 B9    sta  $B9
BD74: B9 CF 1A lda  SPRITE_X,y
BD77: DD E3 1E cmp  SPRITE_X_EXTENT,x
BD7A: 90 02    bcc  $BD7E
BD7C: E6 B8    inc  $B8
BD7E: B9 E3 1E lda  SPRITE_X_EXTENT,y
BD81: DD CF 1A cmp  SPRITE_X,x
BD84: B0 02    bcs  $BD88
BD86: C6 B8    dec  $B8
BD88: B9 26 1B lda  SPRITE_Y,y
BD8B: DD 3A 1F cmp  SPRITE_Y_EXTENT,x
BD8E: 90 02    bcc  $BD92
BD90: E6 B9    inc  $B9
BD92: B9 3A 1F lda  SPRITE_Y_EXTENT,y
BD95: DD 26 1B cmp  SPRITE_Y,x
BD98: B0 02    bcs  $BD9C
BD9A: C6 B9    dec  $B9
BD9C: A9 0F    lda  #$0F
BD9E: 85 A0    sta  $A0
BDA0: A5 B8    lda  $B8
BDA2: 10 06    bpl  $BDAA
BDA4: A9 0B    lda  #$0B
BDA6: 85 A0    sta  $A0
BDA8: D0 06    bne  $BDB0
BDAA: F0 04    beq  $BDB0
BDAC: A9 07    lda  #$07
BDAE: 85 A0    sta  $A0
BDB0: A5 B9    lda  $B9
BDB2: 10 08    bpl  $BDBC
BDB4: A5 A0    lda  $A0
BDB6: 29 0E    and  #$0E
BDB8: 85 A0    sta  $A0
BDBA: D0 08    bne  $BDC4
BDBC: F0 06    beq  $BDC4
BDBE: A5 A0    lda  $A0
BDC0: 29 0D    and  #$0D
BDC2: 85 A0    sta  $A0
BDC4: 84 A1    sty  $A1
BDC6: A5 B7    lda  $B7
BDC8: F0 1B    beq  $BDE5
BDCA: A4 A0    ldy  $A0
BDCC: C0 0B    cpy  #$0B
BDCE: B0 15    bcs  $BDE5
BDD0: C0 07    cpy  #$07
BDD2: F0 11    beq  $BDE5
BDD4: 20 A8 D3 jsr  $D3A8
BDD7: 29 01    and  #$01
BDD9: D0 05    bne  $BDE0
BDDB: 98       tya  
BDDC: 09 03    ora  #$03
BDDE: D0 03    bne  $BDE3
BDE0: 98       tya  
BDE1: 09 0C    ora  #$0C
BDE3: 85 A0    sta  $A0
BDE5: A5 A0    lda  $A0
BDE7: C9 0F    cmp  #$0F
BDE9: F0 06    beq  $BDF1
BDEB: A8       tay  
BDEC: B9 05 EC lda  $EC05,y
BDEF: A4 A1    ldy  $A1
BDF1: 60       rts  
BDF2: FF       ill  $FF
BDF3: FF       ill  $FF
BDF4: FF       ill  $FF
BDF5: FF       ill  $FF
BDF6: FF       ill  $FF
BDF7: FF       ill  $FF
BDF8: FF       ill  $FF
BDF9: FF       ill  $FF
BDFA: FF       ill  $FF
BDFB: FF       ill  $FF
BDFC: FF       ill  $FF
BDFD: FF       ill  $FF
BDFE: FF       ill  $FF
BDFF: FF       ill  $FF
BE00: FF       ill  $FF
BE01: FF       ill  $FF
BE02: FF       ill  $FF
BE03: FF       ill  $FF
BE04: FF       ill  $FF
BE05: FF       ill  $FF
BE06: FF       ill  $FF
BE07: FF       ill  $FF
BE08: FF       ill  $FF
BE09: FF       ill  $FF
BE0A: FF       ill  $FF
BE0B: FF       ill  $FF
BE0C: FF       ill  $FF
BE0D: FF       ill  $FF
BE0E: FF       ill  $FF
BE0F: FF       ill  $FF
BE10: FF       ill  $FF
BE11: FF       ill  $FF
BE12: FF       ill  $FF
BE13: FF       ill  $FF
BE14: FF       ill  $FF
BE15: FF       ill  $FF
BE16: FF       ill  $FF
BE17: FF       ill  $FF
BE18: FF       ill  $FF
BE19: FF       ill  $FF
BE1A: FF       ill  $FF
BE1B: FF       ill  $FF
BE1C: FF       ill  $FF
BE1D: FF       ill  $FF
BE1E: FF       ill  $FF
BE1F: FF       ill  $FF
BE20: FF       ill  $FF
BE21: FF       ill  $FF
BE22: FF       ill  $FF
BE23: FF       ill  $FF
BE24: FF       ill  $FF
BE25: FF       ill  $FF
BE26: FF       ill  $FF
BE27: FF       ill  $FF
BE28: FF       ill  $FF
BE29: FF       ill  $FF
BE2A: FF       ill  $FF
BE2B: FF       ill  $FF
BE2C: FF       ill  $FF
BE2D: FF       ill  $FF
BE2E: FF       ill  $FF
BE2F: FF       ill  $FF
BE30: FF       ill  $FF
BE31: FF       ill  $FF
BE32: FF       ill  $FF
BE33: FF       ill  $FF
BE34: FF       ill  $FF
BE35: FF       ill  $FF
BE36: FF       ill  $FF
BE37: FF       ill  $FF
BE38: FF       ill  $FF
BE39: FF       ill  $FF
BE3A: FF       ill  $FF
BE3B: FF       ill  $FF
BE3C: FF       ill  $FF
BE3D: FF       ill  $FF
BE3E: FF       ill  $FF
BE3F: FF       ill  $FF
BE40: FF       ill  $FF
BE41: FF       ill  $FF
BE42: FF       ill  $FF
BE43: FF       ill  $FF
BE44: FF       ill  $FF
BE45: FF       ill  $FF
BE46: FF       ill  $FF
BE47: FF       ill  $FF
BE48: FF       ill  $FF
BE49: FF       ill  $FF
BE4A: FF       ill  $FF
BE4B: FF       ill  $FF
BE4C: FF       ill  $FF
BE4D: FF       ill  $FF
BE4E: FF       ill  $FF
BE4F: FF       ill  $FF
BE50: FF       ill  $FF
BE51: FF       ill  $FF
BE52: FF       ill  $FF
BE53: FF       ill  $FF
BE54: FF       ill  $FF
BE55: FF       ill  $FF
BE56: FF       ill  $FF
BE57: FF       ill  $FF
BE58: FF       ill  $FF
BE59: FF       ill  $FF
BE5A: FF       ill  $FF
BE5B: FF       ill  $FF
BE5C: FF       ill  $FF
BE5D: FF       ill  $FF
BE5E: FF       ill  $FF
BE5F: FF       ill  $FF
BE60: FF       ill  $FF
BE61: FF       ill  $FF
BE62: FF       ill  $FF
BE63: FF       ill  $FF
BE64: FF       ill  $FF
BE65: FF       ill  $FF
BE66: FF       ill  $FF
BE67: FF       ill  $FF
BE68: FF       ill  $FF
BE69: FF       ill  $FF
BE6A: FF       ill  $FF
BE6B: FF       ill  $FF
BE6C: FF       ill  $FF
BE6D: FF       ill  $FF
BE6E: FF       ill  $FF
BE6F: FF       ill  $FF
BE70: FF       ill  $FF
BE71: FF       ill  $FF
BE72: FF       ill  $FF
BE73: FF       ill  $FF
BE74: FF       ill  $FF
BE75: FF       ill  $FF
BE76: FF       ill  $FF
BE77: FF       ill  $FF
BE78: FF       ill  $FF
BE79: FF       ill  $FF
BE7A: FF       ill  $FF
BE7B: FF       ill  $FF
BE7C: FF       ill  $FF
BE7D: FF       ill  $FF
BE7E: FF       ill  $FF
BE7F: FF       ill  $FF
BE80: FF       ill  $FF
BE81: FF       ill  $FF
BE82: FF       ill  $FF
BE83: FF       ill  $FF
BE84: FF       ill  $FF
BE85: FF       ill  $FF
BE86: FF       ill  $FF
BE87: FF       ill  $FF
BE88: FF       ill  $FF
BE89: FF       ill  $FF
BE8A: FF       ill  $FF
BE8B: FF       ill  $FF
BE8C: FF       ill  $FF
BE8D: FF       ill  $FF
BE8E: FF       ill  $FF
BE8F: FF       ill  $FF
BE90: FF       ill  $FF
BE91: FF       ill  $FF
BE92: FF       ill  $FF
BE93: FF       ill  $FF
BE94: FF       ill  $FF
BE95: FF       ill  $FF
BE96: FF       ill  $FF
BE97: FF       ill  $FF
BE98: FF       ill  $FF
BE99: FF       ill  $FF
BE9A: FF       ill  $FF
BE9B: FF       ill  $FF
BE9C: FF       ill  $FF
BE9D: FF       ill  $FF
BE9E: FF       ill  $FF
BE9F: FF       ill  $FF
BEA0: FF       ill  $FF
BEA1: FF       ill  $FF
BEA2: FF       ill  $FF
BEA3: FF       ill  $FF
BEA4: FF       ill  $FF
BEA5: FF       ill  $FF
BEA6: FF       ill  $FF
BEA7: FF       ill  $FF
BEA8: FF       ill  $FF
BEA9: FF       ill  $FF
BEAA: FF       ill  $FF
BEAB: FF       ill  $FF
BEAC: FF       ill  $FF
BEAD: FF       ill  $FF
BEAE: FF       ill  $FF
BEAF: FF       ill  $FF
BEB0: FF       ill  $FF
BEB1: FF       ill  $FF
BEB2: FF       ill  $FF
BEB3: FF       ill  $FF
BEB4: FF       ill  $FF
BEB5: FF       ill  $FF
BEB6: FF       ill  $FF
BEB7: FF       ill  $FF
BEB8: FF       ill  $FF
BEB9: FF       ill  $FF
BEBA: FF       ill  $FF
BEBB: FF       ill  $FF
BEBC: FF       ill  $FF
BEBD: FF       ill  $FF
BEBE: FF       ill  $FF
BEBF: FF       ill  $FF
BEC0: FF       ill  $FF
BEC1: FF       ill  $FF
BEC2: FF       ill  $FF
BEC3: FF       ill  $FF
BEC4: FF       ill  $FF
BEC5: FF       ill  $FF
BEC6: FF       ill  $FF
BEC7: FF       ill  $FF
BEC8: FF       ill  $FF
BEC9: FF       ill  $FF
BECA: FF       ill  $FF
BECB: FF       ill  $FF
BECC: FF       ill  $FF
BECD: FF       ill  $FF
BECE: FF       ill  $FF
BECF: FF       ill  $FF
BED0: FF       ill  $FF
BED1: FF       ill  $FF
BED2: FF       ill  $FF
BED3: FF       ill  $FF
BED4: FF       ill  $FF
BED5: FF       ill  $FF
BED6: FF       ill  $FF
BED7: FF       ill  $FF
BED8: FF       ill  $FF
BED9: FF       ill  $FF
BEDA: FF       ill  $FF
BEDB: FF       ill  $FF
BEDC: FF       ill  $FF
BEDD: FF       ill  $FF
BEDE: FF       ill  $FF
BEDF: FF       ill  $FF
BEE0: FF       ill  $FF
BEE1: FF       ill  $FF
BEE2: FF       ill  $FF
BEE3: FF       ill  $FF
BEE4: FF       ill  $FF
BEE5: FF       ill  $FF
BEE6: FF       ill  $FF
BEE7: FF       ill  $FF
BEE8: FF       ill  $FF
BEE9: FF       ill  $FF
BEEA: FF       ill  $FF
BEEB: FF       ill  $FF
BEEC: FF       ill  $FF
BEED: FF       ill  $FF
BEEE: FF       ill  $FF
BEEF: FF       ill  $FF
BEF0: FF       ill  $FF
BEF1: FF       ill  $FF
BEF2: FF       ill  $FF
BEF3: FF       ill  $FF
BEF4: FF       ill  $FF
BEF5: FF       ill  $FF
BEF6: FF       ill  $FF
BEF7: FF       ill  $FF
BEF8: FF       ill  $FF
BEF9: FF       ill  $FF
BEFA: FF       ill  $FF
BEFB: FF       ill  $FF
BEFC: FF       ill  $FF
BEFD: FF       ill  $FF
BEFE: FF       ill  $FF
BEFF: FF       ill  $FF
BF00: FF       ill  $FF
BF01: FF       ill  $FF
BF02: FF       ill  $FF
BF03: FF       ill  $FF
BF04: FF       ill  $FF
BF05: FF       ill  $FF
BF06: FF       ill  $FF
BF07: FF       ill  $FF
BF08: FF       ill  $FF
BF09: FF       ill  $FF
BF0A: FF       ill  $FF
BF0B: FF       ill  $FF
BF0C: FF       ill  $FF
BF0D: FF       ill  $FF
BF0E: FF       ill  $FF
BF0F: FF       ill  $FF
BF10: FF       ill  $FF
BF11: FF       ill  $FF
BF12: FF       ill  $FF
BF13: FF       ill  $FF
BF14: FF       ill  $FF
BF15: FF       ill  $FF
BF16: FF       ill  $FF
BF17: FF       ill  $FF
BF18: FF       ill  $FF
BF19: FF       ill  $FF
BF1A: FF       ill  $FF
BF1B: FF       ill  $FF
BF1C: FF       ill  $FF
BF1D: FF       ill  $FF
BF1E: FF       ill  $FF
BF1F: FF       ill  $FF
BF20: FF       ill  $FF
BF21: FF       ill  $FF
BF22: FF       ill  $FF
BF23: FF       ill  $FF
BF24: FF       ill  $FF
BF25: FF       ill  $FF
BF26: FF       ill  $FF
BF27: FF       ill  $FF
BF28: FF       ill  $FF
BF29: FF       ill  $FF
BF2A: FF       ill  $FF
BF2B: FF       ill  $FF
BF2C: FF       ill  $FF
BF2D: FF       ill  $FF
BF2E: FF       ill  $FF
BF2F: FF       ill  $FF
BF30: FF       ill  $FF
BF31: FF       ill  $FF
BF32: FF       ill  $FF
BF33: FF       ill  $FF
BF34: FF       ill  $FF
BF35: FF       ill  $FF
BF36: FF       ill  $FF
BF37: FF       ill  $FF
BF38: FF       ill  $FF
BF39: FF       ill  $FF
BF3A: FF       ill  $FF
BF3B: FF       ill  $FF
BF3C: FF       ill  $FF
BF3D: FF       ill  $FF
BF3E: FF       ill  $FF
BF3F: FF       ill  $FF
BF40: FF       ill  $FF
BF41: FF       ill  $FF
BF42: FF       ill  $FF
BF43: FF       ill  $FF
BF44: FF       ill  $FF
BF45: FF       ill  $FF
BF46: FF       ill  $FF
BF47: FF       ill  $FF
BF48: FF       ill  $FF
BF49: FF       ill  $FF
BF4A: FF       ill  $FF
BF4B: FF       ill  $FF
BF4C: FF       ill  $FF
BF4D: FF       ill  $FF
BF4E: FF       ill  $FF
BF4F: FF       ill  $FF
BF50: FF       ill  $FF
BF51: FF       ill  $FF
BF52: FF       ill  $FF
BF53: FF       ill  $FF
BF54: FF       ill  $FF
BF55: FF       ill  $FF
BF56: FF       ill  $FF
BF57: FF       ill  $FF
BF58: FF       ill  $FF
BF59: FF       ill  $FF
BF5A: FF       ill  $FF
BF5B: FF       ill  $FF
BF5C: FF       ill  $FF
BF5D: FF       ill  $FF
BF5E: FF       ill  $FF
BF5F: FF       ill  $FF
BF60: FF       ill  $FF
BF61: FF       ill  $FF
BF62: FF       ill  $FF
BF63: FF       ill  $FF
BF64: FF       ill  $FF
BF65: FF       ill  $FF
BF66: FF       ill  $FF
BF67: FF       ill  $FF
BF68: FF       ill  $FF
BF69: FF       ill  $FF
BF6A: FF       ill  $FF
BF6B: FF       ill  $FF
BF6C: FF       ill  $FF
BF6D: FF       ill  $FF
BF6E: FF       ill  $FF
BF6F: FF       ill  $FF
BF70: FF       ill  $FF
BF71: FF       ill  $FF
BF72: FF       ill  $FF
BF73: FF       ill  $FF
BF74: FF       ill  $FF
BF75: FF       ill  $FF
BF76: FF       ill  $FF
BF77: FF       ill  $FF
BF78: FF       ill  $FF
BF79: FF       ill  $FF
BF7A: FF       ill  $FF
BF7B: FF       ill  $FF
BF7C: FF       ill  $FF
BF7D: FF       ill  $FF
BF7E: FF       ill  $FF
BF7F: FF       ill  $FF
BF80: FF       ill  $FF
BF81: FF       ill  $FF
BF82: FF       ill  $FF
BF83: FF       ill  $FF
BF84: FF       ill  $FF
BF85: FF       ill  $FF
BF86: FF       ill  $FF
BF87: FF       ill  $FF
BF88: FF       ill  $FF
BF89: FF       ill  $FF
BF8A: FF       ill  $FF
BF8B: FF       ill  $FF
BF8C: FF       ill  $FF
BF8D: FF       ill  $FF
BF8E: FF       ill  $FF
BF8F: FF       ill  $FF
BF90: FF       ill  $FF
BF91: FF       ill  $FF
BF92: FF       ill  $FF
BF93: FF       ill  $FF
BF94: FF       ill  $FF
BF95: FF       ill  $FF
BF96: FF       ill  $FF
BF97: FF       ill  $FF
BF98: FF       ill  $FF
BF99: FF       ill  $FF
BF9A: FF       ill  $FF
BF9B: FF       ill  $FF
BF9C: FF       ill  $FF
BF9D: FF       ill  $FF
BF9E: FF       ill  $FF
BF9F: FF       ill  $FF
BFA0: FF       ill  $FF
BFA1: FF       ill  $FF
BFA2: FF       ill  $FF
BFA3: FF       ill  $FF
BFA4: FF       ill  $FF
BFA5: FF       ill  $FF
BFA6: FF       ill  $FF
BFA7: FF       ill  $FF
BFA8: FF       ill  $FF
BFA9: FF       ill  $FF
BFAA: FF       ill  $FF
BFAB: FF       ill  $FF
BFAC: FF       ill  $FF
BFAD: FF       ill  $FF
BFAE: FF       ill  $FF
BFAF: FF       ill  $FF
BFB0: FF       ill  $FF
BFB1: FF       ill  $FF
BFB2: FF       ill  $FF
BFB3: FF       ill  $FF
BFB4: FF       ill  $FF
BFB5: FF       ill  $FF
BFB6: FF       ill  $FF
BFB7: FF       ill  $FF
BFB8: FF       ill  $FF
BFB9: FF       ill  $FF
BFBA: FF       ill  $FF
BFBB: FF       ill  $FF
BFBC: FF       ill  $FF
BFBD: FF       ill  $FF
BFBE: FF       ill  $FF
BFBF: FF       ill  $FF
BFC0: FF       ill  $FF
BFC1: FF       ill  $FF
BFC2: FF       ill  $FF
BFC3: FF       ill  $FF
BFC4: FF       ill  $FF
BFC5: FF       ill  $FF
BFC6: FF       ill  $FF
BFC7: FF       ill  $FF
BFC8: FF       ill  $FF
BFC9: FF       ill  $FF
BFCA: FF       ill  $FF
BFCB: FF       ill  $FF
BFCC: FF       ill  $FF
BFCD: FF       ill  $FF
BFCE: FF       ill  $FF
BFCF: FF       ill  $FF
BFD0: FF       ill  $FF
BFD1: FF       ill  $FF
BFD2: FF       ill  $FF
BFD3: FF       ill  $FF
BFD4: FF       ill  $FF
BFD5: FF       ill  $FF
BFD6: FF       ill  $FF
BFD7: FF       ill  $FF
BFD8: FF       ill  $FF
BFD9: FF       ill  $FF
BFDA: FF       ill  $FF
BFDB: FF       ill  $FF
BFDC: FF       ill  $FF
BFDD: FF       ill  $FF
BFDE: FF       ill  $FF
BFDF: FF       ill  $FF
BFE0: FF       ill  $FF
BFE1: FF       ill  $FF
BFE2: FF       ill  $FF
BFE3: FF       ill  $FF
BFE4: FF       ill  $FF
BFE5: FF       ill  $FF
BFE6: FF       ill  $FF
BFE7: FF       ill  $FF
BFE8: FF       ill  $FF
BFE9: FF       ill  $FF
BFEA: FF       ill  $FF
BFEB: FF       ill  $FF
BFEC: FF       ill  $FF
BFED: FF       ill  $FF
BFEE: FF       ill  $FF
BFEF: FF       ill  $FF
BFF0: FF       ill  $FF
BFF1: FF       ill  $FF
BFF2: FF       ill  $FF
BFF3: FF       ill  $FF
BFF4: FF       ill  $FF
BFF5: FF       ill  $FF
BFF6: FF       ill  $FF
BFF7: FF       ill  $FF
BFF8: FF       ill  $FF
BFF9: FF       ill  $FF
BFFA: FF       ill  $FF
BFFB: FF       ill  $FF
BFFC: FF       ill  $FF
BFFD: FF       ill  $FF
BFFE: FF       ill  $FF
BFFF: FF       ill  $FF

C000: 00 00    brk  #$00
C002: 00 00    brk  #$00
C004: 00 00    brk  #$00
C006: 00 00    brk  #$00
C008: 00 00    brk  #$00
C00A: 00 00    brk  #$00
C00C: 00 00    brk  #$00
C00E: 00 00    brk  #$00
C010: 00 00    brk  #$00
C012: 00 00    brk  #$00
C014: 00 00    brk  #$00
C016: 00 00    brk  #$00
C018: 00 00    brk  #$00
C01A: 00 00    brk  #$00
C01C: 00 00    brk  #$00
C01E: 00 00    brk  #$00
C020: 00 00    brk  #$00
C022: 00 00    brk  #$00
C024: 00 00    brk  #$00
C026: 00 00    brk  #$00
C028: 00 00    brk  #$00
C02A: 00 00    brk  #$00
C02C: 00 00    brk  #$00
C02E: 00 00    brk  #$00
C030: 00 00    brk  #$00
C032: 00 00    brk  #$00
C034: 00 00    brk  #$00
C036: 00 00    brk  #$00
C038: 00 00    brk  #$00
C03A: 00 00    brk  #$00
C03C: 00 00    brk  #$00
C03E: 00 00    brk  #$00
C040: 00 00    brk  #$00
C042: 00 00    brk  #$00
C044: 00 00    brk  #$00
C046: 00 00    brk  #$00
C048: 00 00    brk  #$00
C04A: 00 00    brk  #$00
C04C: 00 00    brk  #$00
C04E: 00 00    brk  #$00
C050: 00 00    brk  #$00
C052: 00 00    brk  #$00
C054: 00 00    brk  #$00
C056: 00 00    brk  #$00
C058: 00 00    brk  #$00
C05A: 00 00    brk  #$00
C05C: 00 00    brk  #$00
C05E: 00 00    brk  #$00
C060: 00 00    brk  #$00
C062: 00 00    brk  #$00
C064: 00 00    brk  #$00
C066: 00 00    brk  #$00
C068: 00 00    brk  #$00
C06A: 00 00    brk  #$00
C06C: 00 00    brk  #$00
C06E: 00 00    brk  #$00
C070: 00 00    brk  #$00
C072: 00 00    brk  #$00
C074: 00 00    brk  #$00
C076: 00 00    brk  #$00
C078: 00 00    brk  #$00
C07A: 00 00    brk  #$00
C07C: 00 00    brk  #$00
C07E: 00 00    brk  #$00
C080: 00 00    brk  #$00
C082: 00 00    brk  #$00
C084: 00 00    brk  #$00
C086: 00 00    brk  #$00
C088: 00 00    brk  #$00
C08A: 00 00    brk  #$00
C08C: 00 00    brk  #$00
C08E: 00 00    brk  #$00
C090: 00 00    brk  #$00
C092: 00 00    brk  #$00
C094: 00 00    brk  #$00
C096: 00 00    brk  #$00
C098: 00 00    brk  #$00
C09A: 00 00    brk  #$00
C09C: 00 00    brk  #$00
C09E: 00 00    brk  #$00
C0A0: 00 00    brk  #$00
C0A2: 00 00    brk  #$00
C0A4: 00 00    brk  #$00
C0A6: 00 00    brk  #$00
C0A8: 00 00    brk  #$00
C0AA: 00 00    brk  #$00
C0AC: 00 00    brk  #$00
C0AE: 00 00    brk  #$00
C0B0: 00 00    brk  #$00
C0B2: 00 00    brk  #$00
C0B4: 00 00    brk  #$00
C0B6: 00 00    brk  #$00
C0B8: 00 00    brk  #$00
C0BA: 00 00    brk  #$00
C0BC: 00 00    brk  #$00
C0BE: 00 00    brk  #$00
C0C0: 00 00    brk  #$00
C0C2: 00 00    brk  #$00
C0C4: 00 00    brk  #$00
C0C6: 00 00    brk  #$00
C0C8: 00 00    brk  #$00
C0CA: 00 00    brk  #$00
C0CC: 00 00    brk  #$00
C0CE: 00 00    brk  #$00
C0D0: 00 00    brk  #$00
C0D2: 00 00    brk  #$00
C0D4: 00 00    brk  #$00
C0D6: 00 00    brk  #$00
C0D8: 00 00    brk  #$00
C0DA: 00 00    brk  #$00
C0DC: 00 00    brk  #$00
C0DE: 00 00    brk  #$00
C0E0: 00 00    brk  #$00
C0E2: 00 00    brk  #$00
C0E4: 00 00    brk  #$00
C0E6: 00 00    brk  #$00
C0E8: 00 00    brk  #$00
C0EA: 00 00    brk  #$00
C0EC: 00 00    brk  #$00
C0EE: 00 00    brk  #$00
C0F0: FF       ill  $FF
C0F1: FF       ill  $FF
C0F2: FF       ill  $FF
C0F3: FF       ill  $FF
C0F4: FF       ill  $FF
C0F5: FF       ill  $FF
C0F6: FF       ill  $FF
C0F7: FF       ill  $FF
C0F8: FF       ill  $FF
C0F9: FF       ill  $FF
C0FA: FF       ill  $FF
C0FB: FF       ill  $FF
C0FC: FF       ill  $FF
C0FD: FF       ill  $FF
C0FE: FF       ill  $FF
C0FF: FF       ill  $FF
C100: 00 00    brk  #$00
C102: 00 00    brk  #$00
C104: 00 00    brk  #$00
C106: 00 00    brk  #$00
C108: 00 00    brk  #$00
C10A: 00 00    brk  #$00
C10C: 00 00    brk  #$00
C10E: 00 00    brk  #$00
C110: 00 00    brk  #$00
C112: 00 00    brk  #$00
C114: 00 00    brk  #$00
C116: 00 00    brk  #$00
C118: 00 00    brk  #$00
C11A: 00 00    brk  #$00
C11C: 00 00    brk  #$00
C11E: 00 00    brk  #$00
C120: 00 00    brk  #$00
C122: 00 00    brk  #$00
C124: 00 00    brk  #$00
C126: 00 00    brk  #$00
C128: 00 00    brk  #$00
C12A: 00 00    brk  #$00
C12C: 00 00    brk  #$00
C12E: 00 00    brk  #$00
C130: 00 00    brk  #$00
C132: 00 00    brk  #$00
C134: 00 00    brk  #$00
C136: 00 00    brk  #$00
C138: 00 00    brk  #$00
C13A: 00 00    brk  #$00
C13C: 00 00    brk  #$00
C13E: 00 00    brk  #$00
C140: 00 00    brk  #$00
C142: 00 00    brk  #$00
C144: 00 00    brk  #$00
C146: 00 00    brk  #$00
C148: 00 00    brk  #$00
C14A: 00 00    brk  #$00
C14C: 00 00    brk  #$00
C14E: 00 00    brk  #$00
C150: 00 00    brk  #$00
C152: 00 00    brk  #$00
C154: 00 00    brk  #$00
C156: 00 00    brk  #$00
C158: 00 00    brk  #$00
C15A: 00 00    brk  #$00
C15C: 00 00    brk  #$00
C15E: 00 00    brk  #$00
C160: 00 00    brk  #$00
C162: 00 00    brk  #$00
C164: 00 00    brk  #$00
C166: 00 00    brk  #$00
C168: 00 00    brk  #$00
C16A: 00 00    brk  #$00
C16C: 00 00    brk  #$00
C16E: 00 00    brk  #$00
C170: 00 00    brk  #$00
C172: 00 00    brk  #$00
C174: 00 00    brk  #$00
C176: 00 00    brk  #$00
C178: 00 00    brk  #$00
C17A: 00 00    brk  #$00
C17C: 00 00    brk  #$00
C17E: 00 00    brk  #$00
C180: 00 00    brk  #$00
C182: 00 00    brk  #$00
C184: 00 50    brk  #$50
C186: 14       ill  $14
C187: 00 00    brk  #$00
C189: 00 00    brk  #$00
C18B: 50 14    bvc  $C1A1
C18D: 00 00    brk  #$00
C18F: 00 00    brk  #$00
C191: 00 00    brk  #$00
C193: 00 00    brk  #$00
C195: 00 00    brk  #$00
C197: 00 00    brk  #$00
C199: 00 00    brk  #$00
C19B: 00 00    brk  #$00
C19D: 00 00    brk  #$00
C19F: 00 00    brk  #$00
C1A1: 00 00    brk  #$00
C1A3: 00 00    brk  #$00
C1A5: 00 00    brk  #$00
C1A7: 00 00    brk  #$00
C1A9: 00 00    brk  #$00
C1AB: 00 00    brk  #$00
C1AD: 00 00    brk  #$00
C1AF: 00 00    brk  #$00
C1B1: 00 00    brk  #$00
C1B3: 00 00    brk  #$00
C1B5: 00 00    brk  #$00
C1B7: 00 00    brk  #$00
C1B9: 00 00    brk  #$00
C1BB: 00 00    brk  #$00
C1BD: 00 00    brk  #$00
C1BF: 00 00    brk  #$00
C1C1: 00 00    brk  #$00
C1C3: 00 00    brk  #$00
C1C5: 00 00    brk  #$00
C1C7: 00 00    brk  #$00
C1C9: 00 00    brk  #$00
C1CB: 00 00    brk  #$00
C1CD: 00 00    brk  #$00
C1CF: 00 00    brk  #$00
C1D1: 00 00    brk  #$00
C1D3: 00 00    brk  #$00
C1D5: 00 00    brk  #$00
C1D7: 00 00    brk  #$00
C1D9: 00 00    brk  #$00
C1DB: 00 00    brk  #$00
C1DD: 00 00    brk  #$00
C1DF: 00 00    brk  #$00
C1E1: 00 00    brk  #$00
C1E3: 00 00    brk  #$00
C1E5: 00 00    brk  #$00
C1E7: 00 00    brk  #$00
C1E9: 00 00    brk  #$00
C1EB: 00 00    brk  #$00
C1ED: 00 00    brk  #$00
C1EF: 00 FF    brk  #$FF
C1F1: FF       ill  $FF
C1F2: FF       ill  $FF
C1F3: FF       ill  $FF
C1F4: FF       ill  $FF
C1F5: FF       ill  $FF
C1F6: FF       ill  $FF
C1F7: FF       ill  $FF
C1F8: FF       ill  $FF
C1F9: FF       ill  $FF
C1FA: FF       ill  $FF
C1FB: FF       ill  $FF
C1FC: FF       ill  $FF
C1FD: FF       ill  $FF
C1FE: FF       ill  $FF
C1FF: FF       ill  $FF
C200: 00 00    brk  #$00
C202: 00 00    brk  #$00
C204: 00 00    brk  #$00
C206: 00 00    brk  #$00
C208: 00 00    brk  #$00
C20A: 00 00    brk  #$00
C20C: 00 00    brk  #$00
C20E: 00 00    brk  #$00
C210: 00 00    brk  #$00
C212: 00 00    brk  #$00
C214: 00 00    brk  #$00
C216: 00 00    brk  #$00
C218: 00 00    brk  #$00
C21A: 00 00    brk  #$00
C21C: 00 00    brk  #$00
C21E: 00 00    brk  #$00
C220: 00 00    brk  #$00
C222: 00 00    brk  #$00
C224: 00 00    brk  #$00
C226: 00 00    brk  #$00
C228: 00 00    brk  #$00
C22A: 00 00    brk  #$00
C22C: 00 00    brk  #$00
C22E: 00 00    brk  #$00
C230: 00 00    brk  #$00
C232: 00 00    brk  #$00
C234: 00 00    brk  #$00
C236: 00 00    brk  #$00
C238: 00 00    brk  #$00
C23A: 00 00    brk  #$00
C23C: 00 00    brk  #$00
C23E: 00 00    brk  #$00
C240: 00 00    brk  #$00
C242: 00 00    brk  #$00
C244: 00 00    brk  #$00
C246: 00 00    brk  #$00
C248: 00 00    brk  #$00
C24A: 00 00    brk  #$00
C24C: 00 00    brk  #$00
C24E: 00 00    brk  #$00
C250: 00 00    brk  #$00
C252: 00 00    brk  #$00
C254: 00 00    brk  #$00
C256: 00 00    brk  #$00
C258: 00 00    brk  #$00
C25A: 00 00    brk  #$00
C25C: 00 00    brk  #$00
C25E: 00 00    brk  #$00
C260: 00 00    brk  #$00
C262: 00 00    brk  #$00
C264: 00 00    brk  #$00
C266: 00 00    brk  #$00
C268: 00 00    brk  #$00
C26A: 00 00    brk  #$00
C26C: 00 00    brk  #$00
C26E: 00 00    brk  #$00
C270: 00 00    brk  #$00
C272: 00 00    brk  #$00
C274: 00 00    brk  #$00
C276: 00 00    brk  #$00
C278: 00 00    brk  #$00
C27A: 00 00    brk  #$00
C27C: 00 00    brk  #$00
C27E: 00 00    brk  #$00
C280: 00 00    brk  #$00
C282: 14       ill  $14
C283: 50 00    bvc  $C285
C285: 50 14    bvc  $C29B
C287: 00 14    brk  #$14
C289: 50 00    bvc  $C28B
C28B: 50 14    bvc  $C2A1
C28D: 00 05    brk  #$05
C28F: 00 50    brk  #$50
C291: 00 50    brk  #$50
C293: 00 01    brk  #$01
C295: 40       rti  
C296: 00 14    brk  #$14
C298: 00 14    brk  #$14
C29A: 00 00    brk  #$00
C29C: 00 00    brk  #$00
C29E: 00 00    brk  #$00
C2A0: 00 00    brk  #$00
C2A2: 00 00    brk  #$00
C2A4: 00 00    brk  #$00
C2A6: 00 00    brk  #$00
C2A8: 00 00    brk  #$00
C2AA: 00 00    brk  #$00
C2AC: 00 00    brk  #$00
C2AE: 00 00    brk  #$00
C2B0: 00 00    brk  #$00
C2B2: 00 00    brk  #$00
C2B4: 00 00    brk  #$00
C2B6: 00 00    brk  #$00
C2B8: 00 00    brk  #$00
C2BA: 00 00    brk  #$00
C2BC: 00 00    brk  #$00
C2BE: 00 00    brk  #$00
C2C0: 00 00    brk  #$00
C2C2: 00 00    brk  #$00
C2C4: 00 00    brk  #$00
C2C6: 00 00    brk  #$00
C2C8: 00 00    brk  #$00
C2CA: 00 00    brk  #$00
C2CC: 00 00    brk  #$00
C2CE: 00 00    brk  #$00
C2D0: 00 00    brk  #$00
C2D2: 00 00    brk  #$00
C2D4: 00 00    brk  #$00
C2D6: 00 00    brk  #$00
C2D8: 00 00    brk  #$00
C2DA: 00 00    brk  #$00
C2DC: 00 00    brk  #$00
C2DE: 00 00    brk  #$00
C2E0: 00 00    brk  #$00
C2E2: 00 00    brk  #$00
C2E4: 00 00    brk  #$00
C2E6: 00 00    brk  #$00
C2E8: 00 00    brk  #$00
C2EA: 00 00    brk  #$00
C2EC: 00 00    brk  #$00
C2EE: 00 00    brk  #$00
C2F0: FF       ill  $FF
C2F1: FF       ill  $FF
C2F2: FF       ill  $FF
C2F3: FF       ill  $FF
C2F4: FF       ill  $FF
C2F5: FF       ill  $FF
C2F6: FF       ill  $FF
C2F7: FF       ill  $FF
C2F8: FF       ill  $FF
C2F9: FF       ill  $FF
C2FA: FF       ill  $FF
C2FB: FF       ill  $FF
C2FC: FF       ill  $FF
C2FD: FF       ill  $FF
C2FE: FF       ill  $FF
C2FF: FF       ill  $FF
C300: 00 00    brk  #$00
C302: 50 00    bvc  $C304
C304: 01 40    ora  ($40,x)
C306: 00 00    brk  #$00
C308: 50 00    bvc  $C30A
C30A: 01 40    ora  ($40,x)
C30C: 00 00    brk  #$00
C30E: 00 00    brk  #$00
C310: 00 00    brk  #$00
C312: 00 00    brk  #$00
C314: 00 00    brk  #$00
C316: 00 00    brk  #$00
C318: 00 00    brk  #$00
C31A: 00 00    brk  #$00
C31C: 00 00    brk  #$00
C31E: 00 00    brk  #$00
C320: 00 00    brk  #$00
C322: 00 00    brk  #$00
C324: 00 00    brk  #$00
C326: 00 F0    brk  #$F0
C328: 00 00    brk  #$00
C32A: 04       ill  $04
C32B: 00 10    brk  #$10
C32D: 00 00    brk  #$00
C32F: 00 04    brk  #$04
C331: 00 01    brk  #$01
C333: 00 00    brk  #$00
C335: 00 00    brk  #$00
C337: 00 00    brk  #$00
C339: 00 00    brk  #$00
C33B: 00 00    brk  #$00
C33D: 00 00    brk  #$00
C33F: 00 00    brk  #$00
C341: 00 14    brk  #$14
C343: 00 00    brk  #$00
C345: C0 00    cpy  #$00
C347: 00 10    brk  #$10
C349: 00 01    brk  #$01
C34B: 00 00    brk  #$00
C34D: 00 00    brk  #$00
C34F: 00 00    brk  #$00
C351: 00 00    brk  #$00
C353: 00 00    brk  #$00
C355: 00 00    brk  #$00
C357: 00 00    brk  #$00
C359: 00 00    brk  #$00
C35B: 00 00    brk  #$00
C35D: 00 00    brk  #$00
C35F: 00 00    brk  #$00
C361: 00 00    brk  #$00
C363: 00 00    brk  #$00
C365: 00 00    brk  #$00
C367: 00 00    brk  #$00
C369: 00 00    brk  #$00
C36B: 00 00    brk  #$00
C36D: 00 00    brk  #$00
C36F: 00 00    brk  #$00
C371: 00 00    brk  #$00
C373: 00 00    brk  #$00
C375: 00 00    brk  #$00
C377: 00 00    brk  #$00
C379: 00 00    brk  #$00
C37B: 00 00    brk  #$00
C37D: 00 00    brk  #$00
C37F: 00 00    brk  #$00
C381: 00 14    brk  #$14
C383: 50 00    bvc  $C385
C385: 40       rti  
C386: 04       ill  $04
C387: 00 14    brk  #$14
C389: 50 00    bvc  $C38B
C38B: 40       rti  
C38C: 04       ill  $04
C38D: 00 05    brk  #$05
C38F: 00 40    brk  #$40
C391: 50 40    bvc  $C3D3
C393: 50 01    bvc  $C396
C395: 40       rti  
C396: 14       ill  $14
C397: 04       ill  $04
C398: 14       ill  $14
C399: 04       ill  $04
C39A: 00 00    brk  #$00
C39C: 00 00    brk  #$00
C39E: 00 00    brk  #$00
C3A0: 00 00    brk  #$00
C3A2: 00 00    brk  #$00
C3A4: 00 00    brk  #$00
C3A6: 00 80    brk  #$80
C3A8: 00 00    brk  #$00
C3AA: 00 00    brk  #$00
C3AC: 00 00    brk  #$00
C3AE: 0C       ill  $0C
C3AF: 00 00    brk  #$00
C3B1: C0 00    cpy  #$00
C3B3: 00 0C    brk  #$0C
C3B5: 00 00    brk  #$00
C3B7: C0 00    cpy  #$00
C3B9: 00 00    brk  #$00
C3BB: 00 00    brk  #$00
C3BD: 00 00    brk  #$00
C3BF: 00 00    brk  #$00
C3C1: 00 00    brk  #$00
C3C3: 00 00    brk  #$00
C3C5: 00 00    brk  #$00
C3C7: 00 00    brk  #$00
C3C9: 00 00    brk  #$00
C3CB: 00 00    brk  #$00
C3CD: 00 00    brk  #$00
C3CF: 00 00    brk  #$00
C3D1: 00 00    brk  #$00
C3D3: 00 00    brk  #$00
C3D5: 00 00    brk  #$00
C3D7: 00 00    brk  #$00
C3D9: 00 00    brk  #$00
C3DB: 00 00    brk  #$00
C3DD: 00 00    brk  #$00
C3DF: 00 00    brk  #$00
C3E1: 00 00    brk  #$00
C3E3: 00 00    brk  #$00
C3E5: 00 00    brk  #$00
C3E7: 00 00    brk  #$00
C3E9: 00 00    brk  #$00
C3EB: 00 00    brk  #$00
C3ED: FF       ill  $FF
C3EE: FF       ill  $FF
C3EF: FF       ill  $FF
C3F0: FF       ill  $FF
C3F1: FF       ill  $FF
C3F2: FF       ill  $FF
C3F3: FF       ill  $FF
C3F4: FF       ill  $FF
C3F5: FF       ill  $FF
C3F6: FF       ill  $FF
C3F7: FF       ill  $FF
C3F8: FF       ill  $FF
C3F9: FF       ill  $FF
C3FA: FF       ill  $FF
C3FB: FF       ill  $FF
C3FC: FF       ill  $FF
C3FD: FF       ill  $FF
C3FE: FF       ill  $FF
C3FF: FF       ill  $FF
C400: 51 40    eor  ($40),y
C402: 10 00    bpl  $C404
C404: 01 00    ora  ($00,x)
C406: 51 40    eor  ($40),y
C408: 10 00    bpl  $C40A
C40A: 01 00    ora  ($00,x)
C40C: 15 40    ora  $40,x
C40E: 14       ill  $14
C40F: 50 51    bvc  $C462
C411: 50 15    bvc  $C428
C413: 00 14    brk  #$14
C415: 50 51    bvc  $C468
C417: 40       rti  
C418: 00 00    brk  #$00
C41A: 51 40    eor  ($40),y
C41C: 51 40    eor  ($40),y
C41E: 00 00    brk  #$00
C420: 51 40    eor  ($40),y
C422: 3C       ill  $3C
C423: F0 3C    beq  $C461
C425: 00 00    brk  #$00
C427: 80       ill  $80
C428: 55 00    eor  $00,x
C42A: 04       ill  $04
C42B: 00 10    brk  #$10
C42D: 00 15    brk  #$15
C42F: 40       rti  
C430: 04       ill  $04
C431: 00 01    brk  #$01
C433: 00 04    brk  #$04
C435: 00 11    brk  #$11
C437: 00 11    brk  #$11
C439: 00 10    brk  #$10
C43B: 00 44    brk  #$44
C43D: 00 44    brk  #$44
C43F: 00 14    brk  #$14
C441: 50 04    bvc  $C447
C443: 00 00    brk  #$00
C445: 40       rti  
C446: 51 40    eor  ($40),y
C448: 10 00    bpl  $C44A
C44A: 01 00    ora  ($00,x)
C44C: 28       plp  
C44D: 00 28    brk  #$28
C44F: A0 28    ldy  #$28
C451: A0 28    ldy  #$28
C453: 00 A2    brk  #$A2
C455: 80       ill  $80
C456: A2 80    ldx  #$80
C458: 00 00    brk  #$00
C45A: 00 00    brk  #$00
C45C: 00 00    brk  #$00
C45E: 00 00    brk  #$00
C460: 00 00    brk  #$00
C462: 00 00    brk  #$00
C464: 00 00    brk  #$00
C466: 00 00    brk  #$00
C468: 00 00    brk  #$00
C46A: 00 00    brk  #$00
C46C: 00 00    brk  #$00
C46E: 00 00    brk  #$00
C470: 00 00    brk  #$00
C472: 00 00    brk  #$00
C474: 00 00    brk  #$00
C476: 00 00    brk  #$00
C478: 00 00    brk  #$00
C47A: 00 00    brk  #$00
C47C: 00 00    brk  #$00
C47E: 00 00    brk  #$00
C480: 00 00    brk  #$00
C482: 04       ill  $04
C483: 40       rti  
C484: 14       ill  $14
C485: 40       rti  
C486: 04       ill  $04
C487: 50 04    bvc  $C48D
C489: 40       rti  
C48A: 14       ill  $14
C48B: 40       rti  
C48C: 04       ill  $04
C48D: 50 04    bvc  $C493
C48F: 00 40    brk  #$40
C491: 44       ill  $44
C492: 40       rti  
C493: 44       ill  $44
C494: 00 40    brk  #$40
C496: 44       ill  $44
C497: 04       ill  $04
C498: 44       ill  $44
C499: 04       ill  $04
C49A: 00 00    brk  #$00
C49C: 00 00    brk  #$00
C49E: 00 00    brk  #$00
C4A0: 00 00    brk  #$00
C4A2: 00 00    brk  #$00
C4A4: 80       ill  $80
C4A5: 00 02    brk  #$02
C4A7: A0 00    ldy  #$00
C4A9: 00 80    brk  #$80
C4AB: 00 0C    brk  #$0C
C4AD: 00 0C    brk  #$0C
C4AF: 00 00    brk  #$00
C4B1: C0 0C    cpy  #$0C
C4B3: 00 0C    brk  #$0C
C4B5: 00 00    brk  #$00
C4B7: C0 03    cpy  #$03
C4B9: C0 08    cpy  #$08
C4BB: F0 0C    beq  $C4C9
C4BD: E0 0F    cpx  #$0F
C4BF: 00 2C    brk  #$2C
C4C1: C0 3C    cpy  #$3C
C4C3: 80       ill  $80
C4C4: 00 00    brk  #$00
C4C6: 00 00    brk  #$00
C4C8: 00 3C    brk  #$3C
C4CA: F0 2C    beq  $C4F8
C4CC: E0 20    cpx  #$20
C4CE: 20 20 20 jsr  $2020
C4D1: 00 00    brk  #$00
C4D3: 00 00    brk  #$00
C4D5: 0C       ill  $0C
C4D6: C0 00    cpy  #$00
C4D8: 00 00    brk  #$00
C4DA: 00 00    brk  #$00
C4DC: 00 00    brk  #$00
C4DE: 80       ill  $80
C4DF: 00 00    brk  #$00
C4E1: 5F       ill  $5F
C4E2: 55 55    eor  $55,x
C4E4: F5 00    sbc  $00,x
C4E6: 00 00    brk  #$00
C4E8: 00 00    brk  #$00
C4EA: 00 00    brk  #$00
C4EC: 00 FF    brk  #$FF
C4EE: FF       ill  $FF
C4EF: FF       ill  $FF
C4F0: FF       ill  $FF
C4F1: FF       ill  $FF
C4F2: FF       ill  $FF
C4F3: FF       ill  $FF
C4F4: FF       ill  $FF
C4F5: FF       ill  $FF
C4F6: FF       ill  $FF
C4F7: FF       ill  $FF
C4F8: FF       ill  $FF
C4F9: FF       ill  $FF
C4FA: FF       ill  $FF
C4FB: FF       ill  $FF
C4FC: FF       ill  $FF
C4FD: FF       ill  $FF
C4FE: FF       ill  $FF
C4FF: FF       ill  $FF
C500: 11 00    ora  ($00),y
C502: 11 40    ora  ($40),y
C504: 51 00    eor  ($00),y
C506: 11 00    ora  ($00),y
C508: 11 40    ora  ($40),y
C50A: 51 00    eor  ($00),y
C50C: 15 00    ora  $00,x
C50E: 14       ill  $14
C50F: 50 51    bvc  $C562
C511: 50 15    bvc  $C528
C513: 00 14    brk  #$14
C515: 50 51    bvc  $C568
C517: 40       rti  
C518: 00 00    brk  #$00
C51A: 00 00    brk  #$00
C51C: 00 00    brk  #$00
C51E: 00 00    brk  #$00
C520: 00 00    brk  #$00
C522: 08       php  
C523: 80       ill  $80
C524: 08       php  
C525: F0 3C    beq  $C563
C527: 80       ill  $80
C528: 14       ill  $14
C529: 00 54    brk  #$54
C52B: 00 15    brk  #$15
C52D: 00 05    brk  #$05
C52F: 00 05    brk  #$05
C531: 40       rti  
C532: 15 00    ora  $00,x
C534: 04       ill  $04
C535: 00 11    brk  #$11
C537: 00 11    brk  #$11
C539: 00 10    brk  #$10
C53B: 00 44    brk  #$44
C53D: 00 44    brk  #$44
C53F: 00 F4    brk  #$F4
C541: 40       rti  
C542: 04       ill  $04
C543: 50 FC    bvc  $C541
C545: 40       rti  
C546: 13       ill  $13
C547: F0 13    beq  $C55C
C549: F0 51    beq  $C59C
C54B: 00 DF    brk  #$DF
C54D: 00 1F    brk  #$1F
C54F: 70 DF    bvs  $C530
C551: 40       rti  
C552: F7       ill  $F7
C553: 00 DF    brk  #$DF
C555: 40       rti  
C556: 1F       ill  $1F
C557: 70 51    bvs  $C5AA
C559: 40       rti  
C55A: 01 40    ora  ($40,x)
C55C: 50 00    bvc  $C55E
C55E: 51 40    eor  ($40),y
C560: 50 00    bvc  $C562
C562: 01 40    ora  ($40,x)
C564: 14       ill  $14
C565: 00 10    brk  #$10
C567: 40       rti  
C568: 11 40    ora  ($40),y
C56A: 50 00    bvc  $C56C
C56C: 41 00    eor  ($00,x)
C56E: 51 00    eor  ($00),y
C570: 00 00    brk  #$00
C572: 00 00    brk  #$00
C574: 00 00    brk  #$00
C576: 00 00    brk  #$00
C578: 00 00    brk  #$00
C57A: 00 00    brk  #$00
C57C: 00 00    brk  #$00
C57E: 00 00    brk  #$00
C580: 00 00    brk  #$00
C582: 04       ill  $04
C583: 40       rti  
C584: 14       ill  $14
C585: 40       rti  
C586: 04       ill  $04
C587: 50 04    bvc  $C58D
C589: 40       rti  
C58A: 14       ill  $14
C58B: 40       rti  
C58C: 04       ill  $04
C58D: 50 04    bvc  $C593
C58F: 00 11    brk  #$11
C591: 00 11    brk  #$11
C593: 00 00    brk  #$00
C595: 40       rti  
C596: 01 10    ora  ($10,x)
C598: 01 10    ora  ($10,x)
C59A: 00 00    brk  #$00
C59C: 00 00    brk  #$00
C59E: 00 00    brk  #$00
C5A0: 00 00    brk  #$00
C5A2: 00 02    brk  #$02
C5A4: A0 00    ldy  #$00
C5A6: 00 00    brk  #$00
C5A8: 00 00    brk  #$00
C5AA: 00 00    brk  #$00
C5AC: 03       ill  $03
C5AD: 00 03    brk  #$03
C5AF: C0 0F    cpy  #$0F
C5B1: 00 03    brk  #$03
C5B3: 00 03    brk  #$03
C5B5: C0 0F    cpy  #$0F
C5B7: 00 03    brk  #$03
C5B9: 00 0B    brk  #$0B
C5BB: 00 0F    brk  #$0F
C5BD: 00 03    brk  #$03
C5BF: 00 03    brk  #$03
C5C1: C0 03    cpy  #$03
C5C3: 80       ill  $80
C5C4: 00 00    brk  #$00
C5C6: 00 00    brk  #$00
C5C8: 00 08    brk  #$08
C5CA: 80       ill  $80
C5CB: 08       php  
C5CC: 80       ill  $80
C5CD: 08       php  
C5CE: 00 00    brk  #$00
C5D0: 00 00    brk  #$00
C5D2: 80       ill  $80
C5D3: 00 00    brk  #$00
C5D5: 30 30    bmi  $C607
C5D7: 03       ill  $03
C5D8: 00 00    brk  #$00
C5DA: 00 00    brk  #$00
C5DC: 00 20    brk  #$20
C5DE: 00 80    brk  #$80
C5E0: 00 57    brk  #$57
C5E2: 55 55    eor  $55,x
C5E4: D5 00    cmp  $00,x
C5E6: 00 00    brk  #$00
C5E8: 00 00    brk  #$00
C5EA: 00 00    brk  #$00
C5EC: 00 FF    brk  #$FF
C5EE: FF       ill  $FF
C5EF: FF       ill  $FF
C5F0: FF       ill  $FF
C5F1: FF       ill  $FF
C5F2: FF       ill  $FF
C5F3: FF       ill  $FF
C5F4: FF       ill  $FF
C5F5: FF       ill  $FF
C5F6: FF       ill  $FF
C5F7: FF       ill  $FF
C5F8: FF       ill  $FF
C5F9: FF       ill  $FF
C5FA: FF       ill  $FF
C5FB: FF       ill  $FF
C5FC: FF       ill  $FF
C5FD: FF       ill  $FF
C5FE: FF       ill  $FF
C5FF: FF       ill  $FF
C600: 11 00    ora  ($00),y
C602: 11 00    ora  ($00),y
C604: 11 00    ora  ($00),y
C606: 11 00    ora  ($00),y
C608: 11 00    ora  ($00),y
C60A: 11 00    ora  ($00),y
C60C: 28       plp  
C60D: 00 28    brk  #$28
C60F: 80       ill  $80
C610: A2 00    ldx  #$00
C612: 0A       asl  a
C613: 00 08    brk  #$08
C615: A0 22    ldy  #$22
C617: 80       ill  $80
C618: 00 01    brk  #$01
C61A: 10 00    bpl  $C61C
C61C: 01 10    ora  ($10,x)
C61E: 00 00    brk  #$00
C620: 11 00    ora  ($00),y
C622: 0A       asl  a
C623: 80       ill  $80
C624: 0A       asl  a
C625: 80       ill  $80
C626: 0A       asl  a
C627: 80       ill  $80
C628: 14       ill  $14
C629: 00 14    brk  #$14
C62B: 00 14    brk  #$14
C62D: 00 05    brk  #$05
C62F: 00 05    brk  #$05
C631: 00 05    brk  #$05
C633: 00 28    brk  #$28
C635: 00 2A    brk  #$2A
C637: 00 2A    brk  #$2A
C639: 00 28    brk  #$28
C63B: 00 A8    brk  #$A8
C63D: 00 A8    brk  #$A8
C63F: 00 F4    brk  #$F4
C641: 40       rti  
C642: F4       ill  $F4
C643: 40       rti  
C644: FC       ill  $FC
C645: 40       rti  
C646: 13       ill  $13
C647: F0 13    beq  $C65C
C649: F0 13    beq  $C65E
C64B: F0 DF    beq  $C62C
C64D: 00 1F    brk  #$1F
C64F: 70 DF    bvs  $C630
C651: 40       rti  
C652: F7       ill  $F7
C653: 00 DF    brk  #$DF
C655: 40       rti  
C656: 1F       ill  $1F
C657: 70 51    bvs  $C6AA
C659: 40       rti  
C65A: 51 40    eor  ($40),y
C65C: 51 40    eor  ($40),y
C65E: 51 40    eor  ($40),y
C660: 51 40    eor  ($40),y
C662: 51 40    eor  ($40),y
C664: 14       ill  $14
C665: 00 10    brk  #$10
C667: 40       rti  
C668: 11 40    ora  ($40),y
C66A: 50 00    bvc  $C66C
C66C: 41 00    eor  ($00,x)
C66E: 51 00    eor  ($00),y
C670: 05 14    ora  $14
C672: 00 00    brk  #$00
C674: 00 00    brk  #$00
C676: 00 00    brk  #$00
C678: 00 00    brk  #$00
C67A: 00 00    brk  #$00
C67C: 00 00    brk  #$00
C67E: 00 00    brk  #$00
C680: 00 00    brk  #$00
C682: C4 4C    cpy  $4C
C684: C4 4C    cpy  $4C
C686: C4 4C    cpy  $4C
C688: C4 4C    cpy  $4C
C68A: C4 4C    cpy  $4C
C68C: C4 4C    cpy  $4C
C68E: 04       ill  $04
C68F: 00 15    brk  #$15
C691: 00 05    brk  #$05
C693: 00 00    brk  #$00
C695: 40       rti  
C696: 01 40    ora  ($40,x)
C698: 01 50    ora  ($50,x)
C69A: 00 00    brk  #$00
C69C: 00 00    brk  #$00
C69E: 00 00    brk  #$00
C6A0: 00 80    brk  #$80
C6A2: 00 0A    brk  #$0A
C6A4: A8       tay  
C6A5: 00 00    brk  #$00
C6A7: 00 00    brk  #$00
C6A9: 00 00    brk  #$00
C6AB: 00 33    brk  #$33
C6AD: 30 33    bmi  $C6E2
C6AF: 30 33    bmi  $C6E4
C6B1: 30 33    bmi  $C6E6
C6B3: 30 33    bmi  $C6E8
C6B5: 30 33    bmi  $C6EA
C6B7: 30 03    bmi  $C6BC
C6B9: F0 03    beq  $C6BE
C6BB: F0 03    beq  $C6C0
C6BD: F0 3F    beq  $C6FE
C6BF: 00 3F    brk  #$3F
C6C1: 00 3F    brk  #$3F
C6C3: 00 00    brk  #$00
C6C5: 00 00    brk  #$00
C6C7: 00 00    brk  #$00
C6C9: 08       php  
C6CA: 80       ill  $80
C6CB: 08       php  
C6CC: 80       ill  $80
C6CD: 00 80    brk  #$80
C6CF: 00 80    brk  #$80
C6D1: 20 00 80 jsr  $8000
C6D4: 00 03    brk  #$03
C6D6: C0 30    cpy  #$30
C6D8: 00 00    brk  #$00
C6DA: 00 02    brk  #$02
C6DC: 00 00    brk  #$00
C6DE: 00 00    brk  #$00
C6E0: 00 7F    brk  #$7F
C6E2: 55 55    eor  $55,x
C6E4: FD 00 00 sbc  $0000,x
C6E7: 00 00    brk  #$00
C6E9: 00 00    brk  #$00
C6EB: 00 00    brk  #$00
C6ED: FF       ill  $FF
C6EE: FF       ill  $FF
C6EF: FF       ill  $FF
C6F0: FF       ill  $FF
C6F1: FF       ill  $FF
C6F2: FF       ill  $FF
C6F3: FF       ill  $FF
C6F4: FF       ill  $FF
C6F5: FF       ill  $FF
C6F6: FF       ill  $FF
C6F7: FF       ill  $FF
C6F8: FF       ill  $FF
C6F9: FF       ill  $FF
C6FA: FF       ill  $FF
C6FB: FF       ill  $FF
C6FC: FF       ill  $FF
C6FD: FF       ill  $FF
C6FE: FF       ill  $FF
C6FF: FF       ill  $FF
C700: 95 80    sta  $80,x
C702: 15 80    ora  $80,x
C704: 95 C0    sta  $C0,x
C706: 95 80    sta  $80,x
C708: 15 80    ora  $80,x
C70A: 95 00    sta  $00,x
C70C: 15 00    ora  $00,x
C70E: 15 80    ora  $80,x
C710: 56 00    lsr  $00,x
C712: 15 00    ora  $00,x
C714: 09 50    ora  #$50
C716: 25 40    and  $40
C718: 00 00    brk  #$00
C71A: 00 00    brk  #$00
C71C: 00 00    brk  #$00
C71E: 00 00    brk  #$00
C720: 00 00    brk  #$00
C722: CA       dex  
C723: 8C 0A 8C sty  $8C0A
C726: CA       dex  
C727: 80       ill  $80
C728: AA       tax  
C729: 00 AA    brk  #$AA
C72B: 00 AA    brk  #$AA
C72D: C0 2A    cpy  #$2A
C72F: 80       ill  $80
C730: 2A       rol  a
C731: 80       ill  $80
C732: FA       ill  $FA
C733: 80       ill  $80
C734: 38       sec  
C735: 00 2F    brk  #$2F
C737: 00 F8    brk  #$F8
C739: 00 2C    brk  #$2C
C73B: 00 2F    brk  #$2F
C73D: 00 F8    brk  #$F8
C73F: 00 C5    brk  #$C5
C741: 40       rti  
C742: F5 40    sbc  $40,x
C744: CD 40 17 cmp  $1740
C747: 30 17    bmi  $C760
C749: 30 17    bmi  $C762
C74B: 70 DF    bvs  $C72C
C74D: 00 15    brk  #$15
C74F: 70 D5    bvs  $C726
C751: 40       rti  
C752: F7       ill  $F7
C753: 00 D5    brk  #$D5
C755: 40       rti  
C756: 15 70    ora  $70,x
C758: 22       ill  $22
C759: 00 52    brk  #$52
C75B: 00 21    brk  #$21
C75D: 40       rti  
C75E: 22       ill  $22
C75F: 00 21    brk  #$21
C761: 40       rti  
C762: 52       ill  $52
C763: 00 20    brk  #$20
C765: 00 22    brk  #$22
C767: 00 22    brk  #$22
C769: 00 20    brk  #$20
C76B: 00 22    brk  #$22
C76D: 00 22    brk  #$22
C76F: 00 01    brk  #$01
C771: 10 00    bpl  $C773
C773: 00 00    brk  #$00
C775: 00 00    brk  #$00
C777: 00 00    brk  #$00
C779: 00 00    brk  #$00
C77B: 00 00    brk  #$00
C77D: 00 00    brk  #$00
C77F: 00 00    brk  #$00
C781: 00 EA    brk  #$EA
C783: AC EA AC ldy  $ACEA
C786: EA       nop  
C787: AC FA BC ldy  $BCFA
C78A: FA       ill  $FA
C78B: BC FA BC ldy  $BCFA,x
C78E: AA       tax  
C78F: 80       ill  $80
C790: AA       tax  
C791: 80       ill  $80
C792: AA       tax  
C793: 80       ill  $80
C794: 0A       asl  a
C795: A8       tay  
C796: 0A       asl  a
C797: A8       tay  
C798: 0A       asl  a
C799: A8       tay  
C79A: 00 00    brk  #$00
C79C: 00 00    brk  #$00
C79E: 80       ill  $80
C79F: 00 02    brk  #$02
C7A1: A0 00    ldy  #$00
C7A3: 08       php  
C7A4: 08       php  
C7A5: 00 20    brk  #$20
C7A7: 02       ill  $02
C7A8: 00 00    brk  #$00
C7AA: 00 00    brk  #$00
C7AC: 0F       ill  $0F
C7AD: C0 0F    cpy  #$0F
C7AF: C0 0F    cpy  #$0F
C7B1: C0 0F    cpy  #$0F
C7B3: C0 0F    cpy  #$0F
C7B5: C0 0F    cpy  #$0F
C7B7: C0 03    cpy  #$03
C7B9: 00 03    brk  #$03
C7BB: 00 03    brk  #$03
C7BD: 00 03    brk  #$03
C7BF: 00 03    brk  #$03
C7C1: 00 03    brk  #$03
C7C3: 00 00    brk  #$00
C7C5: 00 00    brk  #$00
C7C7: 00 00    brk  #$00
C7C9: CA       dex  
C7CA: 8C C8 0C sty  $0CC8
C7CD: C8       iny  
C7CE: 08       php  
C7CF: 00 00    brk  #$00
C7D1: 00 00    brk  #$00
C7D3: 00 00    brk  #$00
C7D5: 0A       asl  a
C7D6: 80       ill  $80
C7D7: 03       ill  $03
C7D8: 00 02    brk  #$02
C7DA: 00 02    brk  #$02
C7DC: 00 00    brk  #$00
C7DE: 00 00    brk  #$00
C7E0: 08       php  
C7E1: 57       ill  $57
C7E2: 55 55    eor  $55,x
C7E4: D5 00    cmp  $00,x
C7E6: 00 00    brk  #$00
C7E8: 00 00    brk  #$00
C7EA: 00 00    brk  #$00
C7EC: 00 FF    brk  #$FF
C7EE: FF       ill  $FF
C7EF: FF       ill  $FF
C7F0: FF       ill  $FF
C7F1: FF       ill  $FF
C7F2: FF       ill  $FF
C7F3: FF       ill  $FF
C7F4: FF       ill  $FF
C7F5: FF       ill  $FF
C7F6: FF       ill  $FF
C7F7: FF       ill  $FF
C7F8: FF       ill  $FF
C7F9: FF       ill  $FF
C7FA: FF       ill  $FF
C7FB: FF       ill  $FF
C7FC: FF       ill  $FF
C7FD: FF       ill  $FF
C7FE: FF       ill  $FF
C7FF: FF       ill  $FF
C800: 95 80    sta  $80,x
C802: 15 80    ora  $80,x
C804: 95 00    sta  $00,x
C806: 99 80 99 sta  $9980,y
C809: 80       ill  $80
C80A: 99 80 19 sta  $1980,y
C80D: 00 95    brk  #$95
C80F: 00 54    brk  #$54
C811: 00 19    brk  #$19
C813: 00 01    brk  #$01
C815: 50 06    bvc  $C81D
C817: 60       rts  
C818: 00 37    brk  #$37
C81A: 70 00    bvs  $C81C
C81C: 03       ill  $03
C81D: 77       ill  $77
C81E: 00 00    brk  #$00
C820: DD C0 E9 cmp  $E9C0,x
C823: AC C9 AC ldy  $ACC9
C826: E9 8C    sbc  #$8C
C828: AB       ill  $AB
C829: C0 AA    cpy  #$AA
C82B: 00 AA    brk  #$AA
C82D: C0 FA    cpy  #$FA
C82F: 80       ill  $80
C830: 2A       rol  a
C831: 40       rti  
C832: DA       ill  $DA
C833: 80       ill  $80
C834: 38       sec  
C835: 00 2F    brk  #$2F
C837: 00 F8    brk  #$F8
C839: 00 2C    brk  #$2C
C83B: 00 2F    brk  #$2F
C83D: 00 F8    brk  #$F8
C83F: 00 15    brk  #$15
C841: 70 D5    bvs  $C818
C843: 70 15    bvs  $C85A
C845: 40       rti  
C846: 9D 40 1D sta  $1D40,x
C849: 40       rti  
C84A: 9F       ill  $9F
C84B: 40       rti  
C84C: 67       ill  $67
C84D: 00 15    brk  #$15
C84F: F0 D5    beq  $C826
C851: 00 D9    brk  #$D9
C853: 00 F5    brk  #$F5
C855: 40       rti  
C856: 05 70    ora  $70
C858: 2A       rol  a
C859: 00 AA    brk  #$AA
C85B: 00 2A    brk  #$2A
C85D: 80       ill  $80
C85E: 2A       rol  a
C85F: 00 2A    brk  #$2A
C861: 80       ill  $80
C862: AA       tax  
C863: 00 98    brk  #$98
C865: 00 2A    brk  #$2A
C867: 40       rti  
C868: 69 40    adc  #$40
C86A: 98       tya  
C86B: 00 6A    brk  #$6A
C86D: 00 5A    brk  #$5A
C86F: 40       rti  
C870: 04       ill  $04
C871: 44       ill  $44
C872: 00 00    brk  #$00
C874: 00 00    brk  #$00
C876: 00 00    brk  #$00
C878: 00 00    brk  #$00
C87A: 00 00    brk  #$00
C87C: 00 00    brk  #$00
C87E: 00 00    brk  #$00
C880: 00 00    brk  #$00
C882: EA       nop  
C883: AC EA AC ldy  $ACEA
C886: EA       nop  
C887: AC EA AC ldy  $ACEA
C88A: EA       nop  
C88B: AC EA AC ldy  $ACEA
C88E: AF       ill  $AF
C88F: 80       ill  $80
C890: AA       tax  
C891: 80       ill  $80
C892: AA       tax  
C893: 80       ill  $80
C894: 0B       ill  $0B
C895: E8       inx  
C896: 0A       asl  a
C897: A8       tay  
C898: 0A       asl  a
C899: A8       tay  
C89A: 00 80    brk  #$80
C89C: 00 02    brk  #$02
C89E: A0 00    ldy  #$00
C8A0: 02       ill  $02
C8A1: 20 00 28 jsr  $2800
C8A4: 0A       asl  a
C8A5: 00 20    brk  #$20
C8A7: 02       ill  $02
C8A8: 00 20    brk  #$20
C8AA: 02       ill  $02
C8AB: 00 0A    brk  #$0A
C8AD: 80       ill  $80
C8AE: 0A       asl  a
C8AF: 80       ill  $80
C8B0: 0A       asl  a
C8B1: 80       ill  $80
C8B2: 0A       asl  a
C8B3: 80       ill  $80
C8B4: 0A       asl  a
C8B5: 80       ill  $80
C8B6: 0A       asl  a
C8B7: 80       ill  $80
C8B8: 0A       asl  a
C8B9: A0 0A    ldy  #$0A
C8BB: A0 0A    ldy  #$0A
C8BD: A0 2A    ldy  #$2A
C8BF: 80       ill  $80
C8C0: 2A       rol  a
C8C1: 80       ill  $80
C8C2: 2A       rol  a
C8C3: 80       ill  $80
C8C4: 00 01    brk  #$01
C8C6: 40       rti  
C8C7: 00 40    brk  #$40
C8C9: C0 8C    cpy  #$8C
C8CB: C8       iny  
C8CC: 8C C8 8C sty  $8CC8
C8CF: 00 00    brk  #$00
C8D1: 00 00    brk  #$00
C8D3: 00 08    brk  #$08
C8D5: 0A       asl  a
C8D6: A0 0A    ldy  #$0A
C8D8: 80       ill  $80
C8D9: 01 80    ora  ($80,x)
C8DB: 0B       ill  $0B
C8DC: 80       ill  $80
C8DD: 03       ill  $03
C8DE: 08       php  
C8DF: 00 00    brk  #$00
C8E1: 6A       ror  a
C8E2: 95 56    sta  $56,x
C8E4: A9 00    lda  #$00
C8E6: 00 00    brk  #$00
C8E8: 00 00    brk  #$00
C8EA: 00 00    brk  #$00
C8EC: 00 FF    brk  #$FF
C8EE: FF       ill  $FF
C8EF: FF       ill  $FF
C8F0: FF       ill  $FF
C8F1: FF       ill  $FF
C8F2: FF       ill  $FF
C8F3: FF       ill  $FF
C8F4: FF       ill  $FF
C8F5: FF       ill  $FF
C8F6: FF       ill  $FF
C8F7: FF       ill  $FF
C8F8: FF       ill  $FF
C8F9: FF       ill  $FF
C8FA: FF       ill  $FF
C8FB: FF       ill  $FF
C8FC: FF       ill  $FF
C8FD: FF       ill  $FF
C8FE: FF       ill  $FF
C8FF: FF       ill  $FF
C900: 95 80    sta  $80,x
C902: 95 80    sta  $80,x
C904: 95 80    sta  $80,x
C906: 99 80 99 sta  $9980,y
C909: 80       ill  $80
C90A: 99 80 19 sta  $1980,y
C90D: 00 A5    brk  #$A5
C90F: 00 6A    brk  #$6A
C911: 00 19    brk  #$19
C913: 00 0A    brk  #$0A
C915: 90 05    bcc  $C91C
C917: A0 00    ldy  #$00
C919: 00 00    brk  #$00
C91B: 00 00    brk  #$00
C91D: 00 00    brk  #$00
C91F: 00 00    brk  #$00
C921: 00 F5    brk  #$F5
C923: 7C       ill  $7C
C924: F5 7C    sbc  $7C,x
C926: F5 7C    sbc  $7C,x
C928: 69 C0    adc  #$C0
C92A: 6B       ill  $6B
C92B: C0 29    cpy  #$29
C92D: 00 DA    brk  #$DA
C92F: 40       rti  
C930: FA       ill  $FA
C931: 40       rti  
C932: 1A       ill  $1A
C933: 00 2A    brk  #$2A
C935: 00 2A    brk  #$2A
C937: 00 2A    brk  #$2A
C939: 00 A8    brk  #$A8
C93B: 00 A8    brk  #$A8
C93D: 00 A8    brk  #$A8
C93F: 00 15    brk  #$15
C941: 50 15    bvc  $C958
C943: 50 15    bvc  $C95A
C945: 70 5D    bvs  $C9A4
C947: 40       rti  
C948: 9D 40 5D sta  $5D40,x
C94B: 40       rti  
C94C: 64       ill  $64
C94D: 00 95    brk  #$95
C94F: 80       ill  $80
C950: 16 80    asl  $80,x
C952: 19 00 25 ora  $2500,y
C955: 60       rts  
C956: 29 40    and  #$40
C958: 6A       ror  a
C959: 40       rti  
C95A: 6A       ror  a
C95B: 40       rti  
C95C: 6A       ror  a
C95D: 40       rti  
C95E: 6A       ror  a
C95F: 40       rti  
C960: 6A       ror  a
C961: 40       rti  
C962: 6A       ror  a
C963: 40       rti  
C964: 98       tya  
C965: 00 6A    brk  #$6A
C967: 40       rti  
C968: 69 40    adc  #$40
C96A: 98       tya  
C96B: 00 6A    brk  #$6A
C96D: 40       rti  
C96E: 5A       ill  $5A
C96F: 40       rti  
C970: 51 51    eor  ($51),y
C972: 40       rti  
C973: 00 00    brk  #$00
C975: 00 00    brk  #$00
C977: 00 00    brk  #$00
C979: 00 00    brk  #$00
C97B: 00 00    brk  #$00
C97D: 00 00    brk  #$00
C97F: 00 00    brk  #$00
C981: 00 EA    brk  #$EA
C983: AC EA AC ldy  $ACEA
C986: EA       nop  
C987: AC EA AC ldy  $ACEA
C98A: EA       nop  
C98B: AC EA AC ldy  $ACEA
C98E: AE 80 AA ldx  $AA80
C991: 80       ill  $80
C992: BA       tsx  
C993: 80       ill  $80
C994: 0A       asl  a
C995: E8       inx  
C996: 0A       asl  a
C997: B8       clv  
C998: 0A       asl  a
C999: A8       tay  
C99A: 00 80    brk  #$80
C99C: 00 02    brk  #$02
C99E: 20 00 08 jsr  $0800
C9A1: 08       php  
C9A2: 00 28    brk  #$28
C9A4: 0A       asl  a
C9A5: 00 A0    brk  #$A0
C9A7: 02       ill  $02
C9A8: 80       ill  $80
C9A9: 20 02 00 jsr  $0002
C9AC: 2A       rol  a
C9AD: A0 2A    ldy  #$2A
C9AF: A0 2A    ldy  #$2A
C9B1: A0 2A    ldy  #$2A
C9B3: A0 2A    ldy  #$2A
C9B5: A0 2A    ldy  #$2A
C9B7: A0 1A    ldy  #$1A
C9B9: A0 1A    ldy  #$1A
C9BB: A0 1A    ldy  #$1A
C9BD: A0 2A    ldy  #$2A
C9BF: 90 2A    bcc  $C9EB
C9C1: 90 2A    bcc  $C9ED
C9C3: 90 00    bcc  $C9C5
C9C5: 01 40    ora  ($40,x)
C9C7: 00 40    brk  #$40
C9C9: E4 6C    cpx  $6C
C9CB: E0 2C    cpx  #$2C
C9CD: C0 2C    cpy  #$2C
C9CF: 80       ill  $80
C9D0: 20 03 08 jsr  $0803
C9D3: 00 00    brk  #$00
C9D5: 0A       asl  a
C9D6: A0 0A    ldy  #$0A
C9D8: 80       ill  $80
C9D9: A0 00    ldy  #$00
C9DB: 0A       asl  a
C9DC: 40       rti  
C9DD: 00 00    brk  #$00
C9DF: 00 00    brk  #$00
C9E1: 6A       ror  a
C9E2: A5 5A    lda  $5A
C9E4: A9 08    lda  #$08
C9E6: 00 00    brk  #$00
C9E8: 00 0C    brk  #$0C
C9EA: 00 00    brk  #$00
C9EC: 00 FF    brk  #$FF
C9EE: FF       ill  $FF
C9EF: FF       ill  $FF
C9F0: FF       ill  $FF
C9F1: FF       ill  $FF
C9F2: FF       ill  $FF
C9F3: FF       ill  $FF
C9F4: FF       ill  $FF
C9F5: FF       ill  $FF
C9F6: FF       ill  $FF
C9F7: FF       ill  $FF
C9F8: FF       ill  $FF
C9F9: FF       ill  $FF
C9FA: FF       ill  $FF
C9FB: FF       ill  $FF
C9FC: FF       ill  $FF
C9FD: FF       ill  $FF
C9FE: FF       ill  $FF
C9FF: FF       ill  $FF
CA00: 95 80    sta  $80,x
CA02: 95 80    sta  $80,x
CA04: 95 80    sta  $80,x
CA06: 99 80 99 sta  $9980,y
CA09: 80       ill  $80
CA0A: 99 80 19 sta  $1980,y
CA0D: 00 15    brk  #$15
CA0F: 00 64    brk  #$64
CA11: 00 19    brk  #$19
CA13: 00 01    brk  #$01
CA15: 90 05    bcc  $CA1C
CA17: 40       rti  
CA18: 03       ill  $03
CA19: 77       ill  $77
CA1A: 00 00    brk  #$00
CA1C: 00 37    brk  #$37
CA1E: 70 00    bvs  $CA20
CA20: DD C0 D6 cmp  $D6C0,x
CA23: 5C       ill  $5C
CA24: D6 5C    dec  $5C,x
CA26: D6 5C    dec  $5C,x
CA28: 69 00    adc  #$00
CA2A: 69 C0    adc  #$C0
CA2C: 69 00    adc  #$00
CA2E: 1A       ill  $1A
CA2F: 40       rti  
CA30: DA       ill  $DA
CA31: 40       rti  
CA32: 1A       ill  $1A
CA33: 40       rti  
CA34: 2A       rol  a
CA35: 00 2A    brk  #$2A
CA37: 00 2A    brk  #$2A
CA39: 00 A8    brk  #$A8
CA3B: 00 A8    brk  #$A8
CA3D: 00 A8    brk  #$A8
CA3F: 00 15    brk  #$15
CA41: 50 15    bvc  $CA58
CA43: 50 15    bvc  $CA5A
CA45: 50 5D    bvc  $CAA4
CA47: 40       rti  
CA48: 5D 40 5D eor  $5D40,x
CA4B: 40       rti  
CA4C: 64       ill  $64
CA4D: 00 95    brk  #$95
CA4F: 00 16    brk  #$16
CA51: 00 19    brk  #$19
CA53: 00 05    brk  #$05
CA55: 60       rts  
CA56: 09 40    ora  #$40
CA58: 6A       ror  a
CA59: 40       rti  
CA5A: 6A       ror  a
CA5B: 40       rti  
CA5C: 6A       ror  a
CA5D: 40       rti  
CA5E: 6A       ror  a
CA5F: 40       rti  
CA60: 6A       ror  a
CA61: 40       rti  
CA62: 6A       ror  a
CA63: 40       rti  
CA64: 98       tya  
CA65: 00 5A    brk  #$5A
CA67: 00 69    brk  #$69
CA69: 00 98    brk  #$98
CA6B: 00 29    brk  #$29
CA6D: 40       rti  
CA6E: 1A       ill  $1A
CA6F: 40       rti  
CA70: 11 11    ora  ($11),y
CA72: 00 00    brk  #$00
CA74: 00 00    brk  #$00
CA76: 00 00    brk  #$00
CA78: 00 00    brk  #$00
CA7A: 00 00    brk  #$00
CA7C: 00 00    brk  #$00
CA7E: 00 00    brk  #$00
CA80: 00 00    brk  #$00
CA82: EA       nop  
CA83: AC EA AC ldy  $ACEA
CA86: EA       nop  
CA87: AC EA AC ldy  $ACEA
CA8A: EA       nop  
CA8B: AC EA AC ldy  $ACEA
CA8E: AE 80 AA ldx  $AA80
CA91: C0 EA    cpy  #$EA
CA93: 80       ill  $80
CA94: 0A       asl  a
CA95: E8       inx  
CA96: 0A       asl  a
CA97: AC 0E A8 ldy  $A80E
CA9A: 00 00    brk  #$00
CA9C: 00 02    brk  #$02
CA9E: A0 00    ldy  #$00
CAA0: 02       ill  $02
CAA1: 20 00 28 jsr  $2800
CAA4: 0A       asl  a
CAA5: 00 20    brk  #$20
CAA7: 02       ill  $02
CAA8: 00 20    brk  #$20
CAAA: 02       ill  $02
CAAB: 00 A6    brk  #$A6
CAAD: 98       tya  
CAAE: A6 98    ldx  $98
CAB0: A6 98    ldx  $98
CAB2: 96 58    stx  $58,y
CAB4: 96 58    stx  $58,y
CAB6: 96 58    stx  $58,y
CAB8: 9A       txs  
CAB9: 58       cli  
CABA: 9A       txs  
CABB: 58       cli  
CABC: 9A       txs  
CABD: 58       cli  
CABE: 16 98    asl  $98,x
CAC0: 16 98    asl  $98,x
CAC2: 16 98    asl  $98,x
CAC4: 00 04    brk  #$04
CAC6: 10 00    bpl  $CAC8
CAC8: 40       rti  
CAC9: D4       ill  $D4
CACA: 1C       ill  $1C
CACB: D0 0C    bne  $CAD9
CACD: E0 0C    cpx  #$0C
CACF: 00 00    brk  #$00
CAD1: 00 00    brk  #$00
CAD3: 00 00    brk  #$00
CAD5: 12       ill  $12
CAD6: 50 02    bvc  $CADA
CAD8: 40       rti  
CAD9: 0B       ill  $0B
CADA: 00 0A    brk  #$0A
CADC: 40       rti  
CADD: 02       ill  $02
CADE: 00 00    brk  #$00
CAE0: 00 66    brk  #$66
CAE2: 99 66 99 sta  $9966,y
CAE5: 08       php  
CAE6: 00 80    brk  #$80
CAE8: C0 0C    cpy  #$0C
CAEA: 00 C0    brk  #$C0
CAEC: 80       ill  $80
CAED: FF       ill  $FF
CAEE: FF       ill  $FF
CAEF: FF       ill  $FF
CAF0: FF       ill  $FF
CAF1: FF       ill  $FF
CAF2: FF       ill  $FF
CAF3: FF       ill  $FF
CAF4: FF       ill  $FF
CAF5: FF       ill  $FF
CAF6: FF       ill  $FF
CAF7: FF       ill  $FF
CAF8: FF       ill  $FF
CAF9: FF       ill  $FF
CAFA: FF       ill  $FF
CAFB: FF       ill  $FF
CAFC: FF       ill  $FF
CAFD: FF       ill  $FF
CAFE: FF       ill  $FF
CAFF: FF       ill  $FF
CB00: 15 00    ora  $00,x
CB02: 15 00    ora  $00,x
CB04: 15 00    ora  $00,x
CB06: 15 00    ora  $00,x
CB08: 15 00    ora  $00,x
CB0A: 15 00    ora  $00,x
CB0C: 2A       rol  a
CB0D: 00 0A    brk  #$0A
CB0F: 80       ill  $80
CB10: 2A       rol  a
CB11: 00 2A    brk  #$2A
CB13: 00 0A    brk  #$0A
CB15: 80       ill  $80
CB16: 2A       rol  a
CB17: 00 00    brk  #$00
CB19: 00 00    brk  #$00
CB1B: 00 00    brk  #$00
CB1D: 00 00    brk  #$00
CB1F: 00 00    brk  #$00
CB21: 00 DA    brk  #$DA
CB23: 9C       ill  $9C
CB24: DA       ill  $DA
CB25: 9C       ill  $9C
CB26: DA       ill  $DA
CB27: 9C       ill  $9C
CB28: AA       tax  
CB29: 00 A9    brk  #$A9
CB2B: 00 6A    brk  #$6A
CB2D: 00 2A    brk  #$2A
CB2F: 80       ill  $80
CB30: 2A       rol  a
CB31: 80       ill  $80
CB32: 2A       rol  a
CB33: 80       ill  $80
CB34: 28       plp  
CB35: 00 28    brk  #$28
CB37: 00 28    brk  #$28
CB39: 00 28    brk  #$28
CB3B: 00 28    brk  #$28
CB3D: 00 28    brk  #$28
CB3F: 00 15    brk  #$15
CB41: 50 15    bvc  $CB58
CB43: 50 15    bvc  $CB5A
CB45: 50 5D    bvc  $CBA4
CB47: 40       rti  
CB48: 5D 40 5D eor  $5D40,x
CB4B: 40       rti  
CB4C: 64       ill  $64
CB4D: 00 25    brk  #$25
CB4F: 00 01    brk  #$01
CB51: 00 19    brk  #$19
CB53: 00 05    brk  #$05
CB55: 80       ill  $80
CB56: 05 40    ora  $40
CB58: 6A       ror  a
CB59: 40       rti  
CB5A: 2A       rol  a
CB5B: 40       rti  
CB5C: 6A       ror  a
CB5D: 00 6A    brk  #$6A
CB5F: 40       rti  
CB60: 6A       ror  a
CB61: 00 2A    brk  #$2A
CB63: 40       rti  
CB64: 20 00 5A jsr  $5A00
CB67: 00 6A    brk  #$6A
CB69: 00 20    brk  #$20
CB6B: 00 29    brk  #$29
CB6D: 40       rti  
CB6E: 2A       rol  a
CB6F: 40       rti  
CB70: 0F       ill  $0F
CB71: 7C       ill  $7C
CB72: 00 FE    brk  #$FE
CB74: AA       tax  
CB75: A0 FE    ldy  #$FE
CB77: AA       tax  
CB78: A0 FE    ldy  #$FE
CB7A: AA       tax  
CB7B: A0 0E    ldy  #$0E
CB7D: AA       tax  
CB7E: A0 FE    ldy  #$FE
CB80: AA       tax  
CB81: A0 EA    ldy  #$EA
CB83: AC EA AC ldy  $ACEA
CB86: EA       nop  
CB87: AC EA AC ldy  $ACEA
CB8A: EA       nop  
CB8B: AC EA AC ldy  $ACEA
CB8E: AE 80 AB ldx  $AB80
CB91: B0 BA    bcs  $CB4D
CB93: B0 0A    bcs  $CB9F
CB95: E8       inx  
CB96: 3A       ill  $3A
CB97: B8       clv  
CB98: 3B       ill  $3B
CB99: A8       tay  
CB9A: 00 00    brk  #$00
CB9C: 00 00    brk  #$00
CB9E: 80       ill  $80
CB9F: 00 02    brk  #$02
CBA1: A0 00    ldy  #$00
CBA3: 08       php  
CBA4: 08       php  
CBA5: 00 20    brk  #$20
CBA7: 02       ill  $02
CBA8: 00 00    brk  #$00
CBAA: 00 00    brk  #$00
CBAC: 9A       txs  
CBAD: 68       pla  
CBAE: 9A       txs  
CBAF: 68       pla  
CBB0: 9A       txs  
CBB1: 68       pla  
CBB2: AA       tax  
CBB3: A8       tay  
CBB4: AA       tax  
CBB5: A8       tay  
CBB6: AA       tax  
CBB7: A8       tay  
CBB8: 66 A8    ror  $A8
CBBA: 66 A8    ror  $A8
CBBC: 66 A8    ror  $A8
CBBE: AA       tax  
CBBF: 64       ill  $64
CBC0: AA       tax  
CBC1: 64       ill  $64
CBC2: AA       tax  
CBC3: 64       ill  $64
CBC4: 00 04    brk  #$04
CBC6: 10 00    bpl  $CBC8
CBC8: 40       rti  
CBC9: DA       ill  $DA
CBCA: 9C       ill  $9C
CBCB: D2       ill  $D2
CBCC: 18       clc  
CBCD: C2       ill  $C2
CBCE: 18       clc  
CBCF: 08       php  
CBD0: 08       php  
CBD1: 02       ill  $02
CBD2: 00 00    brk  #$00
CBD4: 00 AA    brk  #$AA
CBD6: A8       tay  
CBD7: 2A       rol  a
CBD8: A0 08    ldy  #$08
CBDA: 80       ill  $80
CBDB: 00 00    brk  #$00
CBDD: 00 00    brk  #$00
CBDF: 00 00    brk  #$00
CBE1: AA       tax  
CBE2: 65 59    adc  $59
CBE4: AA       tax  
CBE5: 08       php  
CBE6: 00 23    brk  #$23
CBE8: 00 0C    brk  #$0C
CBEA: 00 32    brk  #$32
CBEC: 00 FF    brk  #$FF
CBEE: FF       ill  $FF
CBEF: FF       ill  $FF
CBF0: FF       ill  $FF
CBF1: FF       ill  $FF
CBF2: FF       ill  $FF
CBF3: FF       ill  $FF
CBF4: FF       ill  $FF
CBF5: FF       ill  $FF
CBF6: FF       ill  $FF
CBF7: FF       ill  $FF
CBF8: FF       ill  $FF
CBF9: FF       ill  $FF
CBFA: FF       ill  $FF
CBFB: FF       ill  $FF
CBFC: FF       ill  $FF
CBFD: FF       ill  $FF
CBFE: FF       ill  $FF
CBFF: FF       ill  $FF
CC00: 2A       rol  a
CC01: 00 2A    brk  #$2A
CC03: 00 2A    brk  #$2A
CC05: 00 3F    brk  #$3F
CC07: 00 3F    brk  #$3F
CC09: 00 3F    brk  #$3F
CC0B: 00 EA    brk  #$EA
CC0D: C0 3A    cpy  #$3A
CC0F: B0 EA    bcs  $CBFB
CC11: C0 EA    cpy  #$EA
CC13: C0 3A    cpy  #$3A
CC15: B0 EA    bcs  $CC01
CC17: C0 0F    cpy  #$0F
CC19: C0 00    cpy  #$00
CC1B: 00 00    brk  #$00
CC1D: 00 FC    brk  #$FC
CC1F: 00 3F    brk  #$3F
CC21: 00 00    brk  #$00
CC23: 00 00    brk  #$00
CC25: 00 00    brk  #$00
CC27: 00 55    brk  #$55
CC29: 00 55    brk  #$55
CC2B: 00 55    brk  #$55
CC2D: 00 15    brk  #$15
CC2F: 40       rti  
CC30: 15 40    ora  $40,x
CC32: 15 40    ora  $40,x
CC34: 60       rts  
CC35: 00 60    brk  #$60
CC37: 00 60    brk  #$60
CC39: 00 09    brk  #$09
CC3B: 00 09    brk  #$09
CC3D: 00 09    brk  #$09
CC3F: 00 0F    brk  #$0F
CC41: C0 0F    cpy  #$0F
CC43: C0 0F    cpy  #$0F
CC45: C0 3F    cpy  #$3F
CC47: 00 3F    brk  #$3F
CC49: 00 3F    brk  #$3F
CC4B: 00 FC    brk  #$FC
CC4D: 00 3F    brk  #$3F
CC4F: 00 3F    brk  #$3F
CC51: 00 3F    brk  #$3F
CC53: 00 0F    brk  #$0F
CC55: C0 0F    cpy  #$0F
CC57: C0 2A    cpy  #$2A
CC59: 00 2A    brk  #$2A
CC5B: 00 2A    brk  #$2A
CC5D: 00 2A    brk  #$2A
CC5F: 00 2A    brk  #$2A
CC61: 00 2A    brk  #$2A
CC63: 00 A4    brk  #$A4
CC65: 00 29    brk  #$29
CC67: 00 29    brk  #$29
CC69: 00 68    brk  #$68
CC6B: 00 1A    brk  #$1A
CC6D: 00 1A    brk  #$1A
CC6F: 00 05    brk  #$05
CC71: 54       ill  $54
CC72: 00 32    brk  #$32
CC74: 22       ill  $22
CC75: 20 C2 22 jsr  $22C2
CC78: 20 0E 22 jsr  $220E
CC7B: 20 0E 22 jsr  $220E
CC7E: 20 0E 22 jsr  $220E
CC81: 20 EA AC jsr  $ACEA
CC84: EA       nop  
CC85: AC EA AC ldy  $ACEA
CC88: EA       nop  
CC89: AC EA AC ldy  $ACEA
CC8C: EA       nop  
CC8D: AC AE 80 ldy  $80AE
CC90: AE 80 AE ldx  $AE80
CC93: 80       ill  $80
CC94: 0A       asl  a
CC95: E8       inx  
CC96: 0A       asl  a
CC97: E8       inx  
CC98: 0A       asl  a
CC99: E8       inx  
CC9A: 00 00    brk  #$00
CC9C: 00 00    brk  #$00
CC9E: 00 00    brk  #$00
CCA0: 00 80    brk  #$80
CCA2: 00 0A    brk  #$0A
CCA4: A8       tay  
CCA5: 00 00    brk  #$00
CCA7: 00 00    brk  #$00
CCA9: 00 00    brk  #$00
CCAB: 00 5A    brk  #$5A
CCAD: 64       ill  $64
CCAE: 5A       ill  $5A
CCAF: 64       ill  $64
CCB0: 5A       ill  $5A
CCB1: 64       ill  $64
CCB2: 66 94    ror  $94
CCB4: 66 94    ror  $94
CCB6: 66 94    ror  $94
CCB8: 96 58    stx  $58,y
CCBA: 96 58    stx  $58,y
CCBC: 96 58    stx  $58,y
CCBE: 96 58    stx  $58,y
CCC0: 96 58    stx  $58,y
CCC2: 96 58    stx  $58,y
CCC4: 00 10    brk  #$10
CCC6: 04       ill  $04
CCC7: 00 40    brk  #$40
CCC9: 00 00    brk  #$00
CCCB: 00 00    brk  #$00
CCCD: 00 00    brk  #$00
CCCF: 00 00    brk  #$00
CCD1: 00 00    brk  #$00
CCD3: 00 00    brk  #$00
CCD5: 26 94    rol  $94
CCD7: 06 90    asl  $90
CCD9: 00 00    brk  #$00
CCDB: 00 00    brk  #$00
CCDD: 20 00 02 jsr  $0200
CCE0: 00 96    brk  #$96
CCE2: 59 65 96 eor  $9665,y
CCE5: FF       ill  $FF
CCE6: C0 0C    cpy  #$0C
CCE8: 00 AE    brk  #$AE
CCEA: 80       ill  $80
CCEB: 0C       ill  $0C
CCEC: 00 FF    brk  #$FF
CCEE: FF       ill  $FF
CCEF: FF       ill  $FF
CCF0: FF       ill  $FF
CCF1: FF       ill  $FF
CCF2: FF       ill  $FF
CCF3: FF       ill  $FF
CCF4: FF       ill  $FF
CCF5: FF       ill  $FF
CCF6: FF       ill  $FF
CCF7: FF       ill  $FF
CCF8: FF       ill  $FF
CCF9: FF       ill  $FF
CCFA: FF       ill  $FF
CCFB: FF       ill  $FF
CCFC: FF       ill  $FF
CCFD: FF       ill  $FF
CCFE: FF       ill  $FF
CCFF: FF       ill  $FF
CD00: EA       nop  
CD01: C0 EA    cpy  #$EA
CD03: C0 EA    cpy  #$EA
CD05: C0 CC    cpy  #$CC
CD07: C0 CC    cpy  #$CC
CD09: C0 CC    cpy  #$CC
CD0B: C0 FF    cpy  #$FF
CD0D: C0 3F    cpy  #$3F
CD0F: F0 FF    beq  $CD10
CD11: C0 FF    cpy  #$FF
CD13: C0 3F    cpy  #$3F
CD15: F0 FF    beq  $CD16
CD17: C0 00    cpy  #$00
CD19: 00 00    brk  #$00
CD1B: 00 00    brk  #$00
CD1D: 00 00    brk  #$00
CD1F: 00 00    brk  #$00
CD21: 00 3F    brk  #$3F
CD23: F0 3F    beq  $CD64
CD25: F0 3F    beq  $CD66
CD27: F0 55    beq  $CD7E
CD29: 00 55    brk  #$55
CD2B: 00 55    brk  #$55
CD2D: 00 19    brk  #$19
CD2F: 40       rti  
CD30: 19 40 19 ora  $1940,y
CD33: 40       rti  
CD34: 54       ill  $54
CD35: 00 54    brk  #$54
CD37: 00 54    brk  #$54
CD39: 00 15    brk  #$15
CD3B: 00 15    brk  #$15
CD3D: 00 15    brk  #$15
CD3F: 00 0A    brk  #$0A
CD41: 80       ill  $80
CD42: 0A       asl  a
CD43: 80       ill  $80
CD44: 0A       asl  a
CD45: 80       ill  $80
CD46: 3F       ill  $3F
CD47: 00 3F    brk  #$3F
CD49: 00 3F    brk  #$3F
CD4B: 00 BC    brk  #$BC
CD4D: 00 2F    brk  #$2F
CD4F: 00 2F    brk  #$2F
CD51: 00 3E    brk  #$3E
CD53: 00 0F    brk  #$0F
CD55: 80       ill  $80
CD56: 0F       ill  $0F
CD57: 80       ill  $80
CD58: 2A       rol  a
CD59: 00 2A    brk  #$2A
CD5B: 00 2A    brk  #$2A
CD5D: 00 19    brk  #$19
CD5F: 00 19    brk  #$19
CD61: 00 19    brk  #$19
CD63: 00 A4    brk  #$A4
CD65: 00 29    brk  #$29
CD67: 00 29    brk  #$29
CD69: 00 68    brk  #$68
CD6B: 00 1A    brk  #$1A
CD6D: 00 1A    brk  #$1A
CD6F: 00 05    brk  #$05
CD71: 54       ill  $54
CD72: 00 32    brk  #$32
CD74: 22       ill  $22
CD75: 20 FE 22 jsr  $22FE
CD78: 20 3E 22 jsr  $223E
CD7B: 20 FE 22 jsr  $22FE
CD7E: 20 FE 22 jsr  $22FE
CD81: 20 EA AC jsr  $ACEA
CD84: EA       nop  
CD85: AC EA AC ldy  $ACEA
CD88: EA       nop  
CD89: AC EA AC ldy  $ACEA
CD8C: EA       nop  
CD8D: AC AA 80 ldy  $80AA
CD90: AA       tax  
CD91: 80       ill  $80
CD92: AA       tax  
CD93: 80       ill  $80
CD94: 0A       asl  a
CD95: A8       tay  
CD96: 0A       asl  a
CD97: A8       tay  
CD98: 0A       asl  a
CD99: A8       tay  
CD9A: 00 00    brk  #$00
CD9C: 00 00    brk  #$00
CD9E: 00 00    brk  #$00
CDA0: 00 00    brk  #$00
CDA2: 00 02    brk  #$02
CDA4: A0 00    ldy  #$00
CDA6: 00 00    brk  #$00
CDA8: 00 00    brk  #$00
CDAA: 00 00    brk  #$00
CDAC: 95 94    sta  $94,x
CDAE: 95 94    sta  $94,x
CDB0: 95 94    sta  $94,x
CDB2: 59 58 59 eor  $5958,y
CDB5: 58       cli  
CDB6: 59 58 65 eor  $6558,y
CDB9: 64       ill  $64
CDBA: 65 64    adc  $64
CDBC: 65 64    adc  $64
CDBE: 65 64    adc  $64
CDC0: 65 64    adc  $64
CDC2: 65 64    adc  $64
CDC4: 00 10    brk  #$10
CDC6: 04       ill  $04
CDC7: 00 40    brk  #$40
CDC9: 3C       ill  $3C
CDCA: F0 30    beq  $CDFC
CDCC: 30 30    bmi  $CDFE
CDCE: 00 00    brk  #$00
CDD0: 00 20    brk  #$20
CDD2: 00 02    brk  #$02
CDD4: 00 19    brk  #$19
CDD6: 50 09    bvc  $CDE1
CDD8: 40       rti  
CDD9: 00 00    brk  #$00
CDDB: 00 00    brk  #$00
CDDD: 00 80    brk  #$80
CDDF: 00 00    brk  #$00
CDE1: 66 69    ror  $69
CDE3: 69 99    adc  #$99
CDE5: 08       php  
CDE6: 00 32    brk  #$32
CDE8: 00 0C    brk  #$0C
CDEA: 00 23    brk  #$23
CDEC: 00 FF    brk  #$FF
CDEE: FF       ill  $FF
CDEF: FF       ill  $FF
CDF0: FF       ill  $FF
CDF1: FF       ill  $FF
CDF2: FF       ill  $FF
CDF3: FF       ill  $FF
CDF4: FF       ill  $FF
CDF5: FF       ill  $FF
CDF6: FF       ill  $FF
CDF7: FF       ill  $FF
CDF8: FF       ill  $FF
CDF9: FF       ill  $FF
CDFA: FF       ill  $FF
CDFB: FF       ill  $FF
CDFC: FF       ill  $FF
CDFD: FF       ill  $FF
CDFE: FF       ill  $FF
CDFF: FF       ill  $FF
CE00: EA       nop  
CE01: C0 EA    cpy  #$EA
CE03: C0 EA    cpy  #$EA
CE05: C0 FF    cpy  #$FF
CE07: C0 FF    cpy  #$FF
CE09: C0 FF    cpy  #$FF
CE0B: C0 AA    cpy  #$AA
CE0D: C0 2A    cpy  #$2A
CE0F: B0 AA    bcs  $CDBB
CE11: C0 EA    cpy  #$EA
CE13: 80       ill  $80
CE14: 3A       ill  $3A
CE15: A0 EA    ldy  #$EA
CE17: 80       ill  $80
CE18: FF       ill  $FF
CE19: C0 00    cpy  #$00
CE1B: 00 00    brk  #$00
CE1D: 00 FF    brk  #$FF
CE1F: C0 FF    cpy  #$FF
CE21: C0 3F    cpy  #$3F
CE23: F0 3F    beq  $CE64
CE25: F0 3F    beq  $CE66
CE27: F0 14    beq  $CE3D
CE29: 00 14    brk  #$14
CE2B: 00 14    brk  #$14
CE2D: 00 1A    brk  #$1A
CE2F: 40       rti  
CE30: 1A       ill  $1A
CE31: 40       rti  
CE32: 1A       ill  $1A
CE33: 40       rti  
CE34: 18       clc  
CE35: 00 18    brk  #$18
CE37: 00 18    brk  #$18
CE39: 00 24    brk  #$24
CE3B: 00 24    brk  #$24
CE3D: 00 24    brk  #$24
CE3F: 00 0A    brk  #$0A
CE41: 80       ill  $80
CE42: 0A       asl  a
CE43: 80       ill  $80
CE44: 0A       asl  a
CE45: 80       ill  $80
CE46: 0C       ill  $0C
CE47: 00 0C    brk  #$0C
CE49: 00 0C    brk  #$0C
CE4B: 00 B0    brk  #$B0
CE4D: 00 2C    brk  #$2C
CE4F: 00 2C    brk  #$2C
CE51: 00 0E    brk  #$0E
CE53: 00 03    brk  #$03
CE55: 80       ill  $80
CE56: 03       ill  $03
CE57: 80       ill  $80
CE58: 2A       rol  a
CE59: 00 2A    brk  #$2A
CE5B: 00 2A    brk  #$2A
CE5D: 00 2A    brk  #$2A
CE5F: 00 2A    brk  #$2A
CE61: 00 2A    brk  #$2A
CE63: 00 A8    brk  #$A8
CE65: 00 2A    brk  #$2A
CE67: 00 2A    brk  #$2A
CE69: 00 A8    brk  #$A8
CE6B: 00 2A    brk  #$2A
CE6D: 00 2A    brk  #$2A
CE6F: 00 05    brk  #$05
CE71: 54       ill  $54
CE72: 00 32    brk  #$32
CE74: 22       ill  $22
CE75: 20 0E 22 jsr  $220E
CE78: 20 0E 22 jsr  $220E
CE7B: 20 CE 22 jsr  $22CE
CE7E: 20 C2 22 jsr  $22C2
CE81: 20 01 00 jsr  $0001
CE84: 01 00    ora  ($00,x)
CE86: 01 00    ora  ($00,x)
CE88: 01 00    ora  ($00,x)
CE8A: 01 00    ora  ($00,x)
CE8C: 01 00    ora  ($00,x)
CE8E: 04       ill  $04
CE8F: 00 04    brk  #$04
CE91: 00 04    brk  #$04
CE93: 00 00    brk  #$00
CE95: 40       rti  
CE96: 00 40    brk  #$40
CE98: 00 40    brk  #$40
CE9A: 00 00    brk  #$00
CE9C: 00 00    brk  #$00
CE9E: 00 00    brk  #$00
CEA0: 00 00    brk  #$00
CEA2: 00 00    brk  #$00
CEA4: 80       ill  $80
CEA5: 00 02    brk  #$02
CEA7: A0 00    ldy  #$00
CEA9: 00 80    brk  #$80
CEAB: 00 66    brk  #$66
CEAD: 68       pla  
CEAE: 66 68    ror  $68
CEB0: 66 68    ror  $68
CEB2: A6 64    ldx  $64
CEB4: A6 64    ldx  $64
CEB6: A6 64    ldx  $64
CEB8: A9 A0    lda  #$A0
CEBA: A9 A0    lda  #$A0
CEBC: A9 A0    lda  #$A0
CEBE: 29 A8    and  #$A8
CEC0: 29 A8    and  #$A8
CEC2: 29 A8    and  #$A8
CEC4: 00 40    brk  #$40
CEC6: 01 00    ora  ($00,x)
CEC8: 40       rti  
CEC9: 3F       ill  $3F
CECA: F0 3C    beq  $CF08
CECC: F0 20    beq  $CEEE
CECE: 30 20    bmi  $CEF0
CED0: 20 00 80 jsr  $8000
CED3: 00 00    brk  #$00
CED5: 22       ill  $22
CED6: 60       rts  
CED7: 02       ill  $02
CED8: 00 00    brk  #$00
CEDA: 00 00    brk  #$00
CEDC: 00 00    brk  #$00
CEDE: 00 00    brk  #$00
CEE0: 00 69    brk  #$69
CEE2: A5 5A    lda  $5A
CEE4: 69 08    adc  #$08
CEE6: 00 C0    brk  #$C0
CEE8: 80       ill  $80
CEE9: 0C       ill  $0C
CEEA: 00 80    brk  #$80
CEEC: C0 FF    cpy  #$FF
CEEE: FF       ill  $FF
CEEF: FF       ill  $FF
CEF0: FF       ill  $FF
CEF1: FF       ill  $FF
CEF2: FF       ill  $FF
CEF3: FF       ill  $FF
CEF4: FF       ill  $FF
CEF5: FF       ill  $FF
CEF6: FF       ill  $FF
CEF7: FF       ill  $FF
CEF8: FF       ill  $FF
CEF9: FF       ill  $FF
CEFA: FF       ill  $FF
CEFB: FF       ill  $FF
CEFC: FF       ill  $FF
CEFD: FF       ill  $FF
CEFE: FF       ill  $FF
CEFF: FF       ill  $FF
CF00: FB       ill  $FB
CF01: C0 FB    cpy  #$FB
CF03: C0 FB    cpy  #$FB
CF05: C0 2A    cpy  #$2A
CF07: 00 2A    brk  #$2A
CF09: 00 2A    brk  #$2A
CF0B: 00 2A    brk  #$2A
CF0D: C0 0A    cpy  #$0A
CF0F: B0 2A    bcs  $CF3B
CF11: C0 EA    cpy  #$EA
CF13: 00 3A    brk  #$3A
CF15: 80       ill  $80
CF16: EA       nop  
CF17: 00 A8    brk  #$A8
CF19: 00 00    brk  #$00
CF1B: 00 00    brk  #$00
CF1D: 00 0A    brk  #$0A
CF1F: 80       ill  $80
CF20: 2A       rol  a
CF21: 00 0A    brk  #$0A
CF23: 80       ill  $80
CF24: 0A       asl  a
CF25: 80       ill  $80
CF26: 0A       asl  a
CF27: 80       ill  $80
CF28: 14       ill  $14
CF29: 00 14    brk  #$14
CF2B: 00 14    brk  #$14
CF2D: 00 05    brk  #$05
CF2F: 00 05    brk  #$05
CF31: 00 05    brk  #$05
CF33: 00 14    brk  #$14
CF35: 00 14    brk  #$14
CF37: 00 14    brk  #$14
CF39: 00 14    brk  #$14
CF3B: 00 14    brk  #$14
CF3D: 00 14    brk  #$14
CF3F: 00 0A    brk  #$0A
CF41: 80       ill  $80
CF42: 0A       asl  a
CF43: 80       ill  $80
CF44: 0A       asl  a
CF45: 80       ill  $80
CF46: 2A       rol  a
CF47: 00 2A    brk  #$2A
CF49: 00 2A    brk  #$2A
CF4B: 00 A8    brk  #$A8
CF4D: 00 2A    brk  #$2A
CF4F: 00 2A    brk  #$2A
CF51: 00 2A    brk  #$2A
CF53: 00 0A    brk  #$0A
CF55: 80       ill  $80
CF56: 0A       asl  a
CF57: 80       ill  $80
CF58: 2A       rol  a
CF59: 00 2A    brk  #$2A
CF5B: 00 2A    brk  #$2A
CF5D: 00 2A    brk  #$2A
CF5F: 00 2A    brk  #$2A
CF61: 00 2A    brk  #$2A
CF63: 00 A8    brk  #$A8
CF65: 00 2A    brk  #$2A
CF67: 00 2A    brk  #$2A
CF69: 00 A8    brk  #$A8
CF6B: 00 2A    brk  #$2A
CF6D: 00 2A    brk  #$2A
CF6F: 00 01    brk  #$01
CF71: 50 00    bvc  $CF73
CF73: F2       ill  $F2
CF74: AA       tax  
CF75: A0 FE    ldy  #$FE
CF77: AA       tax  
CF78: A0 FE    ldy  #$FE
CF7A: AA       tax  
CF7B: A0 C2    ldy  #$C2
CF7D: AA       tax  
CF7E: A0 FE    ldy  #$FE
CF80: AA       tax  
CF81: A0 05    ldy  #$05
CF83: 40       rti  
CF84: 05 40    ora  $40
CF86: 05 40    ora  $40
CF88: 05 40    ora  $40
CF8A: 05 40    ora  $40
CF8C: 05 40    ora  $40
CF8E: 15 00    ora  $00,x
CF90: 15 00    ora  $00,x
CF92: 15 00    ora  $00,x
CF94: 01 50    ora  ($50,x)
CF96: 01 50    ora  ($50,x)
CF98: 01 50    ora  ($50,x)
CF9A: 00 00    brk  #$00
CF9C: 00 00    brk  #$00
CF9E: 00 00    brk  #$00
CFA0: 00 00    brk  #$00
CFA2: 00 00    brk  #$00
CFA4: 00 00    brk  #$00
CFA6: 00 80    brk  #$80
CFA8: 00 00    brk  #$00
CFAA: 00 00    brk  #$00
CFAC: 26 50    rol  $50
CFAE: 26 50    rol  $50
CFB0: 26 50    rol  $50
CFB2: 16 60    asl  $60,x
CFB4: 16 60    asl  $60,x
CFB6: 16 60    asl  $60,x
CFB8: 19 40 19 ora  $1940,y
CFBB: 40       rti  
CFBC: 19 40 05 ora  $0540,y
CFBF: 90 05    bcc  $CFC6
CFC1: 90 05    bcc  $CFC8
CFC3: 90 00    bcc  $CFC5
CFC5: 40       rti  
CFC6: 01 55    ora  ($55,x)
CFC8: 40       rti  
CFC9: 0A       asl  a
CFCA: 80       ill  $80
CFCB: 0A       asl  a
CFCC: 80       ill  $80
CFCD: 02       ill  $02
CFCE: 80       ill  $80
CFCF: 00 00    brk  #$00
CFD1: 00 00    brk  #$00
CFD3: 00 00    brk  #$00
CFD5: 04       ill  $04
CFD6: 00 00    brk  #$00
CFD8: 00 00    brk  #$00
CFDA: 00 00    brk  #$00
CFDC: 00 00    brk  #$00
CFDE: 00 00    brk  #$00
CFE0: 00 56    brk  #$56
CFE2: 95 56    sta  $56,x
CFE4: 95 08    sta  $08,x
CFE6: 00 00    brk  #$00
CFE8: 00 0C    brk  #$0C
CFEA: 00 00    brk  #$00
CFEC: 00 FF    brk  #$FF
CFEE: FF       ill  $FF
CFEF: FF       ill  $FF
CFF0: FF       ill  $FF
CFF1: FF       ill  $FF
CFF2: FF       ill  $FF
CFF3: FF       ill  $FF
CFF4: FF       ill  $FF
CFF5: FF       ill  $FF
CFF6: FF       ill  $FF
CFF7: FF       ill  $FF
CFF8: FF       ill  $FF
CFF9: FF       ill  $FF
CFFA: FF       ill  $FF
CFFB: FF       ill  $FF
CFFC: FF       ill  $FF
CFFD: FF       ill  $FF
CFFE: FF       ill  $FF
CFFF: FF       ill  $FF
D000: 20 56 E3 jsr  $E356
D003: A9 06    lda  #$06
D005: 20 95 E3 jsr  $E395
D008: 20 F9 F6 jsr  $F6F9
D00B: 20 86 DC jsr  $DC86
D00E: 4C 00 B0 jmp  $B000

D011: 20 56 E3 jsr  $E356
D014: A9 08    lda  #$08
D016: 20 95 E3 jsr  $E395
D019: 20 AA DE jsr  $DEAA
D01C: A2 00    ldx  #$00
D01E: 86 21    stx  $21
D020: 86 22    stx  $22
D022: 86 23    stx  $23
D024: A5 E5    lda  $E5
D026: C5 E7    cmp  $E7
D028: F0 FA    beq  $D024
D02A: 85 E7    sta  $E7
D02C: 20 34 DB jsr  $DB34
D02F: 20 5D D3 jsr  $D35D
D032: E8       inx  
D033: E8       inx  
D034: D0 E8    bne  $D01E
D036: A2 0F    ldx  #$0F
D038: 86 21    stx  $21
D03A: 86 22    stx  $22
D03C: 86 23    stx  $23
D03E: A0 04    ldy  #$04
D040: A5 E5    lda  $E5
D042: C5 E7    cmp  $E7
D044: F0 FA    beq  $D040
D046: 85 E7    sta  $E7
D048: 20 34 DB jsr  $DB34
D04B: 20 5D D3 jsr  $D35D
D04E: 88       dey  
D04F: 10 EF    bpl  $D040
D051: CA       dex  
D052: 10 E4    bpl  $D038
D054: A6 61    ldx  $61
D056: B5 E0    lda  $E0,x
D058: D0 33    bne  $D08D
D05A: A5 62    lda  CURPLAYERS
D05C: F0 2F    beq  $D08D
D05E: 8A       txa  
D05F: 49 01    eor  #$01
D061: AA       tax  
D062: B5 E0    lda  $E0,x
D064: F0 27    beq  $D08D
D066: 30 25    bmi  $D08D
D068: A9 01    lda  #$01
D06A: 85 67    sta  $67
D06C: 20 91 D6 jsr  $D691
D06F: 20 5A DD jsr  $DD5A
D072: 20 70 F5 jsr  $F570
D075: 20 8A F5 jsr  $F58A
D078: A9 40    lda  #$40
D07A: 85 CA    sta  $CA
D07C: 20 38 F5 jsr  $F538
D07F: 20 5D D3 jsr  $D35D
D082: 20 34 DB jsr  $DB34
D085: A5 CA    lda  $CA
D087: D0 F3    bne  $D07C
D089: A9 00    lda  #$00
D08B: 85 67    sta  $67
D08D: AD 14 19 lda  $1914
D090: 85 A0    sta  $A0
D092: AD 0D 19 lda  $190D
D095: 85 B7    sta  $B7
D097: A9 00    lda  #$00
D099: A2 0F    ldx  #$0F
D09B: 9D 06 19 sta  $1906,x
D09E: CA       dex  
D09F: 10 FA    bpl  $D09B

;Count number of each sprite left on screen

D0A1: A0 52    ldy  #$52	;$52 Sprite to count
D0A3: B9 91 1F lda  SPRITE_STATE_1F91,y	;Get sprite enabled flag
D0A6: 29 03    and  #$03	;Mask off 
D0A8: F0 18    beq  $D0C2	;Branch if it's not enabled
D0AA: C9 03    cmp  #$03	;
D0AC: F0 14    beq  $D0C2	;Branch if it's in state 3
D0AE: B9 8C 1E lda  SPRITE_TYPE_1E8C,y	;Get sprite type
D0B1: 29 1F    and  #$1F	;Mask it off
D0B3: F0 0D    beq  $D0C2	;Skip if it's the player
D0B5: C9 10    cmp  #$10	;
D0B7: F0 04    beq  $D0BD	;Count it if it's an electrode
D0B9: C9 0B    cmp  #$0B	;
D0BB: B0 05    bcs  $D0C2	;Don't count it if it's a Prog,Enforcer shot,Brain shot, or Tank shot
D0BD: AA       tax  		;
D0BE: CA       dex  		;offset by one beacuse of player
D0BF: FE 06 19 inc  $1906,x	;Increment the items count
D0C2: 88       dey  		;Next sprite
D0C3: D0 DE    bne  $D0A3	;Done?

D0C5: AD 0D 19 lda  $190D	;Get number of Tank shots
D0C8: F0 11    beq  $D0DB	;Branch if there aren't any
D0CA: 18       clc  		
D0CB: 69 03    adc  #$03	
D0CD: 4A       lsr  a
D0CE: 4A       lsr  a
D0CF: D0 02    bne  $D0D3
D0D1: A9 01    lda  #$01
D0D3: CD 0B 19 cmp  $190B	;Compare to number of enforcer shots	
D0D6: 90 03    bcc  $D0DB
D0D8: 8D 0B 19 sta  $190B
D0DB: A5 B7    lda  $B7
D0DD: 8D 0D 19 sta  $190D
D0E0: A5 A0    lda  $A0
D0E2: 8D 14 19 sta  $1914
D0E5: 68       pla  
D0E6: 68       pla  
D0E7: 4C A6 90 jmp  $90A6

D0EA: BD 8C 1E lda  SPRITE_TYPE_1E8C,x	;Get sprite type
D0ED: 29 1F    and  #$1F	;Mask it off
D0EF: A8       tay  		;move it to Y
D0F0: B9 80 FC lda  $FC80,y	;Get page data is on
D0F3: 85 B4    sta  $B4		;Store in pointer
D0F5: BD D9 1C lda  SPRITE_ANIM_FRAME_1CD9,x	;Get animation frame
D0F8: C0 0C    cpy  #$0C	;Enforcer shot?
D0FA: D0 02    bne  $D0FE	;Branch if not
D0FC: 29 03    and  #$03	;Mask it
D0FE: 85 B3    sta  $B3		;Store in low byte of pointer

;Determine if this sprite can face different directions

D100: A9 00    lda  #$00	;
D102: C0 0A    cpy  #$0A	;Is this a Brain?
D104: F0 0C    beq  $D112	;Branch if it is
D106: C0 0B    cpy  #$0B	;Is this a prog?
D108: F0 08    beq  $D112	;Branch if it is
D10A: C0 0F    cpy  #$0F	;
D10C: B0 04    bcs  $D112	;Branch If type >= F
D10E: C0 06    cpy  #$06	;
D110: B0 03    bcs  $D115	;Branch if type >=6

D112: BD D4 1B lda  SPRITE_DIRECTION_1BD4,x	;Get direction sprite is facing
D115: 18       clc  		;
D116: 79 91 FC adc  $FC91,y	;
D119: A8       tay  
D11A: B9 53 FE lda  $FE53,y	;Width
D11D: 85 AF    sta  $AF		;
D11F: B9 F9 FD lda  $FDF9,y
D122: 85 AC    sta  $AC
D124: B9 AD FE lda  $FEAD,y
D127: 85 AB    sta  $AB
D129: B9 A2 FC lda  $FCA2,y
D12C: 65 B3    adc  $B3
D12E: A8       tay  
D12F: B9 FC FC lda  $FCFC,y
D132: 85 B3    sta  $B3
D134: 60       rts  

D135: 84 A4    sty  $A4
D137: 85 B7    sta  $B7
D139: 18       clc  
D13A: BD 8C 1E lda  SPRITE_TYPE_1E8C,x
D13D: 29 1F    and  #$1F
D13F: A8       tay  
D140: A5 B7    lda  $B7
D142: 79 91 FC adc  $FC91,y
D145: A8       tay  
D146: B9 F9 FD lda  $FDF9,y
D149: 85 AC    sta  $AC
D14B: B9 AD FE lda  $FEAD,y
D14E: 85 AB    sta  $AB
D150: A4 A4    ldy  $A4
D152: 60       rts  
D153: A9 00    lda  #$00
D155: 85 A4    sta  $A4
D157: A9 02    lda  #$02
D159: 38       sec  
D15A: FD CF 1A sbc  SPRITE_X,x
D15D: 90 11    bcc  $D170
D15F: 18       clc  
D160: 7D E3 1E adc  SPRITE_X_EXTENT,x
D163: 9D E3 1E sta  SPRITE_X_EXTENT,x
D166: A9 02    lda  #$02
D168: 9D CF 1A sta  SPRITE_X,x
D16B: E6 A4    inc  $A4
D16D: 4C 86 D1 jmp  $D186
D170: A9 9C    lda  #$9C
D172: 38       sec  
D173: FD E3 1E sbc  SPRITE_X_EXTENT,x
D176: B0 0E    bcs  $D186
D178: 18       clc  
D179: 7D CF 1A adc  SPRITE_X,x
D17C: 9D CF 1A sta  SPRITE_X,x
D17F: A9 9C    lda  #$9C
D181: 9D E3 1E sta  SPRITE_X_EXTENT,x
D184: E6 A4    inc  $A4
D186: A9 12    lda  #$12
D188: 38       sec  
D189: FD 26 1B sbc  SPRITE_Y,x
D18C: 90 0F    bcc  $D19D
D18E: 18       clc  
D18F: 7D 3A 1F adc  SPRITE_Y_EXTENT,x
D192: 9D 3A 1F sta  SPRITE_Y_EXTENT,x
D195: A9 12    lda  #$12
D197: 9D 26 1B sta  SPRITE_Y,x
D19A: E6 A4    inc  $A4
D19C: 60       rts  
D19D: A9 BC    lda  #$BC
D19F: 38       sec  
D1A0: FD 3A 1F sbc  SPRITE_Y_EXTENT,x
D1A3: B0 F7    bcs  $D19C
D1A5: 18       clc  
D1A6: 7D 26 1B adc  SPRITE_Y,x
D1A9: 9D 26 1B sta  SPRITE_Y,x
D1AC: A9 BC    lda  #$BC
D1AE: 9D 3A 1F sta  SPRITE_Y_EXTENT,x
D1B1: E6 A4    inc  $A4
D1B3: 60       rts  


; Check within boundary playfields, and adjust as necessary
; Inputs:
; x = index of object
; $BE = X of object
; $BF = Y of object
; $C0 = X + width of object (known as X extent)
; $C1 = Y + height of object (known as Y extent)
; Outputs:
; $BE, $BF, $C0, $C1 adjusted as necessary to keep the coordinates in playfield

D1B4: A9 00    lda  #$00	
D1B6: 85 A4    sta  $A4
D1B8: A5 BE    lda  $BE		; get X coord	
D1BA: 18       clc  
D1BB: 69 10    adc  #$10	; add 16
D1BD: C9 12    cmp  #$12	; is result #$12?
D1BF: 90 06    bcc  $D1C7	; no, its less than #$12, we're out of bounds, so get old sprite X and save back to $BE
D1C1: A5 C0    lda  $C0		; is the x extent> #$9C?
D1C3: C9 9C    cmp  #$9C	
D1C5: 90 0C    bcc  $D1D3	; X coord is OK jump to $d1d3 to check Y
D1C7: BD CF 1A lda  SPRITE_X,x		; oh dear, X coord needs reset to what it was..
D1CA: 85 BE    sta  $BE
D1CC: BD E3 1E lda  SPRITE_X_EXTENT,x	; ..and so does the X extent 
D1CF: 85 C0    sta  $C0
D1D1: E6 A4    inc  $A4		; $A4 must be a "boundary hit" counter
D1D3: A5 BF    lda  $BF		; get Y coord
D1D5: C9 12    cmp  #$12	; < #12?
D1D7: 90 07    bcc  $D1E0	; yes, so we need to reset the Y coordinate to what it was before
D1D9: A5 C1    lda  $C1		; get Y extent
D1DB: C9 BC    cmp  #$BC	; > #$BC ?
D1DD: B0 01    bcs  $D1E0	; yes
D1DF: 60       rts			; If we get here, then X and Y must be OK, so exit sub
D1E0: BD 26 1B lda  SPRITE_Y,x	; get old Y coordinate
D1E3: 85 BF    sta  $BF		; store back
D1E5: BD 3A 1F lda  SPRITE_Y_EXTENT,x	; get old Y extent
D1E8: 85 C1    sta  $C1		; store back
D1EA: E6 A4    inc  $A4		; and increment boundary hit counter
D1EC: 60       rts			; exit sub

D1ED: A9 00    lda  #$00
D1EF: 85 A4    sta  $A4
D1F1: A5 BE    lda  $BE
D1F3: 18       clc  
D1F4: 69 10    adc  #$10
D1F6: C9 12    cmp  #$12
D1F8: 90 15    bcc  $D20F
D1FA: A5 C0    lda  $C0
D1FC: C9 9C    cmp  #$9C
D1FE: 90 1B    bcc  $D21B
D200: BD D4 1B lda  SPRITE_DIRECTION_1BD4,x
D203: C9 03    cmp  #$03
D205: F0 14    beq  $D21B
D207: C9 06    cmp  #$06
D209: F0 10    beq  $D21B
D20B: C9 07    cmp  #$07
D20D: F0 0C    beq  $D21B
D20F: BD CF 1A lda  SPRITE_X,x
D212: 85 BE    sta  $BE
D214: BD E3 1E lda  SPRITE_X_EXTENT,x
D217: 85 C0    sta  $C0
D219: E6 A4    inc  $A4
D21B: A5 BF    lda  $BF
D21D: C9 12    cmp  #$12
D21F: 90 07    bcc  $D228
D221: A5 C1    lda  $C1
D223: C9 BC    cmp  #$BC
D225: B0 01    bcs  $D228
D227: 60       rts  
D228: BD 26 1B lda  SPRITE_Y,x
D22B: 85 BF    sta  $BF
D22D: BD 3A 1F lda  SPRITE_Y_EXTENT,x
D230: 85 C1    sta  $C1
D232: E6 A4    inc  $A4
D234: 60       rts  
D235: C9 9C    cmp  #$9C
D237: 90 05    bcc  $D23E
D239: A9 9C    lda  #$9C
D23B: 4C 44 D2 jmp  $D244
D23E: C9 02    cmp  #$02
D240: B0 02    bcs  $D244
D242: A9 02    lda  #$02
D244: 60       rts  
D245: C9 BC    cmp  #$BC
D247: 90 05    bcc  $D24E
D249: A9 BC    lda  #$BC
D24B: 4C 54 D2 jmp  $D254
D24E: C9 12    cmp  #$12
D250: B0 02    bcs  $D254
D252: A9 12    lda  #$12
D254: 60       rts  

D255: A5 E3    lda  $E3
D257: F0 05    beq  $D25E
D259: A5 74    lda  $74
D25B: F0 01    beq  $D25E
D25D: 60       rts  


;******************************************************8
;Update score on display 

D25E: 86 B7    stx  $B7
D260: A6 61    ldx  $61		;Get player number
D262: D0 14    bne  $D278	;Branch if player 2
D264: A9 00    lda  #$00	;Set pointer to $2100
D266: 85 BA    sta  $BA		;
D268: A9 21    lda  #$21	;
D26A: 85 BB    sta  $BB		;
D26C: A9 01    lda  #$01	
D26E: 85 A1    sta  $A1		
D270: A9 FF    lda  #$FF
D272: 85 A5    sta  $A5
D274: A2 03    ldx  #$03
D276: D0 12    bne  $D28A

D278: A9 07    lda  #$07	;Set pointer to $2107
D27A: 85 BA    sta  $BA		;
D27C: A9 21    lda  #$21	;
D27E: 85 BB    sta  $BB		;
D280: A9 0B    lda  #$0B	
D282: 85 A1    sta  $A1		
D284: A9 03    lda  #$03
D286: 85 A5    sta  $A5
D288: A2 07    ldx  #$07

D28A: A9 00    lda  #$00
D28C: A8       tay  
D28D: 85 A2    sta  $A2
D28F: B5 40    lda  $40,x	;Get score
D291: 85 A3    sta  $A3		
D293: CA       dex  		
D294: 4C C0 D2 jmp  $D2C0

D297: B5 40    lda  $40,x
D299: 85 A3    sta  $A3
D29B: 4A       lsr  a
D29C: 4A       lsr  a
D29D: 4A       lsr  a
D29E: 4A       lsr  a
D29F: 85 A4    sta  $A4
D2A1: D0 08    bne  $D2AB
D2A3: A5 A2    lda  $A2
D2A5: D0 04    bne  $D2AB
D2A7: 91 BA    sta  ($BA),y
D2A9: F0 0B    beq  $D2B6
D2AB: A5 A4    lda  $A4
D2AD: 18       clc  
D2AE: 65 A1    adc  $A1
D2B0: 91 BA    sta  ($BA),y
D2B2: A9 01    lda  #$01
D2B4: 85 A2    sta  $A2
D2B6: C8       iny  
D2B7: CA       dex  
D2B8: E4 A5    cpx  $A5
D2BA: D0 04    bne  $D2C0
D2BC: A9 01    lda  #$01
D2BE: 85 A2    sta  $A2

D2C0: A5 A3    lda  $A3
D2C2: 29 0F    and  #$0F
D2C4: 85 A4    sta  $A4
D2C6: D0 09    bne  $D2D1
D2C8: A5 A2    lda  $A2
D2CA: D0 05    bne  $D2D1
D2CC: 91 BA    sta  ($BA),y
D2CE: 4C DC D2 jmp  $D2DC

D2D1: A5 A4    lda  $A4
D2D3: 18       clc  
D2D4: 65 A1    adc  $A1
D2D6: 91 BA    sta  ($BA),y
D2D8: A9 01    lda  #$01
D2DA: 85 A2    sta  $A2
D2DC: C8       iny  
D2DD: E4 A5    cpx  $A5
D2DF: D0 B6    bne  $D297
D2E1: A6 B7    ldx  $B7
D2E3: 60       rts  

; **************************************************************
; Write level data to display
 
D2E4: 86 B7    stx  $B7		;Save X
D2E6: A0 00    ldy  #$00	;index of level digit
D2E8: A6 61    ldx  $61		;Get player number
D2EA: D0 0E    bne  $D2FA	;Branch if player 2
D2EC: A9 1C    lda  #$1C	;Pointer to $211C
D2EE: 85 BA    sta  $BA		;
D2F0: A9 21    lda  #$21	;
D2F2: 85 BB    sta  $BB		;
D2F4: A9 01    lda  #$01	
D2F6: 85 A1    sta  $A1				
D2F8: D0 0C    bne  $D306	;Branch Always

D2FA: A9 23    lda  #$23	;Pointer to $2123
D2FC: 85 BA    sta  $BA		;
D2FE: A9 21    lda  #$21	;
D300: 85 BB    sta  $BB		;
D302: A9 0B    lda  #$0B
D304: 85 A1    sta  $A1

D306: B5 E8    lda  $E8,x	;Get level
D308: 85 A3    sta  $A3		;Save it
D30A: 4A       lsr  a		;Shift down top digit
D30B: 4A       lsr  a		;
D30C: 4A       lsr  a		;
D30D: 4A       lsr  a		;
D30E: D0 04    bne  $D314		
D310: 91 BA    sta  ($BA),y	;Write character to memory
D312: F0 05    beq  $D319	;Branch always
D314: 18       clc  		
D315: 65 A1    adc  $A1		
D317: 91 BA    sta  ($BA),y	;Write character to memory
D319: C8       iny  		;next character
D31A: A5 A3    lda  $A3		;Get level from temp
D31C: 29 0F    and  #$0F	;mask off bottom 4 bits
D31E: 18       clc  		
D31F: 65 A1    adc  $A1
D321: 91 BA    sta  ($BA),y	;Write character to memory
D323: A6 B7    ldx  $B7		;restore X
D325: 60       rts  

;******************************************************************
;Update lives display

D326: A5 E3    lda  $E3		;In attract mode?
D328: F0 05    beq  $D32F	;branch if not in attract mode	
D32A: A5 74    lda  $74		;In play mode?
D32C: F0 01    beq  $D32F	
D32E: 60       rts  

D32F: A6 61    ldx  $61		;Get player number
D331: D0 0A    bne  $D33D	;Player 1?
D333: A9 0E    lda  #$0E	;Pointer to $210E
D335: 85 BA    sta  $BA		;
D337: A9 21    lda  #$21	;
D339: 85 BB    sta  $BB		;
D33B: D0 08    bne  $D345
D33D: A9 15    lda  #$15	;Pointer to $2115
D33F: 85 BA    sta  $BA		;
D341: A9 21    lda  #$21	;
D343: 85 BB    sta  $BB		;
D345: B5 E0    lda  $E0,x	;Get number of lives for player
D347: 85 B6    sta  $B6		;Save it
D349: A0 00    ldy  #$00	;	
D34B: C6 B6    dec  $B6		;count down players
D34D: 10 04    bpl  $D353	;below 0?
D34F: A9 00    lda  #$00	;if so set character to 0	
D351: F0 02    beq  $D355	;Branch always
D353: A9 15    lda  #$15	;set character to 15
D355: 91 BA    sta  ($BA),y	;put it on the screen
D357: C8       iny  		;next
D358: C0 07    cpy  #$07	;draw a maximum of 7 live indicators
D35A: 90 EF    bcc  $D34B	;
D35C: 60       rts  		;

D35D: A5 CA    lda  $CA
D35F: 29 03    and  #$03
D361: D0 01    bne  $D364
D363: 60       rts  
D364: A5 C7    lda  $C7
D366: 18       clc  
D367: 69 01    adc  #$01
D369: 85 C7    sta  $C7
D36B: 29 0F    and  #$0F
D36D: C9 0E    cmp  #$0E
D36F: 90 06    bcc  $D377
D371: A9 04    lda  #$04
D373: 85 B7    sta  $B7
D375: D0 08    bne  $D37F
D377: C9 03    cmp  #$03
D379: B0 0C    bcs  $D387
D37B: A9 0D    lda  #$0D
D37D: 85 B7    sta  $B7
D37F: A5 C7    lda  $C7
D381: 29 F0    and  #$F0
D383: 05 B7    ora  $B7
D385: 85 C7    sta  $C7
D387: 85 23    sta  $23
D389: A5 C7    lda  $C7
D38B: 29 0F    and  #$0F
D38D: 09 30    ora  #$30
D38F: 85 37    sta  $37
D391: 49 0F    eor  #$0F
D393: 85 39    sta  $39
D395: A5 C7    lda  $C7
D397: 49 FF    eor  #$FF
D399: 29 0F    and  #$0F
D39B: 09 90    ora  #$90
D39D: 85 36    sta  $36
D39F: A5 C7    lda  $C7
D3A1: 49 FF    eor  #$FF
D3A3: 29 0F    and  #$0F
D3A5: 85 33    sta  $33
D3A7: 60       rts  

;Random number generator?
;  returns random in $C5 and accumulator

D3A8: 98       tya  
D3A9: 48       pha  
D3AA: A5 E5    lda  $E5
D3AC: 65 C5    adc  $C5
D3AE: 65 C6    adc  $C6
D3B0: E5 D0    sbc  $D0
D3B2: A4 C5    ldy  $C5
D3B4: 84 C6    sty  $C6
D3B6: 85 C5    sta  $C5
D3B8: 68       pla  
D3B9: A8       tay  
D3BA: A5 C5    lda  $C5
D3BC: 60       rts  

;Generate random screen positions 
; 	$C3 = Xpos	(> #$12, <#$9C)
;	$C4 = Ypos	(> #$11, <#$AD)

D3BD: 20 A8 D3 jsr  $D3A8	;Get random number, generate X-pos
D3C0: C9 12    cmp  #$12	;< $12, try again
D3C2: 90 F9    bcc  $D3BD	;
D3C4: C9 9C    cmp  #$9C	;>$9C, try again
D3C6: B0 F5    bcs  $D3BD	;
D3C8: 85 C3    sta  $C3		;Save it
D3CA: 20 A8 D3 jsr  $D3A8	;Get random number, generate Y-pos
D3CD: C9 12    cmp  #$12	;< $12, try again
D3CF: 90 F9    bcc  $D3CA	;
D3D1: C9 AE    cmp  #$AE	;>$AE, try again
D3D3: B0 F5    bcs  $D3CA	;
D3D5: 85 C4    sta  $C4		;Save it
D3D7: 60       rts  		;Done


;Generate random screen positions. I presume this is specifically for enemies
;because it will loop until XPos and YPos are not near the "middle" of the screen
;where the player starts
; 
; Outputs:
; 	$C3 = Xpos
;	$C4 = Ypos

D3D8: 20 A8 D3 jsr  $D3A8	;Get Random, Generate X-pos
D3DB: C9 02    cmp  #$02	;
D3DD: 90 F9    bcc  $D3D8	;< $2, try again
D3DF: C9 95    cmp  #$95	;	
D3E1: B0 F5    bcs  $D3D8	;> $95, try again
D3E3: 85 C3    sta  $C3		;Save it
D3E5: 20 A8 D3 jsr  $D3A8	;Get Random, Generate Y-pos
D3E8: C9 12    cmp  #$12	;
D3EA: 90 F9    bcc  $D3E5	;<$12, try again
D3EC: C9 AE    cmp  #$AE	;
D3EE: B0 F5    bcs  $D3E5	;>$AE, try again
D3F0: 85 C4    sta  $C4		;Save it
D3F2: C9 40    cmp  #$40	;
D3F4: 90 0E    bcc  $D404	;If Y-pos < $40, we are done
D3F6: C9 80    cmp  #$80	;
D3F8: B0 0A    bcs  $D404	;If Y-pos > $80, we are done
D3FA: A5 C3    lda  $C3		;Get X-pos
D3FC: C9 28    cmp  #$28	;
D3FE: 90 04    bcc  $D404	;If X-pos < #$28, we are done
D400: C9 6B    cmp  #$6B	;
D402: 90 D4    bcc  $D3D8	;if X-pos < #$6B, try again
D404: 60       rts  

; Generate a random number and mask it with accumulator
; inputs:
; 
; $A4 = mask
; 

D405: 20 A8 D3 jsr  $D3A8	; call random rumber generator	
D408: 6A       ror  a		; 
D409: 25 A4    and  $A4
D40B: 90 06    bcc  $D413
D40D: 85 7C    sta  $7C
D40F: A9 00    lda  #$00
D411: E5 7C    sbc  $7C
D413: 60       rts  

;Generate random number 0,1, or 2
D414: 20 A8 D3 jsr  $D3A8	;Get Random Number
D417: 29 03    and  #$03	;Mask bottom 3 bits
D419: C9 03    cmp  #$03	;
D41B: D0 02    bne  $D41F	;Branch if <> 3
D41D: A9 01    lda  #$01	;
D41F: 60       rts  

;Initilize scoring

D420: A9 00    lda  #$00	;Clear scores
D422: A2 04    ldx  #$04	;
D424: 95 40    sta  $40,x	;Player 1 score
D426: 95 44    sta  $44,x	;Player 2 score
D428: CA       dex  		;
D429: 10 F9    bpl  $D424	;

D42B: A9 00    lda  #$00	;set bonus lives scores to 25000	
D42D: 85 4C    sta  $4C		;
D42F: 85 4D    sta  $4D		;
D431: A9 02    lda  #$02	;
D433: 85 4A    sta  $4A		;
D435: 85 4B    sta  $4B		;
D437: A9 50    lda  #$50	;
D439: 85 48    sta  $48		;
D43B: 85 49    sta  $49		;
D43D: 60       rts  		;


;scoring

D43E: A5 D4    lda  $D4
D440: 18       clc  
D441: 69 01    adc  #$01
D443: C9 05    cmp  #$05
D445: 30 02    bmi  $D449
D447: A9 05    lda  #$05
D449: 85 D4    sta  $D4
D44B: 18       clc  
D44C: 0A       asl  a
D44D: 0A       asl  a
D44E: 0A       asl  a
D44F: 0A       asl  a
D450: 85 B7    sta  $B7
D452: 86 A1    stx  $A1
D454: A2 00    ldx  #$00
D456: A4 61    ldy  $61
D458: F0 02    beq  $D45C
D45A: A2 04    ldx  #$04
D45C: 18       clc  
D45D: F8       sed  
D45E: A5 B7    lda  $B7
D460: 75 41    adc  $41,x
D462: 95 41    sta  $41,x
D464: B5 42    lda  $42,x
D466: 69 00    adc  #$00
D468: 95 42    sta  $42,x
D46A: B5 43    lda  $43,x
D46C: 69 00    adc  #$00
D46E: 95 43    sta  $43,x
D470: A4 61    ldy  $61
D472: 20 87 D4 jsr  $D487
D475: D8       cld  
D476: A6 A1    ldx  $A1
D478: A9 01    lda  #$01
D47A: 20 95 E3 jsr  $E395
D47D: 84 B6    sty  $B6
D47F: 20 55 D2 jsr  $D255
D482: A4 B6    ldy  $B6
D484: A5 D4    lda  $D4
D486: 60       rts  


D487: A5 64    lda  SKILL		
D489: C9 04    cmp  #$04
D48B: 90 01    bcc  $D48E
D48D: 60       rts  

;Check for earning of extra lives

D48E: B5 43    lda  $43,x	;Get high byte of score
D490: D9 4C 00 cmp  $004C,y	;Compare with next bonus
D493: 90 40    bcc  $D4D5	;Branch if score is less then next bonus score
D495: D0 10    bne  $D4A7	;Branch if score is greater then next bonus score
D497: B5 42    lda  $42,x	;Get next lowest byte
D499: D9 4A 00 cmp  $004A,y	;Compare with next bonus
D49C: 90 37    bcc  $D4D5	;Branch if score is less then next bonus score
D49E: D0 07    bne  $D4A7	;Branch if score is greater then next bonus score
D4A0: B5 41    lda  $41,x	;Get next lowest byte
D4A2: D9 48 00 cmp  $0048,y	;Compate with next bonus
D4A5: 90 2E    bcc  $D4D5	;Branch if score is less then next bonus score
D4A7: 18       clc  		;Earned a bonus life
D4A8: B9 48 00 lda  $0048,y	;Increment next bonus life score by 25000
D4AB: 69 50    adc  #$50	;
D4AD: 99 48 00 sta  $0048,y	;	
D4B0: B9 4A 00 lda  $004A,y	;
D4B3: 69 02    adc  #$02	;
D4B5: 99 4A 00 sta  $004A,y	;
D4B8: B9 4C 00 lda  $004C,y	;
D4BB: 69 00    adc  #$00	;
D4BD: 99 4C 00 sta  $004C,y	;
D4C0: A6 61    ldx  $61		;Get current player
D4C2: B5 E0    lda  $E0,x	;Get number of lives
D4C4: C9 7F    cmp  #$7F	;
D4C6: B0 02    bcs  $D4CA	;if 127 lives or more then don't give another new life
D4C8: F6 E0    inc  $E0,x	;Add another lifre
D4CA: 20 56 E3 jsr  $E356	;Sound?
D4CD: A9 05    lda  #$05	
D4CF: 20 95 E3 jsr  $E395
D4D2: 20 26 D3 jsr  $D326
D4D5: 60       rts  		

D4D6: A5 62    lda  CURPLAYERS	;Get current number of player
D4D8: D0 03    bne  $D4DD	;Branch if 2 Players
D4DA: C6 E0    dec  $E0		;Subtract a life from Player 1
D4DC: 60       rts  		

D4DD: A2 0F    ldx  #$0F	;Swap active sprite counts with inactive counts
D4DF: BD 06 19 lda  $1906,x	;
D4E2: 85 A0    sta  $A0		;
D4E4: BD 16 19 lda  $1916,x	;
D4E7: 9D 06 19 sta  $1906,x	;
D4EA: A5 A0    lda  $A0		;
D4EC: 9D 16 19 sta  $1916,x	;
D4EF: CA       dex  		;
D4F0: 10 ED    bpl  $D4DF	;

D4F2: C6 61    dec  $61		;Switch to player 0
D4F4: D0 1B    bne  $D511	
D4F6: A9 0F    lda  #$0F
D4F8: 85 65    sta  $65
D4FA: A9 36    lda  #$36
D4FC: 85 66    sta  $66
D4FE: C6 E0    dec  $E0

D500: A5 D5    lda  $D5
D502: 85 4F    sta  $4F
D504: A5 4E    lda  $4E
D506: 85 D5    sta  $D5

D508: A5 6E    lda  $6E
D50A: 85 70    sta  $70
D50C: A5 6F    lda  $6F
D50E: 85 6E    sta  $6E
D510: 60       rts  

D511: A2 01    ldx  #$01
D513: 86 61    stx  $61
D515: A9 36    lda  #$36
D517: 85 65    sta  $65
D519: A9 0F    lda  #$0F
D51B: 85 66    sta  $66
D51D: D6 E0    dec  $E0,x
D51F: A5 D5    lda  $D5
D521: 85 4E    sta  $4E
D523: A5 4F    lda  $4F
D525: 85 D5    sta  $D5
D527: A5 6E    lda  $6E
D529: 85 6F    sta  $6F
D52B: A5 70    lda  $70
D52D: 85 6E    sta  $6E
D52F: 60       rts  

;Setup hardware registers and enable DMA

D530: A9 00    lda  #$00	;
D532: 8D 81 02 sta  $0281	;Set Joystick port to input
D535: 85 38    sta  $38		;Set OFFSET to zero
D537: A9 00    lda  #$00	;
D539: 85 20    sta  $20		;Set Background color
D53B: 20 30 D6 jsr  $D630	;Setup color registers
D53E: A9 A8    lda  #$A8	;
D540: 85 34    sta  $34		;CHARBASE = $A800
D542: A9 04    lda  #$04	;
D544: 85 30    sta  $30		;
D546: A9 18    lda  #$18	;
D548: 85 2C    sta  $2C		;DLL = $1804
D54A: A9 B1    lda  #$B1	;Setup some variables
D54C: 85 59    sta  $59		;Set DLI pointer to $D5B1
D54E: A9 D5    lda  #$D5	;
D550: 85 5A    sta  $5A		;
D552: 85 24    sta  $24		;Wait for Sync
D554: 24 28    bit  $28		;
D556: 30 FA    bmi  $D552	;Wait for end of vblank
D558: 24 28    bit  $28		;
D55A: 30 F6    bmi  $D552	;Check VBLANK again
D55C: 85 24    sta  $24		;Wait for Sync
D55E: 24 28    bit  $28		;
D560: 10 FA    bpl  $D55C	;Wait for start of vblank
D562: 24 28    bit  $28		;Check again
D564: 10 F6    bpl  $D55C	;
D566: A9 40    lda  #$40	;
D568: 85 3C    sta  $3C		;Enable DMA	RM = 0
D56A: 60       rts  		;


;NMI

D56B: 85 7E    sta  $7E		;Save A
D56D: 86 7F    stx  $7F		;Save X
D56F: BA       tsx  		;Save Status
D570: CA       dex  		;
D571: BD 00 01 lda  $0100,x
D574: 85 D0    sta  $D0
D576: 6C 59 00 jmp  ($0059)
D579: A5 7E    lda  $7E		;Restore A
D57B: A6 7F    ldx  $7F		;Restore X
D57D: 40       rti  

D57E: 98       tya  		;Save Y
D57F: 48       pha  		;
D580: A9 D2    lda  #$D2	;
D582: 85 59    sta  $59
D584: A9 D5    lda  #$D5
D586: 85 5A    sta  $5A
D588: A9 00    lda  #$00
D58A: 85 E4    sta  $E4
D58C: 85 24    sta  $24
D58E: A5 65    lda  $65
D590: 85 3D    sta  $3D
D592: A5 66    lda  $66
D594: 85 3E    sta  $3E
D596: A9 36    lda  #$36
D598: 85 3F    sta  $3F
D59A: 20 A8 D3 jsr  $D3A8
D59D: E6 CA    inc  $CA
D59F: E6 E5    inc  $E5
D5A1: D0 02    bne  $D5A5
D5A3: E6 E6    inc  $E6
D5A5: A5 5C    lda  $5C
D5A7: D0 03    bne  $D5AC
D5A9: 20 9E E4 jsr  $E49E
D5AC: 68       pla  
D5AD: A8       tay  
D5AE: 4C 79 D5 jmp  $D579

D5B1: A9 7E    lda  #$7E
D5B3: 85 59    sta  $59
D5B5: A9 D5    lda  #$D5
D5B7: 85 5A    sta  $5A
D5B9: A9 01    lda  #$01
D5BB: 85 E4    sta  $E4
D5BD: 85 24    sta  $24
D5BF: A9 ED    lda  #$ED
D5C1: 85 3D    sta  $3D
D5C3: A9 35    lda  #$35
D5C5: 85 3E    sta  $3E
D5C7: A9 97    lda  #$97
D5C9: 85 3F    sta  $3F
D5CB: A9 A8    lda  #$A8
D5CD: 85 34    sta  $34
D5CF: 4C 79 D5 jmp  $D579

D5D2: 85 24    sta  $24
D5D4: 85 24    sta  $24
D5D6: 85 24    sta  $24
D5D8: A5 28    lda  $28
D5DA: C5 28    cmp  $28
D5DC: D0 FA    bne  $D5D8
D5DE: 0A       asl  a
D5DF: 90 08    bcc  $D5E9
D5E1: A9 B1    lda  #$B1
D5E3: 85 59    sta  $59
D5E5: A9 D5    lda  #$D5
D5E7: 85 5A    sta  $5A
D5E9: 4C 79 D5 jmp  $D579

D5EC: A9 04    lda  #$04
D5EE: 85 59    sta  $59
D5F0: A9 D6    lda  #$D6
D5F2: 85 5A    sta  $5A
D5F4: 85 24    sta  $24
D5F6: 20 91 D6 jsr  $D691
D5F9: A9 A8    lda  #$A8
D5FB: 85 34    sta  $34
D5FD: A9 40    lda  #$40	;Enable DMA,RM=0
D5FF: 85 3C    sta  $3C		;
D601: 4C 79 D5 jmp  $D579

D604: A9 EC    lda  #$EC
D606: 85 59    sta  $59
D608: A9 D5    lda  #$D5
D60A: 85 5A    sta  $5A
D60C: 85 24    sta  $24
D60E: A9 39    lda  #$39
D610: 85 34    sta  $34
D612: A9 4B    lda  #$4B	;Enable DMA,RM=3
D614: 85 3C    sta  $3C
D616: 4C 79 D5 jmp  $D579

D619: A9 EC    lda  #$EC
D61B: 85 59    sta  $59
D61D: A9 D5    lda  #$D5
D61F: 85 5A    sta  $5A
D621: E6 E5    inc  $E5
D623: 20 BB F6 jsr  $F6BB
D626: 60       rts  
D627: 48       pha  
D628: A9 42    lda  #$42
D62A: 85 20    sta  $20
D62C: D0 FE    bne  $D62C
D62E: 68       pla  
D62F: 40       rti  

;Setup color registers

D630: A9 00    lda  #$00	;
D632: 85 20    sta  $20		;Set Background Color
D634: A9 0F    lda  #$0F	;		
D636: 85 21    sta  $21		;P0C1
D638: A9 69    lda  #$69	;	
D63A: 85 22    sta  $22		;P0C2
D63C: A9 0F    lda  #$0F	;	
D63E: 85 25    sta  $25		;P1C1
D640: A9 36    lda  #$36	;
D642: 85 26    sta  $26		;P1C2
D644: A9 1F    lda  #$1F	;
D646: 85 27    sta  $27		;P1C3
D648: A9 1D    lda  #$1D	;
D64A: 85 29    sta  $29		;P2C1
D64C: A9 59    lda  #$59	;
D64E: 85 2A    sta  $2A		;P2C2
D650: A9 FA    lda  #$FA	;
D652: 85 2B    sta  $2B		;P2C3
D654: A9 96    lda  #$96	;
D656: 85 2D    sta  $2D		;P3C1
D658: A9 14    lda  #$14	;
D65A: 85 2E    sta  $2E		;P3C2
D65C: A9 1A    lda  #$1A	;
D65E: 85 2F    sta  $2F		;P3C3
D660: A9 35    lda  #$35	;
D662: 85 31    sta  $31		;P4C1
D664: A9 ED    lda  #$ED	;
D666: 85 32    sta  $32		;P4C2
D668: A9 00    lda  #$00	;
D66A: 85 33    sta  $33		;P4C3
D66C: A9 0F    lda  #$0F	;
D66E: 85 35    sta  $35		;P5C1
D670: A9 FF    lda  #$FF	;
D672: 85 36    sta  $36		;P5C2
D674: A9 FF    lda  #$FF	;
D676: 85 37    sta  $37		;P5C3
D678: A9 00    lda  #$00	;
D67A: 85 39    sta  $39		;P6C1
D67C: A9 97    lda  #$97	;
D67E: 85 3A    sta  $3A		;P6C2
D680: A9 EB    lda  #$EB	;
D682: 85 3B    sta  $3B		;P6C3
D684: A5 65    lda  $65		;
D686: 85 3D    sta  $3D		;P7C1 from variable
D688: A5 66    lda  $66		;
D68A: 85 3E    sta  $3E		;P7C2 from variable
D68C: A9 36    lda  #$36	;
D68E: 85 3F    sta  $3F		;P7C3
D690: 60       rts  		;

D691: A9 0F    lda  #$0F
D693: 85 35    sta  $35
D695: A9 1F    lda  #$1F
D697: 85 36    sta  $36
D699: A5 68    lda  $68
D69B: 85 37    sta  $37
D69D: A9 0F    lda  #$0F
D69F: 85 39    sta  $39
D6A1: A9 1F    lda  #$1F
D6A3: 85 3A    sta  $3A
D6A5: A9 36    lda  #$36
D6A7: 85 3B    sta  $3B
D6A9: A9 0F    lda  #$0F
D6AB: 85 3D    sta  $3D
D6AD: A9 0F    lda  #$0F
D6AF: 85 3E    sta  $3E
D6B1: A9 0F    lda  #$0F
D6B3: 85 3F    sta  $3F
D6B5: A9 00    lda  #$00
D6B7: 85 20    sta  $20
D6B9: 60       rts  

;************************************************************
;Clear score, lives, and level display

D6BA: A2 07    ldx  #$07	;7 bytes
D6BC: A9 00    lda  #$00	;
D6BE: 9D 00 21 sta  $2100,x	;clear player 1 score display
D6C1: 9D 07 21 sta  $2107,x	;clear player 2 score display
D6C4: 9D 0E 21 sta  $210E,x	;clear player 1 lives display
D6C7: 9D 15 21 sta  $2115,x	;clear player 2 lives display
D6CA: CA       dex  		;
D6CB: 10 F1    bpl  $D6BE	;
D6CD: A9 00    lda  #$00	;
D6CF: A2 01    ldx  #$01	;
D6D1: 9D 1C 21 sta  $211C,x	;Clear Level
D6D4: 9D 23 21 sta  $2123,x	
D6D7: CA       dex  		;
D6D8: 10 F7    bpl  $D6D1	;
D6DA: 60       rts  		;

;**************************************************************
;Scoring

D6DB: 86 B7    stx  $B7		;Save X
D6DD: A2 00    ldx  #$00	;Index of player 0 score
D6DF: A4 61    ldy  $61		;Get player #
D6E1: F0 02    beq  $D6E5	;Player 0?
D6E3: A2 04    ldx  #$04	;If not then set index to player 1 score
D6E5: 0A       asl  a		; *2
D6E6: A8       tay  		;Move to index
D6E7: 18       clc  		;Get ready for math
D6E8: F8       sed  		;
D6E9: B9 9B F1 lda  $F19B,y	;Get low byte
D6EC: 75 40    adc  $40,x	;Add to score
D6EE: 95 40    sta  $40,x	;and score
D6F0: B9 9A F1 lda  $F19A,y	;Get next byte
D6F3: 75 41    adc  $41,x	;add to score
D6F5: 95 41    sta  $41,x	;and store
D6F7: B5 42    lda  $42,x	;get next byte of score
D6F9: 69 00    adc  #$00	;add carry
D6FB: 95 42    sta  $42,x	;and store
D6FD: B5 43    lda  $43,x	;get top byte of score
D6FF: 69 00    adc  #$00	;add carry
D701: 95 43    sta  $43,x	;store
D703: A4 61    ldy  $61		;Get player #
D705: 20 87 D4 jsr  $D487	;Check for bonus lives
D708: D8       cld  		;Turn off decimal mode
D709: A6 B7    ldx  $B7
D70B: 20 55 D2 jsr  $D255

;
; Change state of a sprite . setting bit 1 of state = dying
; expects: x = index of sprite
D70E: A9 02    lda  #$02
D710: 1D 91 1F ora  SPRITE_STATE_1F91,x
D713: 9D 91 1F sta  SPRITE_STATE_1F91,x
D716: A9 00    lda  #$00
D718: 9D 7D 1B sta  SPRITE_FRAMES_BEFORE_MOVE_1B7D,x
D71B: 60       rts  


;
; Called by grunt routine
; I think $C9 is an enemy or sprite counter

D71C: C6 C9    dec  $C9


;
; Marks a given object as truly dead
;

D71E: A9 00    lda  #$00
D720: 9D 91 1F sta  SPRITE_STATE_1F91,x
D723: A5 EF    lda  $EF
D725: 86 EF    stx  $EF
D727: 9D 30 1D sta  $1D30,x
D72A: 20 AF E1 jsr  $E1AF
D72D: A9 00    lda  #$00
D72F: 9D 8C 1E sta  SPRITE_TYPE_1E8C,x
D732: 60       rts  

D733: A2 00    ldx  #$00
D735: CE 30 1D dec  $1D30
D738: 10 03    bpl  $D73D
D73A: 8E 30 1D stx  $1D30
D73D: 8A       txa  
D73E: C9 04    cmp  #$04
D740: 30 03    bmi  $D745
D742: 4C 9D D7 jmp  $D79D
D745: A9 00    lda  #$00
D747: 85 AE    sta  $AE
D749: BD 27 1C lda  $1C27,x
D74C: D0 17    bne  $D765
D74E: AD 30 1D lda  $1D30
D751: F0 03    beq  $D756
D753: 4C 99 D7 jmp  $D799
D756: A9 07    lda  #$07
D758: 8D 30 1D sta  $1D30
D75B: 20 47 D9 jsr  $D947
D75E: A5 AE    lda  $AE
D760: F0 37    beq  $D799
D762: 4C 68 D7 jmp  $D768
D765: 20 AA D9 jsr  $D9AA
D768: 20 B4 DA jsr  $DAB4
D76B: 8A       txa  
D76C: 48       pha  
D76D: 18       clc  
D76E: 69 53    adc  #$53
D770: AA       tax  
D771: BD CF 1A lda  SPRITE_X,x
D774: 85 BE    sta  $BE
D776: BD E3 1E lda  SPRITE_X_EXTENT,x
D779: 85 C0    sta  $C0
D77B: BD 26 1B lda  SPRITE_Y,x
D77E: 85 BF    sta  $BF
D780: BD 3A 1F lda  SPRITE_Y_EXTENT,x
D783: 85 C1    sta  $C1
D785: A5 AE    lda  $AE
D787: F0 0B    beq  $D794
D789: BD 91 1F lda  SPRITE_STATE_1F91,x
D78C: F0 09    beq  $D797
D78E: 20 36 E1 jsr  $E136
D791: 4C 97 D7 jmp  $D797
D794: 20 AF E1 jsr  $E1AF
D797: 68       pla  
D798: AA       tax  
D799: E8       inx  
D79A: 4C 3D D7 jmp  $D73D
D79D: 60       rts  
D79E: CE 7D 1B dec  SPRITE_FRAMES_BEFORE_MOVE_1B7D
D7A1: 10 63    bpl  $D806
D7A3: EE 7D 1B inc  SPRITE_FRAMES_BEFORE_MOVE_1B7D
D7A6: EE 7D 1B inc  SPRITE_FRAMES_BEFORE_MOVE_1B7D
D7A9: 18       clc  
D7AA: A5 E3    lda  $E3
D7AC: F0 03    beq  $D7B1
D7AE: 4C 03 F9 jmp  $F903

D7B1: AD 80 02 lda  $0280	;Read joystick
D7B4: 29 F0    and  #$F0	;Mask off Stick 0
D7B6: 4A       lsr  a		;Shift it to the bottom 
D7B7: 4A       lsr  a		;	
D7B8: 4A       lsr  a		;
D7B9: 4A       lsr  a		;
D7BA: C9 0F    cmp  #$0F	;Stick pushed in any direction?
D7BC: F0 48    beq  $D806	;Branch if not

D7BE: 8D D4 1B sta  SPRITE_DIRECTION_1BD4	;Save stick position
D7C1: CE D9 1C dec  SPRITE_ANIM_FRAME_1CD9	;?Animation frame?
D7C4: 10 05    bpl  $D7CB
D7C6: A9 03    lda  #$03
D7C8: 8D D9 1C sta  SPRITE_ANIM_FRAME_1CD9
D7CB: AD D4 1B lda  SPRITE_DIRECTION_1BD4	;Get stick position
D7CE: AA       tax  		;
D7CF: BD 3D EC lda  $EC3D,x	;Stick table
D7D2: 6D CF 1A adc  SPRITE_X	;Change x position of player
D7D5: 85 BE    sta  $BE		;
D7D7: 18       clc  		
D7D8: 69 05    adc  #$05	
D7DA: 85 C0    sta  $C0
D7DC: BD 4D EC lda  $EC4D,x	;Read stick table 
D7DF: 18       clc  		;
D7E0: 6D 26 1B adc  SPRITE_Y	;Change y position of player
D7E3: 85 BF    sta  $BF		
D7E5: 18       clc  		
D7E6: 69 0B    adc  #$0B
D7E8: 85 C1    sta  $C1
D7EA: A2 00    ldx  #$00
D7EC: 20 B4 D1 jsr  $D1B4		; ensure that sprite is in the playfield	
D7EF: 20 AF E1 jsr  $E1AF
D7F2: A5 BE    lda  $BE
D7F4: 8D CF 1A sta  SPRITE_X	;X Position of player
D7F7: A5 C0    lda  $C0
D7F9: 8D E3 1E sta  SPRITE_X_EXTENT
D7FC: A5 BF    lda  $BF
D7FE: 8D 26 1B sta  SPRITE_Y	;Y Position of player
D801: A5 C1    lda  $C1
D803: 8D 3A 1F sta  SPRITE_Y_EXTENT
D806: C6 C8    dec  $C8
D808: 30 03    bmi  $D80D
D80A: 4C 46 D9 jmp  $D946
D80D: A9 02    lda  #$02
D80F: 85 C8    sta  $C8
D811: A0 1B    ldy  #$1B
D813: AD 26 1B lda  SPRITE_Y	; divide sprite Y by 16
D816: 4A       lsr  a
D817: 4A       lsr  a
D818: 4A       lsr  a
D819: 4A       lsr  a
D81A: 85 C2    sta  $C2
D81C: AD 3A 1F lda  SPRITE_Y_EXTENT	; divide sprite Y extent by 16
D81F: 4A       lsr  a
D820: 4A       lsr  a
D821: 4A       lsr  a
D822: 4A       lsr  a
D823: C5 C2    cmp  $C2
D825: F0 02    beq  $D829
D827: A0 37    ldy  #$37
D829: 84 A2    sty  $A2
D82B: A4 C2    ldy  $C2
D82D: B9 EC F1 lda  $F1EC,y
D830: 85 BD    sta  $BD
D832: B9 E0 F1 lda  $F1E0,y
D835: 85 BC    sta  $BC
D837: A4 A2    ldy  $A2
D839: B1 BC    lda  ($BC),y
D83B: F0 3E    beq  $D87B
D83D: AA       tax  
D83E: BD 8C 1E lda  SPRITE_TYPE_1E8C,x
D841: 29 1F    and  #$1F
D843: F0 36    beq  $D87B
D845: C9 0F    cmp  #$0F
D847: F0 32    beq  $D87B
D849: BD 91 1F lda  SPRITE_STATE_1F91,x
D84C: 29 03    and  #$03
D84E: F0 2B    beq  $D87B
D850: 29 0F    and  #$0F
D852: C9 03    cmp  #$03
D854: F0 25    beq  $D87B
D856: 18       clc  
D857: AD E3 1E lda  SPRITE_X_EXTENT
D85A: DD CF 1A cmp  SPRITE_X,x
D85D: 90 1C    bcc  $D87B
D85F: AD CF 1A lda  SPRITE_X
D862: DD E3 1E cmp  SPRITE_X_EXTENT,x
D865: F0 02    beq  $D869
D867: B0 12    bcs  $D87B
D869: AD 3A 1F lda  SPRITE_Y_EXTENT
D86C: DD 26 1B cmp  SPRITE_Y,x
D86F: 90 0A    bcc  $D87B
D871: AD 26 1B lda  SPRITE_Y
D874: DD 3A 1F cmp  SPRITE_Y_EXTENT,x
D877: 90 05    bcc  $D87E
D879: F0 03    beq  $D87E
D87B: 4C 40 D9 jmp  $D940
D87E: BD 8C 1E lda  SPRITE_TYPE_1E8C,x
D881: 29 1F    and  #$1F
D883: C9 02    cmp  #$02
D885: F0 08    beq  $D88F
D887: C9 03    cmp  #$03
D889: F0 04    beq  $D88F
D88B: C9 04    cmp  #$04
D88D: D0 22    bne  $D8B1
D88F: 20 3E D4 jsr  $D43E
D892: 09 80    ora  #$80
D894: 9D D9 1C sta  SPRITE_ANIM_FRAME_1CD9,x
D897: A9 02    lda  #$02
D899: 9D 8C 1E sta  SPRITE_TYPE_1E8C,x
D89C: A9 02    lda  #$02
D89E: 1D 91 1F ora  SPRITE_STATE_1F91,x
D8A1: 9D 91 1F sta  SPRITE_STATE_1F91,x
D8A4: A9 08    lda  #$08
D8A6: 9D D4 1B sta  SPRITE_DIRECTION_1BD4,x
D8A9: A9 00    lda  #$00
D8AB: 9D 7D 1B sta  SPRITE_FRAMES_BEFORE_MOVE_1B7D,x
D8AE: 4C 40 D9 jmp  $D940
D8B1: C9 0D    cmp  #$0D
D8B3: D0 3B    bne  $D8F0
D8B5: BD 30 1D lda  $1D30,x
D8B8: 85 B7    sta  $B7
D8BA: 4A       lsr  a
D8BB: 4A       lsr  a
D8BC: 4A       lsr  a
D8BD: 4A       lsr  a
D8BE: 18       clc  
D8BF: 7D CF 1A adc  SPRITE_X,x
D8C2: 85 AA    sta  $AA
D8C4: 85 AB    sta  $AB
D8C6: A5 B7    lda  $B7
D8C8: 29 0F    and  #$0F
D8CA: 18       clc  
D8CB: 7D 26 1B adc  SPRITE_Y,x
D8CE: 85 AC    sta  $AC
D8D0: 69 01    adc  #$01
D8D2: 85 AD    sta  $AD
D8D4: AD CF 1A lda  SPRITE_X
D8D7: 85 B8    sta  $B8
D8D9: AD 26 1B lda  SPRITE_Y
D8DC: 85 B9    sta  $B9
D8DE: AD E3 1E lda  SPRITE_X_EXTENT
D8E1: 85 A4    sta  $A4
D8E3: AD 3A 1F lda  SPRITE_Y_EXTENT
D8E6: 85 A5    sta  $A5
D8E8: 20 F2 DB jsr  $DBF2
D8EB: F0 53    beq  $D940
D8ED: 4C 11 D0 jmp  $D011
D8F0: BD CF 1A lda  SPRITE_X,x
D8F3: 85 AA    sta  $AA
D8F5: BD E3 1E lda  SPRITE_X_EXTENT,x
D8F8: 85 AB    sta  $AB
D8FA: BD 26 1B lda  SPRITE_Y,x
D8FD: 85 AC    sta  $AC
D8FF: BD 3A 1F lda  SPRITE_Y_EXTENT,x
D902: 85 AD    sta  $AD
D904: 86 AE    stx  $AE					; save current object index in $AE as check overlap function expects it
D906: A2 00    ldx  #$00				; compare with player's index
D908: 20 13 DC jsr  $DC13				; are player's sprites and enemy sprites colliding?
D90B: F0 33    beq  $D940				; no, the Z flag is set
D90D: A6 AE    ldx  $AE					; restore object index
D90F: BD 8C 1E lda  SPRITE_TYPE_1E8C,x
D912: C9 06    cmp  #$06				; Spheroid?
D914: F0 07    beq  $D91D
D916: C9 07    cmp  #$07				; Quark?
D918: F0 07    beq  $D921
D91A: 4C 11 D0 jmp  $D011
D91D: A9 03    lda  #$03				; frame 3 	
D91F: D0 02    bne  $D923
D921: A9 06    lda  #$06				; frame 6
D923: 9D D9 1C sta  SPRITE_ANIM_FRAME_1CD9,x
D926: BD CF 1A lda  SPRITE_X,x
D929: 85 BE    sta  $BE
D92B: BD 26 1B lda  SPRITE_Y,x
D92E: 85 BF    sta  $BF
D930: BD E3 1E lda  SPRITE_X_EXTENT,x
D933: 85 C0    sta  $C0
D935: BD 3A 1F lda  SPRITE_Y_EXTENT,x
D938: 85 C1    sta  $C1
D93A: 20 AF E1 jsr  $E1AF
D93D: 4C 11 D0 jmp  $D011
D940: 88       dey  
D941: 30 03    bmi  $D946
D943: 4C 39 D8 jmp  $D839
D946: 60       rts  
D947: A9 00    lda  #$00
D949: 85 AE    sta  $AE
D94B: A5 E3    lda  $E3
D94D: F0 03    beq  $D952
D94F: 4C BB F8 jmp  $F8BB

; Reading firing from button or 2nd joystick

D952: AD 80 02 lda  $0280	;Read joystick
D955: 29 0F    and  #$0F	;Mask off right stick
D957: C9 0F    cmp  #$0F	;Pushed in any direction?
D959: D0 17    bne  $D972	;Branch if it is
D95B: A5 0C    lda  $0C		;Read Trigger
D95D: 29 80    and  #$80	;
D95F: D0 10    bne  $D971	;Branch if not pushed 
D961: AD 80 02 lda  $0280	;Read Joystick
D964: 29 F0    and  #$F0	;Mask off left stick
D966: C9 F0    cmp  #$F0	;Pushed in any direction?
D968: F0 07    beq  $D971	;Branch if not
D96A: 4A       lsr  a		;Shift to bottom 
D96B: 4A       lsr  a		;
D96C: 4A       lsr  a		;
D96D: 4A       lsr  a		;
D96E: 4C 72 D9 jmp  $D972	;
D971: 60       rts  		; (Didn't fire)

;Player fired, bottom 4 bits of A contain direction

D972: 9D 27 1C sta  $1C27,x	;Save stick position
D975: AD A0 FC lda  $FCA0	;A=$3A
D978: 18       clc  		;
D979: 7D 27 1C adc  $1C27,x	;Add to stick position
D97C: A8       tay  		;
D97D: AD CF 1A lda  SPRITE_X	;Get player horizontal position
D980: 18       clc  		;
D981: 69 02    adc  #$02	;
D983: 9D 22 1B sta  $1B22,x	
D986: 18       clc  
D987: 79 AD FE adc  $FEAD,y
D98A: 9D 36 1F sta  $1F36,x	
D98D: AD 26 1B lda  SPRITE_Y	;Get player vertical postion
D990: 18       clc  		
D991: 69 05    adc  #$05
D993: 9D 79 1B sta  $1B79,x
D996: 18       clc  
D997: 79 F9 FD adc  $FDF9,y
D99A: 9D 8D 1F sta  $1F8D,x
D99D: A9 01    lda  #$01
D99F: 9D E4 1F sta  $1FE4,x
D9A2: A9 00    lda  #$00
D9A4: 20 95 E3 jsr  $E395
D9A7: E6 AE    inc  $AE
D9A9: 60       rts  

D9AA: BD 22 1B lda  $1B22,x
D9AD: 85 B8    sta  $B8
D9AF: BD 36 1F lda  $1F36,x
D9B2: 85 A4    sta  $A4
D9B4: BD 79 1B lda  $1B79,x
D9B7: 85 B9    sta  $B9
D9B9: BD 8D 1F lda  $1F8D,x
D9BC: 85 A5    sta  $A5
D9BE: A0 1B    ldy  #$1B
D9C0: BD 79 1B lda  $1B79,x
D9C3: 4A       lsr  a
D9C4: 4A       lsr  a
D9C5: 4A       lsr  a
D9C6: 4A       lsr  a
D9C7: 85 C2    sta  $C2
D9C9: BD 8D 1F lda  $1F8D,x
D9CC: 4A       lsr  a
D9CD: 4A       lsr  a
D9CE: 4A       lsr  a
D9CF: 4A       lsr  a
D9D0: C5 C2    cmp  $C2
D9D2: F0 02    beq  $D9D6
D9D4: A0 37    ldy  #$37
D9D6: 84 A2    sty  $A2
D9D8: A4 C2    ldy  $C2
D9DA: B9 EC F1 lda  $F1EC,y
D9DD: 85 A1    sta  $A1
D9DF: B9 E0 F1 lda  $F1E0,y
D9E2: 85 A0    sta  $A0
D9E4: A4 A2    ldy  $A2
D9E6: 86 A8    stx  $A8
D9E8: B1 A0    lda  ($A0),y
D9EA: F0 6C    beq  $DA58
D9EC: AA       tax  
D9ED: BD 8C 1E lda  SPRITE_TYPE_1E8C,x
D9F0: 29 1F    and  #$1F
D9F2: F0 64    beq  $DA58
D9F4: C9 0F    cmp  #$0F
D9F6: F0 60    beq  $DA58
D9F8: BD 91 1F lda  SPRITE_STATE_1F91,x
D9FB: 29 03    and  #$03
D9FD: F0 59    beq  $DA58
D9FF: C9 03    cmp  #$03
DA01: F0 55    beq  $DA58
DA03: BD 8C 1E lda  SPRITE_TYPE_1E8C,x
DA06: 29 1F    and  #$1F
DA08: C9 0D    cmp  #$0D
DA0A: D0 26    bne  $DA32
DA0C: BD 30 1D lda  $1D30,x
DA0F: 85 B7    sta  $B7
DA11: 4A       lsr  a
DA12: 4A       lsr  a
DA13: 4A       lsr  a
DA14: 4A       lsr  a
DA15: 18       clc  
DA16: 7D CF 1A adc  SPRITE_X,x
DA19: 85 AA    sta  $AA
DA1B: 85 AB    sta  $AB
DA1D: A5 B7    lda  $B7
DA1F: 29 0F    and  #$0F
DA21: 18       clc  
DA22: 7D 26 1B adc  SPRITE_Y,x
DA25: 85 AC    sta  $AC
DA27: 69 01    adc  #$01
DA29: 85 AD    sta  $AD
DA2B: 20 F2 DB jsr  $DBF2
DA2E: F0 28    beq  $DA58
DA30: D0 1C    bne  $DA4E
DA32: A5 A4    lda  $A4
DA34: DD CF 1A cmp  SPRITE_X,x
DA37: 90 1F    bcc  $DA58
DA39: BD E3 1E lda  SPRITE_X_EXTENT,x
DA3C: C5 B8    cmp  $B8
DA3E: 90 18    bcc  $DA58
DA40: A5 A5    lda  $A5
DA42: DD 26 1B cmp  SPRITE_Y,x
DA45: 90 11    bcc  $DA58
DA47: BD 3A 1F lda  SPRITE_Y_EXTENT,x
DA4A: C5 B9    cmp  $B9
DA4C: 90 0A    bcc  $DA58
DA4E: 20 5E DA jsr  $DA5E
DA51: A6 A8    ldx  $A8
DA53: BD 27 1C lda  $1C27,x
DA56: F0 05    beq  $DA5D
DA58: A6 A8    ldx  $A8
DA5A: 88       dey  
DA5B: 10 8B    bpl  $D9E8
DA5D: 60       rts  
DA5E: BD 8C 1E lda  SPRITE_TYPE_1E8C,x
DA61: 29 1F    and  #$1F
DA63: C9 02    cmp  #$02
DA65: F0 46    beq  $DAAD
DA67: C9 03    cmp  #$03
DA69: F0 42    beq  $DAAD
DA6B: C9 04    cmp  #$04
DA6D: F0 3E    beq  $DAAD
DA6F: 84 A9    sty  $A9
DA71: A4 A8    ldy  $A8
DA73: B9 27 1C lda  $1C27,y
DA76: 85 A0    sta  $A0
DA78: A9 00    lda  #$00
DA7A: 99 27 1C sta  $1C27,y
DA7D: 99 E4 1F sta  $1FE4,y
DA80: BD 8C 1E lda  SPRITE_TYPE_1E8C,x
DA83: 29 1F    and  #$1F
DA85: C9 05    cmp  #$05
DA87: F0 08    beq  $DA91
DA89: C9 10    cmp  #$10
DA8B: D0 21    bne  $DAAE
DA8D: 20 0E D7 jsr  $D70E
DA90: 60       rts  
DA91: 38       sec  
DA92: A5 E5    lda  $E5
DA94: FD 2B 1C sbc  $1C2B,x
DA97: C9 08    cmp  #$08
DA99: 90 16    bcc  $DAB1
DA9B: A5 E5    lda  $E5
DA9D: 9D 2B 1C sta  $1C2B,x
DAA0: A5 A0    lda  $A0
DAA2: 9D 30 1D sta  $1D30,x
DAA5: A9 00    lda  #$00
DAA7: 9D 7D 1B sta  SPRITE_FRAMES_BEFORE_MOVE_1B7D,x
DAAA: 4C B1 DA jmp  $DAB1
DAAD: 60       rts  

DAAE: 20 DB D6 jsr  $D6DB	;Score
DAB1: A4 A9    ldy  $A9
DAB3: 60       rts  

DAB4: BC 27 1C ldy  $1C27,x
DAB7: D0 01    bne  $DABA
DAB9: 60       rts  
DABA: B9 3D EC lda  $EC3D,y
DABD: F0 32    beq  $DAF1
DABF: 30 18    bmi  $DAD9
DAC1: BD 22 1B lda  $1B22,x
DAC4: 18       clc  
DAC5: 69 04    adc  #$04
DAC7: 9D 22 1B sta  $1B22,x
DACA: C9 98    cmp  #$98
DACC: B0 5D    bcs  $DB2B
DACE: BD 36 1F lda  $1F36,x
DAD1: 69 04    adc  #$04
DAD3: 9D 36 1F sta  $1F36,x
DAD6: 4C F1 DA jmp  $DAF1
DAD9: BD 22 1B lda  $1B22,x
DADC: 38       sec  
DADD: E9 04    sbc  #$04
DADF: 9D 22 1B sta  $1B22,x
DAE2: 18       clc  
DAE3: 69 10    adc  #$10
DAE5: C9 12    cmp  #$12
DAE7: 90 42    bcc  $DB2B
DAE9: BD 36 1F lda  $1F36,x
DAEC: E9 04    sbc  #$04
DAEE: 9D 36 1F sta  $1F36,x
DAF1: B9 4D EC lda  $EC4D,y
DAF4: F0 3D    beq  $DB33
DAF6: 30 18    bmi  $DB10
DAF8: BD 79 1B lda  $1B79,x
DAFB: 18       clc  
DAFC: 69 08    adc  #$08
DAFE: 9D 79 1B sta  $1B79,x
DB01: C9 B4    cmp  #$B4
DB03: B0 26    bcs  $DB2B
DB05: BD 8D 1F lda  $1F8D,x
DB08: 69 08    adc  #$08
DB0A: 9D 8D 1F sta  $1F8D,x
DB0D: 4C 33 DB jmp  $DB33
DB10: BD 79 1B lda  $1B79,x
DB13: 38       sec  
DB14: E9 08    sbc  #$08
DB16: 9D 79 1B sta  $1B79,x
DB19: 18       clc  
DB1A: 69 10    adc  #$10
DB1C: C9 22    cmp  #$22
DB1E: 90 0B    bcc  $DB2B
DB20: BD 8D 1F lda  $1F8D,x
DB23: E9 08    sbc  #$08
DB25: 9D 8D 1F sta  $1F8D,x
DB28: 4C 33 DB jmp  $DB33
DB2B: A9 00    lda  #$00
DB2D: 9D 27 1C sta  $1C27,x
DB30: 9D E4 1F sta  $1FE4,x
DB33: 60       rts  
DB34: A5 E3    lda  $E3
DB36: F0 08    beq  $DB40
DB38: 20 22 F5 jsr  $F522
DB3B: F0 03    beq  $DB40
DB3D: 4C 95 F3 jmp  $F395
DB40: A5 5E    lda  $5E
DB42: F0 05    beq  $DB49
DB44: C6 5E    dec  $5E
DB46: 4C CF DB jmp  $DBCF
DB49: A5 5D    lda  $5D
DB4B: 29 01    and  #$01
DB4D: D0 0E    bne  $DB5D
DB4F: AD 82 02 lda  $0282
DB52: 29 01    and  #$01
DB54: F0 07    beq  $DB5D
DB56: A9 00    lda  #$00
DB58: 85 E3    sta  $E3
DB5A: 4C 03 90 jmp  $9003
DB5D: A5 5D    lda  $5D
DB5F: 29 02    and  #$02
DB61: D0 0A    bne  $DB6D
DB63: AD 82 02 lda  $0282
DB66: 29 02    and  #$02
DB68: F0 03    beq  $DB6D
DB6A: 4C 95 F3 jmp  $F395
DB6D: A5 5D    lda  $5D
DB6F: 29 08    and  #$08
DB71: D0 57    bne  $DBCA
DB73: AD 82 02 lda  $0282
DB76: 29 08    and  #$08
DB78: F0 50    beq  $DBCA
DB7A: A9 02    lda  #$02
DB7C: 85 5E    sta  $5E
DB7E: A5 5C    lda  $5C
DB80: 49 01    eor  #$01
DB82: C9 03    cmp  #$03
DB84: D0 07    bne  $DB8D
DB86: A9 00    lda  #$00
DB88: 85 5C    sta  $5C
DB8A: 4C B1 DB jmp  $DBB1
DB8D: 85 5C    sta  $5C
DB8F: F0 18    beq  $DBA9
DB91: A5 E5    lda  $E5
DB93: 85 A1    sta  $A1
DB95: A5 E6    lda  $E6
DB97: 85 A2    sta  $A2
DB99: A9 00    lda  #$00
DB9B: 85 E5    sta  $E5
DB9D: A9 01    lda  #$01
DB9F: 85 E6    sta  $E6
DBA1: A9 00    lda  #$00
DBA3: 85 19    sta  $19
DBA5: 85 1A    sta  $1A
DBA7: F0 21    beq  $DBCA
DBA9: A5 5C    lda  $5C
DBAB: F0 15    beq  $DBC2
DBAD: A9 01    lda  #$01
DBAF: 85 5C    sta  $5C
DBB1: 20 45 F5 jsr  $F545
DBB4: A9 40    lda  #$40	;Enable DMA, RM=0
DBB6: 85 3C    sta  $3C		;
DBB8: A0 10    ldy  #$10
DBBA: 20 38 F5 jsr  $F538
DBBD: 88       dey  
DBBE: 10 FA    bpl  $DBBA
DBC0: F0 08    beq  $DBCA
DBC2: A5 A1    lda  $A1
DBC4: 85 E5    sta  $E5
DBC6: A5 A2    lda  $A2
DBC8: 85 E6    sta  $E6
DBCA: AD 82 02 lda  $0282
DBCD: 85 5D    sta  $5D
DBCF: A5 5C    lda  $5C
DBD1: F0 1E    beq  $DBF1
DBD3: A5 E6    lda  $E6
DBD5: D0 08    bne  $DBDF
DBD7: A9 7F    lda  #$7F 	;Disable DMA
DBD9: 85 3C    sta  $3C		;
DBDB: A9 02    lda  #$02
DBDD: 85 5C    sta  $5C
DBDF: 20 22 F5 jsr  $F522
DBE2: D0 03    bne  $DBE7
DBE4: 4C 34 DB jmp  $DB34
DBE7: A5 5C    lda  $5C
DBE9: 38       sec  
DBEA: E9 01    sbc  #$01
DBEC: 85 5C    sta  $5C
DBEE: 4C A9 DB jmp  $DBA9
DBF1: 60       rts  
DBF2: A5 AB    lda  $AB
DBF4: C5 B8    cmp  $B8
DBF6: 90 16    bcc  $DC0E
DBF8: A5 A4    lda  $A4
DBFA: C5 AA    cmp  $AA
DBFC: 90 10    bcc  $DC0E
DBFE: A5 AD    lda  $AD
DC00: C5 B9    cmp  $B9
DC02: 90 0A    bcc  $DC0E
DC04: A5 A5    lda  $A5
DC06: C5 AC    cmp  $AC
DC08: 90 04    bcc  $DC0E
DC0A: A9 01    lda  #$01
DC0C: D0 02    bne  $DC10
DC0E: A9 00    lda  #$00
DC10: 85 B2    sta  $B2
DC12: 60       rts  


; Measures distance of object A from object B using the 
; Inputs: 
; x = index of sprite A 
; 
; $AA = X of sprite B 
; $AB = X extent of sprite B 
; $AC = Y of sprite B
; $AD = Y extent of sprite B
; $AE = object index 
; 
; Outputs:
; $A9 = X distance
; $A7 = Y distance
; $B2 = 0 or 1. 0 = definite overlap between sprites somewhere, 1 = probable non-overlap
; Z flag set if overlap 

DC13: BD CF 1A lda  SPRITE_X,x				; is A.X (object A's X coord) > B.X (object B's X coord) ?
DC16: C5 AA    cmp  $AA
DC18: B0 09    bcs  $DC23					; yes
DC1A: 38       sec  
DC1B: BD E3 1E lda  SPRITE_X_EXTENT,x		; no, so compute A.ExtentX - B.ExtentX
DC1E: E5 AA    sbc  $AA						
DC20: 4C 29 DC jmp  $DC29
DC23: 38       sec  
DC24: A5 AB    lda  $AB						; compute B.ExtentX - A.X
DC26: FD CF 1A sbc  SPRITE_X,x
DC29: 85 A9    sta  $A9						; save X distance
DC2B: BD 26 1B lda  SPRITE_Y,x				
DC2E: C5 AC    cmp  $AC
DC30: B0 09    bcs  $DC3B
DC32: 38       sec  
DC33: BD 3A 1F lda  SPRITE_Y_EXTENT,x		; compute A.ExtentY - B.Y
DC36: E5 AC    sbc  $AC						; result = Y distance
DC38: 4C 41 DC jmp  $DC41					; and jump to where it gets stored
DC3B: 38       sec  
DC3C: A5 AD    lda  $AD						; get B.ExtentY
DC3E: FD 26 1B sbc  SPRITE_Y,x				; subtract A.Y
DC41: 85 A7    sta  $A7						; save the result as the Y distance
DC43: C9 07    cmp  #$07					; is Y distance more than 7?
DC45: B0 11    bcs  $DC58					; yes
DC47: A5 A9    lda  $A9						; is X distance more than 4?
DC49: C9 04    cmp  #$04
DC4B: B0 0B    bcs  $DC58					; yes
DC4D: 18       clc							; if we get here, Y distance <= 7 and X distance <=4 
DC4E: 65 A7    adc  $A7						; add X distance to Y distance 
DC50: C9 08    cmp  #$08					; is it more than 8? This is a quick overlap check
DC52: B0 04    bcs  $DC58					; Yes, it's more than 8
DC54: A9 00    lda  #$00					; store 0 in $B2 to signify an overlap in both objects 
DC56: F0 02    beq  $DC5A					
DC58: A9 01    lda  #$01
DC5A: 85 B2    sta  $B2						; $B2 holds 1 to signify the quick overlap check didn't yield anything
DC5C: 60       rts  

;See if one sprite overlaps another
; 	x = index of one sprite
;	y = index of other sprite
;	returns $B7: 0 = not overlapping, 1 = overlapping

DC5D: A9 00    lda  #$00			; set collision result to 0 initially
DC5F: 85 B7    sta  $B7
DC61: BD 26 1B lda  SPRITE_Y,x	;Get sprite top Y-pos 	
DC64: D9 3A 1F cmp  SPRITE_Y_EXTENT,y	;Compare with Y-pos of bottom of previous sprite
DC67: B0 1C    bcs  $DC85	;If top of current sprite is lower on the screen then previous then done
DC69: BD 3A 1F lda  SPRITE_Y_EXTENT,x	;Get sprite bottom Y-pos
DC6C: D9 26 1B cmp  SPRITE_Y,y	;Compare with Y-pos of bottom of previous sprite
DC6F: 90 14    bcc  $DC85	;
DC71: BD CF 1A lda  SPRITE_X,x
DC74: D9 E3 1E cmp  SPRITE_X_EXTENT,y
DC77: B0 0C    bcs  $DC85
DC79: BD E3 1E lda  SPRITE_X_EXTENT,x
DC7C: D9 CF 1A cmp  SPRITE_X,y
DC7F: 90 04    bcc  $DC85
DC81: A9 01    lda  #$01			; collision has occurred			
DC83: 85 B7    sta  $B7				; save TRUE value here
DC85: 60       rts  

;Setup DLL and DLs

DC86: A9 04    lda  #$04	;Pointer to $1804
DC88: 85 BC    sta  $BC		;
DC8A: A9 18    lda  #$18	;
DC8C: 85 BD    sta  $BD		;
DC8E: A9 0C    lda  #$0C	;
DC90: 85 A1    sta  $A1		;Index into DLL			
DC92: A2 01    ldx  #$01	;	
DC94: BD BC F1 lda  $F1BC,x	;Table of DL pointers
DC97: 85 BA    sta  $BA		;
DC99: BD C8 F1 lda  $F1C8,x	;
DC9C: 85 BB    sta  $BB		;
DC9E: A9 00    lda  #$00	;Clear each $80 byte block
DCA0: A8       tay  		;
DCA1: 91 BA    sta  ($BA),y	;
DCA3: C8       iny  		;
DCA4: C0 80    cpy  #$80	;
DCA6: 90 F9    bcc  $DCA1	;

DCA8: A4 A1    ldy  $A1		;Build DLL entry starting at $1810
DCAA: A9 4F    lda  #$4F	;DLL control: H16 on, Offset = 16
DCAC: 91 BC    sta  ($BC),y	;
DCAE: C8       iny  		;Next byte
DCAF: A5 BB    lda  $BB		;Set DL pointer
DCB1: 91 BC    sta  ($BC),y	;
DCB3: C8       iny  		;
DCB4: A5 BA    lda  $BA		;
DCB6: 91 BC    sta  ($BC),y	;
DCB8: C8       iny  		;
DCB9: 84 A1    sty  $A1		;Save DLL index
DCBB: E8       inx  		;
DCBC: E0 0C    cpx  #$0C	;
DCBE: 90 D4    bcc  $DC94	;Setup 11 DLL entries

;Clear $194F - $1ACF

DCC0: A9 19    lda  #$19	;Setup pointer to $194F
DCC2: 85 BB    sta  $BB		;
DCC4: A9 4F    lda  #$4F	;
DCC6: 85 BA    sta  $BA		;
DCC8: A2 01    ldx  #$01	;
DCCA: A9 00    lda  #$00	;
DCCC: A8       tay  		;
DCCD: 91 BA    sta  ($BA),y	;Clear RAM
DCCF: C8       iny  		;
DCD0: C0 C0    cpy  #$C0	;
DCD2: 90 F9    bcc  $DCCD	;

DCD4: A5 BA    lda  $BA		;Move Pointer to $1A0F
DCD6: 18       clc  		;
DCD7: 69 C0    adc  #$C0	;
DCD9: 85 BA    sta  $BA		;
DCDB: A5 BB    lda  $BB		;
DCDD: 69 00    adc  #$00	;
DCDF: 85 BB    sta  $BB		;
DCE1: CA       dex  		;
DCE2: 10 E6    bpl  $DCCA	;

;Setup top 4 DLL entires

DCE4: A0 00    ldy  #$00	;
DCE6: A2 00    ldx  #$00	;
DCE8: BD 1F F2 lda  $F21F,x	;Read data from table	
DCEB: 91 BC    sta  ($BC),y	;Write into DLL
DCED: C8       iny  		;
DCEE: E8       inx  		;
DCEF: C0 0C    cpy  #$0C	;copy 12 bytes
DCF1: 90 F5    bcc  $DCE8	;

;Setup bottom 3 DLL entries

DCF3: A0 2D    ldy  #$2D	;Index to end of DLL
DCF5: BD 1F F2 lda  $F21F,x	;Read data from table
DCF8: 91 BC    sta  ($BC),y	;Store in DLL
DCFA: C8       iny  		;
DCFB: E8       inx  		;
DCFC: E0 15    cpx  #$15	;copy 9 more bytes
DCFE: 90 F5    bcc  $DCF5	;


DD00: A0 0C    ldy  #$0C	;		
DD02: A9 CF    lda  #$CF	;Set DLI on 5th DLL entry + H16
DD04: 91 BC    sta  ($BC),y	;

DD06: A9 00    lda  #$00	;Clear $1800-$1803
DD08: A2 03    ldx  #$03	;
DD0A: 9D 00 18 sta  $1800,x	;
DD0D: CA       dex  		;
DD0E: 10 FA    bpl  $DD0A	;

DD10: A2 0B    ldx  #$0B
DD12: A9 00    lda  #$00
DD14: 9D 63 19 sta  $1963,x
DD17: 9D 25 21 sta  $2125,x
DD1A: 9D 31 21 sta  $2131,x
DD1D: CA       dex  
DD1E: 10 F4    bpl  $DD14


DD20: 20 34 DD jsr  $DD34	;Setup some DL entries

DD23: A9 00    lda  #$00
DD25: 85 50    sta  $50
DD27: 85 E5    sta  $E5
DD29: A9 20    lda  #$20
DD2B: 85 51    sta  $51
DD2D: A9 21    lda  #$21
DD2F: 85 52    sta  $52
DD31: 85 53    sta  $53
DD33: 60       rts

;Setup DL entry at $2253

DD34: A2 16    ldx  #$16	;Copy DL data from table to RAM
DD36: BD F8 F1 lda  $F1F8,x	;
DD39: 9D 53 22 sta  $2253,x	;
DD3C: CA       dex  		;
DD3D: 10 F7    bpl  $DD36	;

;Setup DL entry at $226C

DD3F: A2 11    ldx  #$11	;Copy DL data from table to RAM
DD41: BD 0E F2 lda  $F20E,x	;
DD44: 9D 6C 22 sta  $226C,x	;
DD47: CA       dex  		;
DD48: 10 F7    bpl  $DD41	;


DD4A: A2 00    ldx  #$00
DD4C: A9 16    lda  #$16
DD4E: 18       clc  
DD4F: 9D 1E 21 sta  $211E,x
DD52: 69 01    adc  #$01
DD54: E8       inx  
DD55: E0 05    cpx  #$05
DD57: 90 F6    bcc  $DD4F
DD59: 60       rts  


DD5A: A2 01    ldx  #$01
DD5C: BD BC F1 lda  $F1BC,x
DD5F: 85 BA    sta  $BA
DD61: BD C8 F1 lda  $F1C8,x
DD64: 85 BB    sta  $BB
DD66: A0 01    ldy  #$01
DD68: A9 00    lda  #$00
DD6A: 91 BA    sta  ($BA),y
DD6C: C8       iny  
DD6D: C8       iny  
DD6E: C8       iny  
DD6F: C8       iny  
DD70: C0 80    cpy  #$80
DD72: 90 F6    bcc  $DD6A
DD74: E8       inx  
DD75: E0 0C    cpx  #$0C
DD77: 90 E3    bcc  $DD5C
DD79: A2 0B    ldx  #$0B
DD7B: A9 00    lda  #$00
DD7D: 9D 63 19 sta  $1963,x
DD80: 9D 25 21 sta  $2125,x
DD83: 9D 31 21 sta  $2131,x
DD86: CA       dex  
DD87: 10 F4    bpl  $DD7D
DD89: A9 00    lda  #$00
DD8B: 85 50    sta  $50
DD8D: 85 E5    sta  $E5
DD8F: A9 20    lda  #$20
DD91: 85 51    sta  $51
DD93: A9 21    lda  #$21
DD95: 85 52    sta  $52
DD97: 85 53    sta  $53
DD99: 60       rts  

DD9A: 20 45 F5 jsr  $F545	;Wait for next VBLANK
DD9D: A9 04    lda  #$04	;Set pointer to DLL
DD9F: 85 BC    sta  $BC		;
DDA1: A9 18    lda  #$18	;
DDA3: 85 BD    sta  $BD		;
DDA5: A9 0C    lda  #$0C	;
DDA7: 85 A1    sta  $A1
DDA9: A2 00    ldx  #$00
DDAB: BD BA F2 lda  $F2BA,x
DDAE: 86 A2    stx  $A2
DDB0: AA       tax  
DDB1: BD 90 F2 lda  $F290,x	;Setup a pointer
DDB4: 85 BA    sta  $BA		;
DDB6: BD A5 F2 lda  $F2A5,x	;
DDB9: 85 BB    sta  $BB		;
DDBB: E0 14    cpx  #$14
DDBD: F0 0A    beq  $DDC9
DDBF: A9 00    lda  #$00
DDC1: A8       tay  
DDC2: 91 BA    sta  ($BA),y
DDC4: C8       iny  
DDC5: C0 56    cpy  #$56
DDC7: 90 F9    bcc  $DDC2
DDC9: A4 A1    ldy  $A1
DDCB: A9 07    lda  #$07
DDCD: 91 BC    sta  ($BC),y
DDCF: C8       iny  
DDD0: A5 BB    lda  $BB
DDD2: 91 BC    sta  ($BC),y
DDD4: C8       iny  
DDD5: A5 BA    lda  $BA
DDD7: 91 BC    sta  ($BC),y
DDD9: C8       iny  
DDDA: 84 A1    sty  $A1
DDDC: A6 A2    ldx  $A2
DDDE: E8       inx  
DDDF: E0 16    cpx  #$16
DDE1: 90 C8    bcc  $DDAB

DDE3: A0 4E    ldy  #$4E
DDE5: A2 00    ldx  #$00
DDE7: BD 2B F2 lda  $F22B,x
DDEA: 91 BC    sta  ($BC),y
DDEC: C8       iny  
DDED: E8       inx  
DDEE: E0 09    cpx  #$09
DDF0: 90 F5    bcc  $DDE7
DDF2: A0 0C    ldy  #$0C
DDF4: A9 87    lda  #$87
DDF6: 91 BC    sta  ($BC),y
DDF8: A9 00    lda  #$00
DDFA: A2 03    ldx  #$03
DDFC: 9D 00 18 sta  $1800,x
DDFF: CA       dex  
DE00: 10 FA    bpl  $DDFC
DE02: 60       rts  

DE03: A6 77    ldx  $77
DE05: BD 91 1F lda  SPRITE_STATE_1F91,x
DE08: F0 33    beq  $DE3D
DE0A: BD 8C 1E lda  SPRITE_TYPE_1E8C,x
DE0D: C5 76    cmp  $76
DE0F: D0 2C    bne  $DE3D
DE11: 20 36 E1 jsr  $E136
DE14: AD 3E 21 lda  $213E
DE17: D0 06    bne  $DE1F
DE19: 9D E8 1F sta  $1FE8,x
DE1C: 4C 47 DE jmp  $DE47
DE1F: A9 00    lda  #$00
DE21: 9D 91 1F sta  SPRITE_STATE_1F91,x
DE24: BD 8C 1E lda  SPRITE_TYPE_1E8C,x
DE27: 29 1F    and  #$1F
DE29: A8       tay  
DE2A: A9 00    lda  #$00
DE2C: 9D 8C 1E sta  SPRITE_TYPE_1E8C,x
DE2F: C0 0B    cpy  #$0B
DE31: B0 0A    bcs  $DE3D
DE33: C0 06    cpy  #$06
DE35: B0 04    bcs  $DE3B
DE37: C0 01    cpy  #$01
DE39: D0 02    bne  $DE3D
DE3B: C6 C9    dec  $C9
DE3D: E8       inx  
DE3E: E0 57    cpx  #$57
DE40: D0 C3    bne  $DE05
DE42: A9 01    lda  #$01
DE44: 85 78    sta  $78
DE46: 60       rts  

DE47: E8       inx  
DE48: E0 57    cpx  #$57
DE4A: D0 05    bne  $DE51
DE4C: A9 01    lda  #$01
DE4E: 85 78    sta  $78
DE50: 60       rts  

DE51: 86 77    stx  $77
DE53: 60       rts  

;*****************************************************
; Write a DL entry
;	$B3 = Low address of data
; 	$AE = DL region to write to	
;	$AF = palette and width
;	X = sprite number to write

DE54: 86 AD    stx  $AD		;Save sprite number
DE56: A6 AE    ldx  $AE		;Display list index
DE58: BD BC F1 lda  $F1BC,x	;Get display list address
DE5B: 85 BA    sta  $BA		;
DE5D: BD C8 F1 lda  $F1C8,x	;
DE60: 85 BB    sta  $BB		;

DE62: BD E0 F1 lda  $F1E0,x	;Pointer table
DE65: 85 BC    sta  $BC		;
DE67: BD EC F1 lda  $F1EC,x	;
DE6A: 85 BD    sta  $BD		;

DE6C: BD 31 21 lda  $2131,x	;next available DL slot
DE6F: FE 31 21 inc  $2131,x	;increment it
DE72: A8       tay  		;
DE73: A5 AD    lda  $AD		;get sprite number
DE75: 9D 25 21 sta  $2125,x	
DE78: 91 BC    sta  ($BC),y
DE7A: 98       tya  		;get DL index
DE7B: 0A       asl  a		;*4
DE7C: 0A       asl  a		;
DE7D: 65 BA    adc  $BA		;add to DL start pointer
DE7F: 85 BA    sta  $BA		;
DE81: A6 AD    ldx  $AD		;Get sprite number
DE83: C6 50    dec  $50		
DE85: 86 AD    stx  $AD		
DE87: A0 00    ldy  #$00	;Index into DL entry
DE89: A5 B3    lda  $B3		;Low address of data
DE8B: 91 BA    sta  ($BA),y	;Write address low
DE8D: A5 AF    lda  $AF		;
DE8F: C8       iny  		;
DE90: 91 BA    sta  ($BA),y	;Write palette and width
DE92: C8       iny  		;
DE93: 38       sec  		;
DE94: BD 26 1B lda  SPRITE_Y,x ;Get player vertical position
DE97: A6 AE    ldx  $AE		;DL region to write to
DE99: FD D4 F1 sbc  $F1D4,x	;Subtract position of start of this DL region
DE9C: 18       clc  		;
DE9D: 65 B4    adc  $B4		;Add to high byte of data address
DE9F: 91 BA    sta  ($BA),y	;Write address high
DEA1: C8       iny  		;
DEA2: A6 AD    ldx  $AD		;Get sprite number
DEA4: BD CF 1A lda  SPRITE_X,x ;Get player x position
DEA7: 91 BA    sta  ($BA),y	;Write position
DEA9: 60       rts  


		
DEAA: A4 53    ldy  $53		
DEAC: C4 52    cpy  $52
DEAE: D0 03    bne  $DEB3
DEB0: 4C FD DF jmp  $DFFD

DEB3: A5 E4    lda  $E4
DEB5: D0 FC    bne  $DEB3	
DEB7: A4 53    ldy  $53
DEB9: BE 00 22 ldx  $2200,y
DEBC: 88       dey  
DEBD: 10 02    bpl  $DEC1
DEBF: A0 21    ldy  #$21
DEC1: 84 53    sty  $53
DEC3: BD 91 1F lda  SPRITE_STATE_1F91,x ;Sprite enabled table
DEC6: 85 A0    sta  $A0		   ;Save
DEC8: D0 25    bne  $DEEF	   ;Branch if enabled
DECA: BD E8 1F lda  $1FE8,x
DECD: 29 F0    and  #$F0
DECF: F0 0D    beq  $DEDE
DED1: 4A       lsr  a
DED2: 4A       lsr  a
DED3: 4A       lsr  a
DED4: 4A       lsr  a
DED5: 85 AE    sta  $AE
DED7: A9 01    lda  #$01
DED9: 85 A1    sta  $A1
DEDB: 20 05 E0 jsr  $E005
DEDE: BD E8 1F lda  $1FE8,x
DEE1: 29 0F    and  #$0F
DEE3: 85 AE    sta  $AE
DEE5: A9 00    lda  #$00
DEE7: 85 A1    sta  $A1
DEE9: 20 05 E0 jsr  $E005
DEEC: 4C DB DF jmp  $DFDB

DEEF: A5 A0    lda  $A0			
DEF1: 29 08    and  #$08
DEF3: F0 17    beq  $DF0C
DEF5: BD E8 1F lda  $1FE8,x
DEF8: 29 0F    and  #$0F
DEFA: 85 AE    sta  $AE
DEFC: 20 EA D0 jsr  $D0EA
DEFF: BD 87 1D lda  $1D87,x
DF02: 85 BB    sta  $BB
DF04: BD DE 1D lda  $1DDE,x
DF07: 85 BA    sta  $BA
DF09: 20 83 DE jsr  $DE83

DF0C: A5 A0    lda  $A0
DF0E: 29 04    and  #$04
DF10: F0 1F    beq  $DF31
DF12: BD E8 1F lda  $1FE8,x
DF15: 4A       lsr  a
DF16: 4A       lsr  a
DF17: 4A       lsr  a
DF18: 4A       lsr  a
DF19: 85 AE    sta  $AE
DF1B: 20 EA D0 jsr  $D0EA
DF1E: BD 35 1E lda  $1E35,x
DF21: 18       clc  
DF22: 7D DE 1D adc  $1DDE,x
DF25: 85 BA    sta  $BA
DF27: BD 87 1D lda  $1D87,x
DF2A: 69 00    adc  #$00
DF2C: 85 BB    sta  $BB
DF2E: 20 83 DE jsr  $DE83
DF31: A5 A0    lda  $A0
DF33: 29 10    and  #$10
DF35: F0 10    beq  $DF47
DF37: BD E8 1F lda  $1FE8,x
DF3A: 4A       lsr  a
DF3B: 4A       lsr  a
DF3C: 4A       lsr  a
DF3D: 4A       lsr  a
DF3E: 85 AE    sta  $AE
DF40: A9 01    lda  #$01
DF42: 85 A1    sta  $A1
DF44: 20 05 E0 jsr  $E005
DF47: A5 A0    lda  $A0
DF49: 29 20    and  #$20
DF4B: F0 0E    beq  $DF5B
DF4D: BD E8 1F lda  $1FE8,x
DF50: 29 0F    and  #$0F
DF52: 85 AE    sta  $AE
DF54: A9 00    lda  #$00
DF56: 85 A1    sta  $A1
DF58: 20 05 E0 jsr  $E005
DF5B: A5 A0    lda  $A0
DF5D: 29 80    and  #$80
DF5F: F0 49    beq  $DFAA

DF61: A9 00    lda  #$00
DF63: 85 A3    sta  $A3
DF65: BD E8 1F lda  $1FE8,x
DF68: F0 07    beq  $DF71
DF6A: 85 A3    sta  $A3
DF6C: BD DE 1D lda  $1DDE,x
DF6F: 85 A2    sta  $A2
DF71: BD 26 1B lda  SPRITE_Y,x ;Get sprite y position
DF74: 4A       lsr  a		 ;Get top 4 bits
DF75: 4A       lsr  a	 	 ;
DF76: 4A       lsr  a		 ;
DF77: 4A       lsr  a		 ;
DF78: 85 AE    sta  $AE		 ;DL region to write to
DF7A: 20 EA D0 jsr  $D0EA	 ;Determine address of data
DF7D: 20 54 DE jsr  $DE54	 ;Write DL
DF80: BD E8 1F lda  $1FE8,x	
DF83: 29 F0    and  #$F0
DF85: 05 AE    ora  $AE
DF87: 9D E8 1F sta  $1FE8,x
DF8A: A5 BA    lda  $BA
DF8C: 9D DE 1D sta  $1DDE,x
DF8F: A5 BB    lda  $BB
DF91: 9D 87 1D sta  $1D87,x
DF94: A5 A3    lda  $A3
DF96: F0 12    beq  $DFAA
DF98: 0A       asl  a
DF99: 0A       asl  a
DF9A: 0A       asl  a
DF9B: 0A       asl  a
DF9C: 1D E8 1F ora  $1FE8,x
DF9F: 9D E8 1F sta  $1FE8,x
DFA2: A5 A2    lda  $A2
DFA4: 38       sec  
DFA5: E5 BA    sbc  $BA
DFA7: 9D 35 1E sta  $1E35,x
DFAA: A5 A0    lda  $A0
DFAC: 29 40    and  #$40
DFAE: F0 2B    beq  $DFDB
DFB0: BD 3A 1F lda  SPRITE_Y_EXTENT,x	
DFB3: 4A       lsr  a
DFB4: 4A       lsr  a
DFB5: 4A       lsr  a
DFB6: 4A       lsr  a
DFB7: 85 AE    sta  $AE
DFB9: 20 EA D0 jsr  $D0EA
DFBC: 20 54 DE jsr  $DE54
DFBF: BD E8 1F lda  $1FE8,x
DFC2: 29 0F    and  #$0F
DFC4: 85 A2    sta  $A2
DFC6: BD 3A 1F lda  SPRITE_Y_EXTENT,x
DFC9: 29 F0    and  #$F0
DFCB: 05 A2    ora  $A2
DFCD: 9D E8 1F sta  $1FE8,x
DFD0: 38       sec  
DFD1: A5 BA    lda  $BA
DFD3: FD DE 1D sbc  $1DDE,x
DFD6: 9D 35 1E sta  $1E35,x
DFD9: D0 00    bne  $DFDB
DFDB: BD 91 1F lda  SPRITE_STATE_1F91,x
DFDE: 29 03    and  #$03
DFE0: 9D 91 1F sta  SPRITE_STATE_1F91,x
DFE3: F8       sed  
DFE4: 18       clc  
DFE5: A5 5F    lda  $5F
DFE7: 69 01    adc  #$01
DFE9: 85 5F    sta  $5F
DFEB: D8       cld  
DFEC: A4 53    ldy  $53
DFEE: C4 52    cpy  $52
DFF0: F0 07    beq  $DFF9
DFF2: A5 E4    lda  $E4
DFF4: D0 07    bne  $DFFD
DFF6: 4C B9 DE jmp  $DEB9
DFF9: A9 00    lda  #$00
DFFB: 85 50    sta  $50
DFFD: A0 01    ldy  #$01
DFFF: 84 E4    sty  $E4
E001: 88       dey  
E002: 84 54    sty  $54
E004: 60       rts  

E005: C6 50    dec  $50
E007: C6 50    dec  $50
E009: A4 AE    ldy  $AE
E00B: 86 A5    stx  $A5
E00D: BD 87 1D lda  $1D87,x
E010: 85 BB    sta  $BB
E012: BD DE 1D lda  $1DDE,x
E015: 85 BA    sta  $BA
E017: A5 A1    lda  $A1
E019: F0 0E    beq  $E029
E01B: BD 35 1E lda  $1E35,x
E01E: 18       clc  
E01F: 65 BA    adc  $BA
E021: 85 BA    sta  $BA
E023: A5 BB    lda  $BB
E025: 69 00    adc  #$00
E027: 85 BB    sta  $BB
E029: B9 31 21 lda  $2131,y
E02C: C9 01    cmp  #$01
E02E: D0 0C    bne  $E03C
E030: A9 00    lda  #$00
E032: 99 31 21 sta  $2131,y
E035: A0 01    ldy  #$01
E037: 91 BA    sta  ($BA),y
E039: 4C FA E0 jmp  $E0FA
E03C: A5 BA    lda  $BA
E03E: 38       sec  
E03F: F9 BC F1 sbc  $F1BC,y
E042: 4A       lsr  a
E043: 4A       lsr  a
E044: 85 A4    sta  $A4
E046: B9 25 21 lda  $2125,y
E049: 85 A2    sta  $A2
E04B: A8       tay  
E04C: A9 00    lda  #$00
E04E: 85 A8    sta  $A8
E050: C4 A5    cpy  $A5
E052: D0 0E    bne  $E062
E054: A9 01    lda  #$01
E056: 85 A8    sta  $A8
E058: A5 BA    lda  $BA
E05A: 85 BC    sta  $BC
E05C: A5 BB    lda  $BB
E05E: 85 BD    sta  $BD
E060: D0 36    bne  $E098
E062: A9 00    lda  #$00
E064: 85 A3    sta  $A3
E066: B9 E8 1F lda  $1FE8,y
E069: 29 0F    and  #$0F
E06B: C5 AE    cmp  $AE
E06D: F0 04    beq  $E073
E06F: A9 01    lda  #$01
E071: 85 A3    sta  $A3
E073: B9 87 1D lda  $1D87,y
E076: 85 BD    sta  $BD
E078: B9 DE 1D lda  $1DDE,y
E07B: 85 BC    sta  $BC
E07D: A5 A3    lda  $A3
E07F: F0 0E    beq  $E08F
E081: B9 35 1E lda  $1E35,y
E084: 18       clc  
E085: 65 BC    adc  $BC
E087: 85 BC    sta  $BC
E089: A5 BD    lda  $BD
E08B: 69 00    adc  #$00
E08D: 85 BD    sta  $BD
E08F: A0 03    ldy  #$03
E091: B1 BC    lda  ($BC),y
E093: 91 BA    sta  ($BA),y
E095: 88       dey  
E096: 10 F9    bpl  $E091
E098: A0 01    ldy  #$01
E09A: A9 00    lda  #$00
E09C: 91 BC    sta  ($BC),y
E09E: A6 AE    ldx  $AE
E0A0: BD E0 F1 lda  $F1E0,x
E0A3: 85 BC    sta  $BC
E0A5: BD EC F1 lda  $F1EC,x
E0A8: 85 BD    sta  $BD
E0AA: DE 31 21 dec  $2131,x
E0AD: BC 31 21 ldy  $2131,x
E0B0: A9 00    lda  #$00
E0B2: 91 BC    sta  ($BC),y
E0B4: 88       dey  
E0B5: B1 BC    lda  ($BC),y
E0B7: C5 A5    cmp  $A5
E0B9: D0 02    bne  $E0BD
E0BB: A5 A2    lda  $A2
E0BD: 9D 25 21 sta  $2125,x
E0C0: A4 A4    ldy  $A4
E0C2: A5 A8    lda  $A8
E0C4: D0 34    bne  $E0FA
E0C6: A5 A2    lda  $A2
E0C8: 91 BC    sta  ($BC),y
E0CA: AA       tax  
E0CB: A5 A3    lda  $A3
E0CD: D0 22    bne  $E0F1
E0CF: BD DE 1D lda  $1DDE,x
E0D2: 85 A6    sta  $A6
E0D4: A5 BA    lda  $BA
E0D6: 9D DE 1D sta  $1DDE,x
E0D9: A5 BB    lda  $BB
E0DB: 9D 87 1D sta  $1D87,x
E0DE: BD 35 1E lda  $1E35,x
E0E1: F0 17    beq  $E0FA
E0E3: A5 A6    lda  $A6
E0E5: 38       sec  
E0E6: E5 BA    sbc  $BA
E0E8: 18       clc  
E0E9: 7D 35 1E adc  $1E35,x
E0EC: 9D 35 1E sta  $1E35,x
E0EF: D0 09    bne  $E0FA
E0F1: A5 BA    lda  $BA
E0F3: 38       sec  
E0F4: FD DE 1D sbc  $1DDE,x
E0F7: 9D 35 1E sta  $1E35,x
E0FA: A6 A5    ldx  $A5
E0FC: A5 A1    lda  $A1
E0FE: D0 28    bne  $E128
E100: BD 35 1E lda  $1E35,x
E103: F0 1D    beq  $E122
E105: 18       clc  
E106: 7D DE 1D adc  $1DDE,x
E109: 9D DE 1D sta  $1DDE,x
E10C: A9 00    lda  #$00
E10E: 9D 35 1E sta  $1E35,x
E111: 7D 87 1D adc  $1D87,x
E114: 9D 87 1D sta  $1D87,x
E117: BD E8 1F lda  $1FE8,x
E11A: 4A       lsr  a
E11B: 4A       lsr  a
E11C: 4A       lsr  a
E11D: 4A       lsr  a
E11E: 9D E8 1F sta  $1FE8,x
E121: 60       rts  
E122: A9 00    lda  #$00
E124: 9D E8 1F sta  $1FE8,x
E127: 60       rts  

E128: A9 00    lda  #$00
E12A: 9D 35 1E sta  $1E35,x
E12D: BD E8 1F lda  $1FE8,x
E130: 29 0F    and  #$0F
E132: 9D E8 1F sta  $1FE8,x
E135: 60       rts  

E136: A9 01    lda  #$01
E138: 85 A0    sta  $A0
E13A: A9 00    lda  #$00
E13C: 85 B7    sta  $B7
E13E: BD 8C 1E lda  SPRITE_TYPE_1E8C,x
E141: 29 1F    and  #$1F
E143: F0 08    beq  $E14D
E145: C9 0F    cmp  #$0F
E147: F0 04    beq  $E14D
E149: A9 00    lda  #$00
E14B: 85 A0    sta  $A0
E14D: BD 26 1B lda  SPRITE_Y,x
E150: 4A       lsr  a
E151: 4A       lsr  a
E152: 4A       lsr  a
E153: 4A       lsr  a
E154: 85 A1    sta  $A1
E156: A8       tay  
E157: A5 A0    lda  $A0
E159: D0 07    bne  $E162
E15B: B9 63 19 lda  $1963,y
E15E: C9 17    cmp  #$17
E160: B0 19    bcs  $E17B
E162: BD 3A 1F lda  SPRITE_Y_EXTENT,x
E165: 4A       lsr  a
E166: 4A       lsr  a
E167: 4A       lsr  a
E168: 4A       lsr  a
E169: 85 A2    sta  $A2
E16B: C5 A1    cmp  $A1
E16D: F0 18    beq  $E187
E16F: A8       tay  
E170: A5 A0    lda  $A0
E172: D0 0D    bne  $E181
E174: B9 63 19 lda  $1963,y
E177: C9 17    cmp  #$17
E179: 90 06    bcc  $E181
E17B: A9 01    lda  #$01
E17D: 8D 3E 21 sta  $213E
E180: 60       rts  
E181: A9 C0    lda  #$C0
E183: E6 B7    inc  $B7
E185: D0 02    bne  $E189
E187: A9 80    lda  #$80
E189: 1D 91 1F ora  SPRITE_STATE_1F91,x
E18C: 9D 91 1F sta  SPRITE_STATE_1F91,x
E18F: E6 B7    inc  $B7
E191: A9 00    lda  #$00
E193: 8D 3E 21 sta  $213E
E196: A5 A0    lda  $A0
E198: D0 12    bne  $E1AC
E19A: 86 AA    stx  $AA
E19C: A6 A1    ldx  $A1
E19E: FE 63 19 inc  $1963,x
E1A1: A6 A2    ldx  $A2
E1A3: E4 A1    cpx  $A1
E1A5: F0 03    beq  $E1AA
E1A7: FE 63 19 inc  $1963,x
E1AA: A6 AA    ldx  $AA
E1AC: 4C 39 E3 jmp  $E339

;
; No idea what this does 
;
E1AF: A0 00    ldy  #$00
E1B1: 8C 3E 21 sty  $213E
E1B4: 84 A1    sty  $A1
E1B6: 84 A2    sty  $A2
E1B8: 84 A3    sty  $A3
E1BA: 84 A4    sty  $A4
E1BC: 84 B7    sty  $B7
E1BE: BD E8 1F lda  $1FE8,x
E1C1: 29 0F    and  #$0F
E1C3: 85 A5    sta  $A5
E1C5: BD E8 1F lda  $1FE8,x
E1C8: 4A       lsr  a
E1C9: 4A       lsr  a
E1CA: 4A       lsr  a
E1CB: 4A       lsr  a
E1CC: 85 A6    sta  $A6
E1CE: A9 03    lda  #$03
E1D0: 3D 91 1F and  SPRITE_STATE_1F91,x
E1D3: 9D 91 1F sta  SPRITE_STATE_1F91,x
E1D6: BD 91 1F lda  SPRITE_STATE_1F91,x
E1D9: D0 03    bne  $E1DE
E1DB: 4C 79 E2 jmp  $E279
E1DE: C9 03    cmp  #$03
E1E0: D0 03    bne  $E1E5
E1E2: 4C 9F E2 jmp  $E29F
E1E5: A5 BF    lda  $BF
E1E7: 4A       lsr  a
E1E8: 4A       lsr  a
E1E9: 4A       lsr  a
E1EA: 4A       lsr  a
E1EB: 85 A7    sta  $A7
E1ED: A5 C1    lda  $C1
E1EF: 4A       lsr  a
E1F0: 4A       lsr  a
E1F1: 4A       lsr  a
E1F2: 4A       lsr  a
E1F3: 85 A8    sta  $A8
E1F5: C5 A5    cmp  $A5
E1F7: F0 18    beq  $E211
E1F9: A5 A5    lda  $A5
E1FB: C5 A7    cmp  $A7
E1FD: F0 12    beq  $E211
E1FF: BD 91 1F lda  SPRITE_STATE_1F91,x
E202: 09 20    ora  #$20
E204: 9D 91 1F sta  SPRITE_STATE_1F91,x
E207: E6 B7    inc  $B7
E209: E6 B7    inc  $B7
E20B: A9 FF    lda  #$FF
E20D: 85 A1    sta  $A1
E20F: D0 0A    bne  $E21B
E211: BD 91 1F lda  SPRITE_STATE_1F91,x
E214: 09 08    ora  #$08
E216: 9D 91 1F sta  SPRITE_STATE_1F91,x
E219: E6 B7    inc  $B7
E21B: A5 A7    lda  $A7
E21D: C5 A5    cmp  $A5
E21F: F0 12    beq  $E233
E221: C5 A6    cmp  $A6
E223: F0 0E    beq  $E233
E225: BD 91 1F lda  SPRITE_STATE_1F91,x
E228: 09 80    ora  #$80
E22A: 9D 91 1F sta  SPRITE_STATE_1F91,x
E22D: E6 B7    inc  $B7
E22F: A9 01    lda  #$01
E231: 85 A3    sta  $A3
E233: A5 A6    lda  $A6
E235: F0 24    beq  $E25B
E237: C5 A7    cmp  $A7
E239: F0 16    beq  $E251
E23B: C5 A8    cmp  $A8
E23D: F0 12    beq  $E251
E23F: BD 91 1F lda  SPRITE_STATE_1F91,x
E242: 09 10    ora  #$10
E244: 9D 91 1F sta  SPRITE_STATE_1F91,x
E247: E6 B7    inc  $B7
E249: E6 B7    inc  $B7
E24B: A9 FF    lda  #$FF
E24D: 85 A2    sta  $A2
E24F: D0 0A    bne  $E25B
E251: BD 91 1F lda  SPRITE_STATE_1F91,x
E254: 09 04    ora  #$04
E256: 9D 91 1F sta  SPRITE_STATE_1F91,x
E259: E6 B7    inc  $B7
E25B: A5 A8    lda  $A8
E25D: C5 A7    cmp  $A7
E25F: F0 59    beq  $E2BA
E261: C5 A5    cmp  $A5
E263: F0 55    beq  $E2BA
E265: C5 A6    cmp  $A6
E267: F0 51    beq  $E2BA
E269: BD 91 1F lda  SPRITE_STATE_1F91,x
E26C: 09 40    ora  #$40
E26E: 9D 91 1F sta  SPRITE_STATE_1F91,x
E271: E6 B7    inc  $B7
E273: A9 01    lda  #$01
E275: 85 A4    sta  $A4
E277: D0 41    bne  $E2BA
E279: BD 91 1F lda  SPRITE_STATE_1F91,x
E27C: 09 20    ora  #$20
E27E: 9D 91 1F sta  SPRITE_STATE_1F91,x
E281: E6 B7    inc  $B7
E283: E6 B7    inc  $B7
E285: A9 FF    lda  #$FF
E287: 85 A1    sta  $A1
E289: A5 A6    lda  $A6
E28B: F0 2D    beq  $E2BA
E28D: BD 91 1F lda  SPRITE_STATE_1F91,x
E290: 09 10    ora  #$10
E292: 9D 91 1F sta  SPRITE_STATE_1F91,x
E295: E6 B7    inc  $B7
E297: E6 B7    inc  $B7
E299: A9 FF    lda  #$FF
E29B: 85 A2    sta  $A2
E29D: D0 1B    bne  $E2BA
E29F: BD 91 1F lda  SPRITE_STATE_1F91,x
E2A2: 09 08    ora  #$08
E2A4: 9D 91 1F sta  SPRITE_STATE_1F91,x
E2A7: E6 B7    inc  $B7
E2A9: A5 A6    lda  $A6
E2AB: F0 0A    beq  $E2B7
E2AD: BD 91 1F lda  SPRITE_STATE_1F91,x
E2B0: 09 04    ora  #$04
E2B2: 9D 91 1F sta  SPRITE_STATE_1F91,x
E2B5: E6 B7    inc  $B7
E2B7: 4C 39 E3 jmp  $E339
E2BA: BD 8C 1E lda  SPRITE_TYPE_1E8C,x
E2BD: 29 1F    and  #$1F
E2BF: F0 4E    beq  $E30F
E2C1: C9 0F    cmp  #$0F
E2C3: F0 4A    beq  $E30F
E2C5: A5 A3    lda  $A3
E2C7: F0 0B    beq  $E2D4
E2C9: 30 09    bmi  $E2D4
E2CB: A4 A7    ldy  $A7
E2CD: B9 63 19 lda  $1963,y
E2D0: C9 17    cmp  #$17
E2D2: B0 4D    bcs  $E321
E2D4: A5 A4    lda  $A4
E2D6: F0 0B    beq  $E2E3
E2D8: 30 09    bmi  $E2E3
E2DA: A4 A8    ldy  $A8
E2DC: B9 63 19 lda  $1963,y
E2DF: C9 17    cmp  #$17
E2E1: B0 3E    bcs  $E321
E2E3: A4 A8    ldy  $A8
E2E5: 18       clc  
E2E6: B9 63 19 lda  $1963,y
E2E9: 65 A4    adc  $A4
E2EB: 99 63 19 sta  $1963,y
E2EE: A4 A7    ldy  $A7
E2F0: 18       clc  
E2F1: B9 63 19 lda  $1963,y
E2F4: 65 A3    adc  $A3
E2F6: 99 63 19 sta  $1963,y
E2F9: A4 A5    ldy  $A5
E2FB: 18       clc  
E2FC: B9 63 19 lda  $1963,y
E2FF: 65 A1    adc  $A1
E301: 99 63 19 sta  $1963,y
E304: A4 A6    ldy  $A6
E306: 18       clc  
E307: B9 63 19 lda  $1963,y
E30A: 65 A2    adc  $A2
E30C: 99 63 19 sta  $1963,y
E30F: A0 0B    ldy  #$0B
E311: B9 63 19 lda  $1963,y
E314: 10 05    bpl  $E31B
E316: A9 00    lda  #$00
E318: 99 63 19 sta  $1963,y
E31B: 88       dey  
E31C: D0 F3    bne  $E311
E31E: 4C 39 E3 jmp  $E339
E321: BD 26 1B lda  SPRITE_Y,x
E324: 85 BF    sta  $BF
E326: BD 3A 1F lda  SPRITE_Y_EXTENT,x
E329: 85 C1    sta  $C1
E32B: A9 03    lda  #$03
E32D: 3D 91 1F and  SPRITE_STATE_1F91,x
E330: 9D 91 1F sta  SPRITE_STATE_1F91,x
E333: A9 01    lda  #$01
E335: 8D 3E 21 sta  $213E
E338: 60       rts  
E339: 8A       txa  
E33A: A4 52    ldy  $52
E33C: 99 00 22 sta  $2200,y
E33F: 88       dey  
E340: 10 02    bpl  $E344
E342: A0 21    ldy  #$21
E344: 84 52    sty  $52
E346: A5 50    lda  $50
E348: 18       clc  
E349: 65 B7    adc  $B7
E34B: 85 50    sta  $50
E34D: C5 51    cmp  $51
E34F: 90 04    bcc  $E355
E351: A9 01    lda  #$01
E353: 85 54    sta  $54
E355: 60       rts  

;Turn off sound

E356: 98       tya  		;Save A
E357: 48       pha  		;
E358: 8A       txa  		;Save X
E359: 48       pha  		;
E35A: A0 00    ldy  #$00	;Set sound volume to 0	
E35C: 84 19    sty  $19		;	
E35E: 84 1A    sty  $1A		;
E360: 8C 40 19 sty  $1940
E363: 8C 41 19 sty  $1941
E366: 88       dey  
E367: 8C 38 19 sty  $1938
E36A: 8C 39 19 sty  $1939
E36D: 68       pla  
E36E: AA       tax  
E36F: 68       pla  
E370: A8       tay  
E371: 60       rts  

E372: CD 38 19 cmp  $1938
E375: D0 0D    bne  $E384
E377: A9 00    lda  #$00
E379: 85 19    sta  $19
E37B: 8D 40 19 sta  $1940
E37E: A9 FF    lda  #$FF
E380: 8D 38 19 sta  $1938
E383: 60       rts  
E384: 38       sec  
E385: ED 39 19 sbc  $1939
E388: D0 0A    bne  $E394
E38A: 85 1A    sta  $1A
E38C: 8D 41 19 sta  $1941
E38F: A9 FF    lda  #$FF
E391: 8D 39 19 sta  $1939
E394: 60       rts  



; Play a sound
; Expects accumulator to be set to the sound index
; x = an object index
; y = an object index
;
; returns:
; x and y were as they were before

DoTune:
E395: 85 58    sta  $58			; save accumulator parameter
E397: A5 E3    lda  $E3			; are we in attract mode??
E399: F0 03    beq  $E39E		; no
E39B: 4C 44 E4 jmp  $E444		; if in attract mode, then just exit (straight jump to an RTS)

E39E: 98       tya				; save x and y on the stack
E39F: 48       pha  
E3A0: 8A       txa  
E3A1: 48       pha  
E3A2: A0 01    ldy  #$01		
E3A4: A6 58    ldx  $58
E3A6: BD 70 E6 lda  $E670,x
E3A9: F0 37    beq  $E3E2
E3AB: 85 58    sta  $58
E3AD: BD 46 E6 lda  $E646,x
E3B0: CD 40 19 cmp  $1940
E3B3: B0 03    bcs  $E3B8
E3B5: 4C 40 E4 jmp  $E440
E3B8: CD 41 19 cmp  $1941
E3BB: B0 03    bcs  $E3C0
E3BD: 4C 40 E4 jmp  $E440
E3C0: A9 01    lda  #$01
E3C2: 8D 43 19 sta  $1943
E3C5: 8A       txa  
E3C6: A8       tay  
E3C7: 09 80    ora  #$80
E3C9: 8D 38 19 sta  $1938
E3CC: B9 46 E6 lda  $E646,y
E3CF: 8D 40 19 sta  $1940
E3D2: A5 58    lda  $58
E3D4: A8       tay  
E3D5: 09 80    ora  #$80
E3D7: 8D 39 19 sta  $1939
E3DA: B9 46 E6 lda  $E646,y
E3DD: 8D 41 19 sta  $1941
E3E0: B0 5E    bcs  $E440
E3E2: B9 38 19 lda  $1938,y
E3E5: C9 FF    cmp  #$FF
E3E7: F0 17    beq  $E400
E3E9: 88       dey  
E3EA: 10 F6    bpl  $E3E2
E3EC: BD 46 E6 lda  $E646,x
E3EF: CD 41 19 cmp  $1941
E3F2: A0 01    ldy  #$01
E3F4: B0 0A    bcs  $E400
E3F6: BD 46 E6 lda  $E646,x
E3F9: CD 40 19 cmp  $1940
E3FC: 90 42    bcc  $E440
E3FE: A0 00    ldy  #$00
E400: 98       tya  
E401: 49 01    eor  #$01
E403: AA       tax  
E404: BD 38 19 lda  $1938,x
E407: C5 58    cmp  $58
E409: D0 08    bne  $E413
E40B: 8A       txa  
E40C: 48       pha  
E40D: A8       tay  
E40E: 68       pla  
E40F: AA       tax  
E410: 4C 1E E4 jmp  $E41E
E413: 29 7F    and  #$7F
E415: C5 58    cmp  $58
E417: D0 05    bne  $E41E
E419: 8A       txa  
E41A: 48       pha  
E41B: A8       tay  
E41C: 68       pla  
E41D: AA       tax  
E41E: AD 43 19 lda  $1943
E421: F0 0A    beq  $E42D
E423: A9 FF    lda  #$FF
E425: 9D 38 19 sta  $1938,x
E428: A9 00    lda  #$00
E42A: 9D 40 19 sta  $1940,x
E42D: A5 58    lda  $58
E42F: AA       tax  
E430: 09 80    ora  #$80
E432: 99 38 19 sta  $1938,y
E435: BD 46 E6 lda  $E646,x
E438: 99 40 19 sta  $1940,y
E43B: A9 00    lda  #$00
E43D: 8D 43 19 sta  $1943
E440: 68       pla  
E441: AA       tax  
E442: 68       pla  
E443: A8       tay  
E444: 60       rts  


;
;
;
;

E445: 85 58    sta  $58
E447: A5 E3    lda  $E3
E449: F0 03    beq  $E44E
E44B: 4C 9D E4 jmp  $E49D
E44E: 98       tya  
E44F: 48       pha  
E450: 8A       txa  
E451: 48       pha  
E452: A0 01    ldy  #$01
E454: A6 58    ldx  $58
E456: B9 38 19 lda  $1938,y
E459: C9 FF    cmp  #$FF
E45B: F0 17    beq  $E474
E45D: 88       dey  
E45E: 10 F6    bpl  $E456
E460: BD 46 E6 lda  $E646,x
E463: CD 41 19 cmp  $1941
E466: A0 01    ldy  #$01
E468: B0 0A    bcs  $E474
E46A: BD 46 E6 lda  $E646,x
E46D: CD 40 19 cmp  $1940
E470: 90 27    bcc  $E499
E472: A0 00    ldy  #$00
E474: 8A       txa  
E475: CD 38 19 cmp  $1938
E478: F0 1F    beq  $E499
E47A: CD 39 19 cmp  $1939
E47D: F0 1A    beq  $E499
E47F: 09 80    ora  #$80
E481: CD 38 19 cmp  $1938
E484: F0 13    beq  $E499
E486: CD 39 19 cmp  $1939
E489: F0 0E    beq  $E499
E48B: 99 38 19 sta  $1938,y
E48E: BD 46 E6 lda  $E646,x
E491: 99 40 19 sta  $1940,y
E494: A9 00    lda  #$00
E496: 8D 43 19 sta  $1943
E499: 68       pla  
E49A: AA       tax  
E49B: 68       pla  
E49C: A8       tay  
E49D: 60       rts  


;
;
;
;

E49E: A2 01    ldx  #$01
E4A0: BC 38 19 ldy  $1938,x
E4A3: C8       iny  
E4A4: D0 03    bne  $E4A9
E4A6: 4C BC E5 jmp  $E5BC
E4A9: 88       dey  
E4AA: 10 41    bpl  $E4ED
E4AC: AD 42 19 lda  $1942
E4AF: F0 19    beq  $E4CA
E4B1: AD 43 19 lda  $1943
E4B4: D0 14    bne  $E4CA
E4B6: A9 FF    lda  #$FF
E4B8: 8D 38 19 sta  $1938
E4BB: 8D 39 19 sta  $1939
E4BE: A9 00    lda  #$00
E4C0: 85 19    sta  $19
E4C2: 85 1A    sta  $1A
E4C4: 8D 40 19 sta  $1940
E4C7: 8D 41 19 sta  $1941
E4CA: 98       tya  
E4CB: 29 7F    and  #$7F
E4CD: 9D 38 19 sta  $1938,x
E4D0: A8       tay  
E4D1: A9 01    lda  #$01
E4D3: 9D 36 19 sta  $1936,x
E4D6: B9 46 E6 lda  $E646,y
E4D9: 9D 40 19 sta  $1940,x
E4DC: A9 FF    lda  #$FF
E4DE: 9D 3A 19 sta  $193A,x
E4E1: 9D 3C 19 sta  $193C,x
E4E4: 9D 3E 19 sta  $193E,x
E4E7: AD 43 19 lda  $1943
E4EA: 8D 42 19 sta  $1942
E4ED: B9 C8 E5 lda  $E5C8,y
E4F0: 85 56    sta  $56
E4F2: B9 DD E5 lda  $E5DD,y
E4F5: 85 57    sta  $57
E4F7: DE 36 19 dec  $1936,x
E4FA: D0 AA    bne  $E4A6
E4FC: B9 5B E6 lda  $E65B,y
E4FF: 9D 36 19 sta  $1936,x
E502: BC 3A 19 ldy  $193A,x
E505: FE 3C 19 inc  $193C,x
E508: FE 3E 19 inc  $193E,x
E50B: C8       iny  
E50C: B1 56    lda  ($56),y
E50E: C9 FF    cmp  #$FF
E510: D0 0F    bne  $E521
E512: 9D 38 19 sta  $1938,x
E515: A9 00    lda  #$00
E517: 95 19    sta  $19,x
E519: 9D 40 19 sta  $1940,x
E51C: 8D 42 19 sta  $1942
E51F: F0 85    beq  $E4A6
E521: C9 FE    cmp  #$FE
E523: F0 29    beq  $E54E
E525: C9 FD    cmp  #$FD
E527: D0 2E    bne  $E557
E529: C8       iny  
E52A: B1 56    lda  ($56),y
E52C: 9D 38 19 sta  $1938,x
E52F: A8       tay  
E530: B9 C8 E5 lda  $E5C8,y
E533: 85 56    sta  $56
E535: B9 DD E5 lda  $E5DD,y
E538: 85 57    sta  $57
E53A: B9 5B E6 lda  $E65B,y
E53D: 9D 36 19 sta  $1936,x
E540: A0 00    ldy  #$00
E542: 98       tya  
E543: 9D 3C 19 sta  $193C,x
E546: 9D 3E 19 sta  $193E,x
E549: B1 56    lda  ($56),y
E54B: 4C 57 E5 jmp  $E557
E54E: C8       iny  
E54F: B1 56    lda  ($56),y
E551: 9D 40 19 sta  $1940,x
E554: C8       iny  
E555: B1 56    lda  ($56),y
E557: 10 0D    bpl  $E566
E559: C8       iny  
E55A: B1 56    lda  ($56),y
E55C: 9D 36 19 sta  $1936,x
E55F: 88       dey  
E560: B1 56    lda  ($56),y
E562: C8       iny  
E563: 4C 80 E5 jmp  $E580
E566: 0A       asl  a
E567: 10 16    bpl  $E57F
E569: 4A       lsr  a
E56A: 29 BF    and  #$BF
E56C: 9D 36 19 sta  $1936,x
E56F: 98       tya  
E570: 9D 3A 19 sta  $193A,x
E573: DE 3E 19 dec  $193E,x
E576: DE 3C 19 dec  $193C,x
E579: A9 00    lda  #$00
E57B: 95 19    sta  $19,x
E57D: F0 3D    beq  $E5BC
E57F: 4A       lsr  a
E580: 95 17    sta  $17,x
E582: 98       tya  
E583: 9D 3A 19 sta  $193A,x
E586: BC 38 19 ldy  $1938,x
E589: B9 1C E6 lda  $E61C,y
E58C: 85 56    sta  $56
E58E: B9 31 E6 lda  $E631,y
E591: 85 57    sta  $57
E593: BC 3E 19 ldy  $193E,x
E596: B1 56    lda  ($56),y
E598: 10 01    bpl  $E59B
E59A: 88       dey  
E59B: 95 19    sta  $19,x
E59D: 98       tya  
E59E: 9D 3E 19 sta  $193E,x
E5A1: BC 38 19 ldy  $1938,x
E5A4: B9 F2 E5 lda  $E5F2,y
E5A7: 85 56    sta  $56
E5A9: B9 07 E6 lda  $E607,y
E5AC: 85 57    sta  $57
E5AE: BC 3C 19 ldy  $193C,x
E5B1: B1 56    lda  ($56),y
E5B3: 10 01    bpl  $E5B6
E5B5: 88       dey  
E5B6: 95 15    sta  $15,x
E5B8: 98       tya  
E5B9: 9D 3C 19 sta  $193C,x
E5BC: CA       dex  
E5BD: 30 03    bmi  $E5C2
E5BF: 4C A0 E4 jmp  $E4A0
E5C2: A9 00    lda  #$00
E5C4: 8D 43 19 sta  $1943
E5C7: 60       rts  
E5C8: 85 90    sta  $90
E5CA: AD C3 C7 lda  $C7C3
E5CD: D0 4D    bne  $E61C
E5CF: D0 42    bne  $E613
E5D1: 5D 67 7D eor  $7D67,x
E5D4: 8D 2F 45 sta  $452F
E5D7: 4F       ill  $4F
E5D8: 71 93    adc  ($93),y
E5DA: 97       ill  $97
E5DB: DA       ill  $DA
E5DC: B4 E6    ldy  $E6,x
E5DE: E6 E6    inc  $E6
E5E0: E6 E6    inc  $E6
E5E2: E6 E7    inc  $E7
E5E4: E7       ill  $E7
E5E5: E8       inx  
E5E6: E8       inx  
E5E7: E8       inx  
E5E8: E8       inx  
E5E9: E8       inx  
E5EA: E9 E9    sbc  #$E9
E5EC: E9 E9    sbc  #$E9
E5EE: E9 E9    sbc  #$E9
E5F0: E9 EA    sbc  #$EA
E5F2: 8E A0 B5 stx  $B5A0
E5F5: C5 CE    cmp  $CE
E5F7: 0E 8F 09 asl  $098F
E5FA: 51 62    eor  ($62),y
E5FC: 72       ill  $72
E5FD: 8B       ill  $8B
E5FE: DE 3A 4A dec  $4A3A,x
E601: 6F       ill  $6F
E602: 91 95    sta  ($95),y
E604: D8       cld  
E605: 1A       ill  $1A
E606: 1C       ill  $1C
E607: E6 E6    inc  $E6
E609: E6 E6    inc  $E6
E60B: E6 E7    inc  $E7
E60D: E7       ill  $E7
E60E: E8       inx  
E60F: E8       inx  
E610: E8       inx  
E611: E8       inx  
E612: E8       inx  
E613: E8       inx  
E614: E9 E9    sbc  #$E9
E616: E9 E9    sbc  #$E9
E618: E9 E9    sbc  #$E9
E61A: EA       nop  
E61B: EA       nop  
E61C: 8F       ill  $8F
E61D: AC BC C6 ldy  $C6BC
E620: CF       ill  $CF
E621: 0F       ill  $0F
E622: CF       ill  $CF
E623: 41 52    eor  ($52,x)
E625: 63       ill  $63
E626: 73       ill  $73
E627: 8C 2E 3B sty  $3B2E
E62A: 4B       ill  $4B
E62B: 70 92    bvs  $E5BF
E62D: 96 D9    stx  $D9,y
E62F: 1B       ill  $1B
E630: 4D E6 E6 eor  $E6E6
E633: E6 E6    inc  $E6
E635: E6 E7    inc  $E7
E637: E7       ill  $E7
E638: E8       inx  
E639: E8       inx  
E63A: E8       inx  
E63B: E8       inx  
E63C: E8       inx  
E63D: E9 E9    sbc  #$E9
E63F: E9 E9    sbc  #$E9
E641: E9 E9    sbc  #$E9
E643: E9 EA    sbc  #$EA
E645: EB       ill  $EB
E646: 07       ill  $07
E647: 0F       ill  $0F
E648: 07       ill  $07
E649: 0F       ill  $0F
E64A: 0F       ill  $0F
E64B: 19 14 14 ora  $1414,y
E64E: 16 06    asl  $06,x
E650: 08       php  
E651: 09 07    ora  #$07
E653: 08       php  
E654: 06 0F    asl  $0F
E656: 0F       ill  $0F
E657: 06 08    asl  $08
E659: 07       ill  $07
E65A: 19 01 03 ora  $0301,y
E65D: 03       ill  $03
E65E: 06 06    asl  $06
E660: 01 02    ora  ($02,x)
E662: 02       ill  $02
E663: 0C       ill  $0C
E664: 01 01    ora  ($01,x)
E666: 01 01    ora  ($01,x)
E668: 01 01    ora  ($01,x)
E66A: 05 05    ora  $05
E66C: 2A       rol  a
E66D: 03       ill  $03
E66E: 01 01    ora  ($01,x)
E670: 00 00    brk  #$00
E672: 00 04    brk  #$04
E674: 03       ill  $03
E675: 00 00    brk  #$00
E677: 00 00    brk  #$00
E679: 00 0D    brk  #$0D
E67B: 00 00    brk  #$00
E67D: 0A       asl  a
E67E: 00 10    brk  #$10
E680: 0F       ill  $0F
E681: 00 00    brk  #$00
E683: 00 00    brk  #$00
E685: 03       ill  $03
E686: 04       ill  $04
E687: 05 06    ora  $06
E689: 07       ill  $07
E68A: 08       php  
E68B: 09 0A    ora  #$0A
E68D: FF       ill  $FF
E68E: 86 7F    stx  $7F
E690: 95 06    sta  $06,x
E692: 15 0D    ora  $0D,x
E694: 15 14    ora  $14,x
E696: 0C       ill  $0C
E697: FE 0F 15 inc  $150F,x
E69A: 13       ill  $13
E69B: 0B       ill  $0B
E69C: 15 12    ora  $12,x
E69E: 0A       asl  a
E69F: FF       ill  $FF
E6A0: 06 0D    asl  $0D
E6A2: 0D 06 0D ora  $0D06
E6A5: 0D 06 0D ora  $0D06
E6A8: 0D 06 0D ora  $0D06
E6AB: 0D 8A 02 ora  $028A
E6AE: 03       ill  $03
E6AF: 04       ill  $04
E6B0: 05 06    ora  $06
E6B2: 15 19    ora  $19,x
E6B4: FF       ill  $FF
E6B5: 08       php  
E6B6: 08       php  
E6B7: 08       php  
E6B8: 08       php  
E6B9: 08       php  
E6BA: 02       ill  $02
E6BB: 02       ill  $02
E6BC: 08       php  
E6BD: 06 05    asl  $05
E6BF: 04       ill  $04
E6C0: 03       ill  $03
E6C1: 05 02    ora  $02
E6C3: 0C       ill  $0C
E6C4: FF       ill  $FF
E6C5: 84 88    sty  $88
E6C7: 19 1A 1B ora  $1B1A,y
E6CA: 1C       ill  $1C
E6CB: 1D 1E FF ora  $FF1E,x
E6CE: 84 86    sty  $86
E6D0: 00 00    brk  #$00
E6D2: 00 00    brk  #$00
E6D4: 00 00    brk  #$00
E6D6: 0E 0D 0C asl  $0C0D
E6D9: 0B       ill  $0B
E6DA: 0A       asl  a
E6DB: 09 00    ora  #$00
E6DD: 0E 0D 0C asl  $0C0D
E6E0: 0B       ill  $0B
E6E1: 0A       asl  a
E6E2: 09 00    ora  #$00
E6E4: 0E 0D 0C asl  $0C0D
E6E7: 0B       ill  $0B
E6E8: 0A       asl  a
E6E9: 09 00    ora  #$00
E6EB: 0E 0D 0C asl  $0C0D
E6EE: 0B       ill  $0B
E6EF: 0A       asl  a
E6F0: 09 00    ora  #$00
E6F2: 0E 0D 0C asl  $0C0D
E6F5: 0B       ill  $0B
E6F6: 0A       asl  a
E6F7: 09 00    ora  #$00
E6F9: 0E 0D 0C asl  $0C0D
E6FC: 0B       ill  $0B
E6FD: 0A       asl  a
E6FE: 09 00    ora  #$00
E700: 0E 0D 0C asl  $0C0D
E703: 0B       ill  $0B
E704: 0A       asl  a
E705: 09 00    ora  #$00
E707: 0E 0D 0C asl  $0C0D
E70A: 0B       ill  $0B
E70B: 0A       asl  a
E70C: 09 FF    ora  #$FF
E70E: 84 00    sty  $00
E710: 00 00    brk  #$00
E712: 00 00    brk  #$00
E714: 00 0F    brk  #$0F
E716: 0F       ill  $0F
E717: 0F       ill  $0F
E718: 0F       ill  $0F
E719: 0F       ill  $0F
E71A: 0F       ill  $0F
E71B: 00 0F    brk  #$0F
E71D: 0F       ill  $0F
E71E: 0F       ill  $0F
E71F: 0F       ill  $0F
E720: 0F       ill  $0F
E721: 0F       ill  $0F
E722: 00 0F    brk  #$0F
E724: 0F       ill  $0F
E725: 0F       ill  $0F
E726: 0F       ill  $0F
E727: 0F       ill  $0F
E728: 0F       ill  $0F
E729: 00 0F    brk  #$0F
E72B: 0F       ill  $0F
E72C: 0F       ill  $0F
E72D: 0F       ill  $0F
E72E: 0F       ill  $0F
E72F: 0F       ill  $0F
E730: 00 0F    brk  #$0F
E732: 0F       ill  $0F
E733: 0F       ill  $0F
E734: 0F       ill  $0F
E735: 0F       ill  $0F
E736: 0F       ill  $0F
E737: 00 0F    brk  #$0F
E739: 0F       ill  $0F
E73A: 0F       ill  $0F
E73B: 0F       ill  $0F
E73C: 0F       ill  $0F
E73D: 0F       ill  $0F
E73E: 00 0F    brk  #$0F
E740: 0F       ill  $0F
E741: 0F       ill  $0F
E742: 0F       ill  $0F
E743: 0F       ill  $0F
E744: 0F       ill  $0F
E745: 00 0F    brk  #$0F
E747: 0F       ill  $0F
E748: 0F       ill  $0F
E749: 0F       ill  $0F
E74A: 0F       ill  $0F
E74B: 0F       ill  $0F
E74C: 00 1F    brk  #$1F
E74E: 1F       ill  $1F
E74F: 1D 1D 1B ora  $1B1D,x
E752: 1B       ill  $1B
E753: 1A       ill  $1A
E754: 1A       ill  $1A
E755: 18       clc  
E756: 18       clc  
E757: 17       ill  $17
E758: 17       ill  $17
E759: 16 16    asl  $16,x
E75B: 14       ill  $14
E75C: 14       ill  $14
E75D: 13       ill  $13
E75E: 13       ill  $13
E75F: 12       ill  $12
E760: 12       ill  $12
E761: 11 11    ora  ($11),y
E763: 10 10    bpl  $E775
E765: 0F       ill  $0F
E766: 0F       ill  $0F
E767: 0E 0E 0D asl  $0D0E
E76A: 0D 0C 0C ora  $0C0C
E76D: 0B       ill  $0B
E76E: 0B       ill  $0B
E76F: 0A       asl  a
E770: 0A       asl  a
E771: 09 1F    ora  #$1F
E773: 08       php  
E774: 1D 07 1B ora  $1B07,x
E777: 06 1A    asl  $1A
E779: 05 18    ora  $18
E77B: 04       ill  $04
E77C: 17       ill  $17
E77D: 15 15    ora  $15,x
E77F: 14       ill  $14
E780: 14       ill  $14
E781: 13       ill  $13
E782: 13       ill  $13
E783: 12       ill  $12
E784: 12       ill  $12
E785: 11 11    ora  ($11),y
E787: 10 10    bpl  $E799
E789: 0F       ill  $0F
E78A: 0F       ill  $0F
E78B: 0E 0E FD asl  $FD0E
E78E: 07       ill  $07
E78F: 06 0D    asl  $0D
E791: 06 0D    asl  $0D
E793: 06 0D    asl  $0D
E795: 06 0D    asl  $0D
E797: 06 0D    asl  $0D
E799: 06 0D    asl  $0D
E79B: 06 0D    asl  $0D
E79D: 06 0D    asl  $0D
E79F: 06 0D    asl  $0D
E7A1: 06 0D    asl  $0D
E7A3: 06 0D    asl  $0D
E7A5: 06 0D    asl  $0D
E7A7: 06 0D    asl  $0D
E7A9: 06 0D    asl  $0D
E7AB: 06 0D    asl  $0D
E7AD: 06 0D    asl  $0D
E7AF: 06 0D    asl  $0D
E7B1: 06 0D    asl  $0D
E7B3: 06 04    asl  $04
E7B5: 06 04    asl  $04
E7B7: 06 04    asl  $04
E7B9: 06 04    asl  $04
E7BB: 06 04    asl  $04
E7BD: 06 04    asl  $04
E7BF: 0D 04 0D ora  $0D04
E7C2: 04       ill  $04
E7C3: 0D 04 0D ora  $0D04
E7C6: 04       ill  $04
E7C7: 0D 04 0D ora  $0D04
E7CA: 04       ill  $04
E7CB: 0D 04 0D ora  $0D04
E7CE: 04       ill  $04
E7CF: 89       ill  $89
E7D0: 0D 0D 09 ora  $090D
E7D3: 13       ill  $13
E7D4: 18       clc  
E7D5: 1D 0B 0F ora  $0F0B,x
E7D8: 10 16    bpl  $E7F0
E7DA: 0A       asl  a
E7DB: 12       ill  $12
E7DC: 15 1D    ora  $1D,x
E7DE: 0D 0E 09 ora  $090E
E7E1: 13       ill  $13
E7E2: 18       clc  
E7E3: 1D 0B 0F ora  $0F0B,x
E7E6: 10 16    bpl  $E7FE
E7E8: 0A       asl  a
E7E9: 12       ill  $12
E7EA: 15 1D    ora  $1D,x
E7EC: 0D 0E 09 ora  $090E
E7EF: 13       ill  $13
E7F0: 18       clc  
E7F1: 1D 0B 0F ora  $0F0B,x
E7F4: 10 16    bpl  $E80C
E7F6: 0A       asl  a
E7F7: 12       ill  $12
E7F8: 15 1D    ora  $1D,x
E7FA: 0D 0E 09 ora  $090E
E7FD: 13       ill  $13
E7FE: 18       clc  
E7FF: 1D 0B 0F ora  $0F0B,x
E802: 10 16    bpl  $E81A
E804: 0A       asl  a
E805: 12       ill  $12
E806: 15 1D    ora  $1D,x
E808: FF       ill  $FF
E809: 0D 04 04 ora  $0404
E80C: 0D 0D 0D ora  $0D0D
E80F: 06 06    asl  $06
E811: 04       ill  $04
E812: 04       ill  $04
E813: 04       ill  $04
E814: 0D 0D 0D ora  $0D0D
E817: 06 06    asl  $06
E819: 04       ill  $04
E81A: 0D 0D 0D ora  $0D0D
E81D: 06 06    asl  $06
E81F: 04       ill  $04
E820: 04       ill  $04
E821: 04       ill  $04
E822: 0D 0D 0D ora  $0D0D
E825: 06 06    asl  $06
E827: 04       ill  $04
E828: 0D 0D 0D ora  $0D0D
E82B: 06 06    asl  $06
E82D: 04       ill  $04
E82E: 04       ill  $04
E82F: 04       ill  $04
E830: 0D 0D 0D ora  $0D0D
E833: 06 06    asl  $06
E835: 04       ill  $04
E836: 0D 0D 0D ora  $0D0D
E839: 06 06    asl  $06
E83B: 04       ill  $04
E83C: 04       ill  $04
E83D: 04       ill  $04
E83E: 0D 0D 0D ora  $0D0D
E841: 89       ill  $89
E842: 8A       txa  
E843: 04       ill  $04
E844: 8C 04 8F sty  $8F04
E847: 04       ill  $04
E848: 1F       ill  $1F
E849: 1F       ill  $1F
E84A: 1F       ill  $1F
E84B: 1F       ill  $1F
E84C: 1F       ill  $1F
E84D: 1F       ill  $1F
E84E: 1F       ill  $1F
E84F: 1F       ill  $1F
E850: FF       ill  $FF
E851: 88       dey  
E852: 09 09    ora  #$09
E854: 09 0F    ora  #$0F
E856: 0A       asl  a
E857: 09 07    ora  #$07
E859: 05 04    ora  $04
E85B: 03       ill  $03
E85C: 02       ill  $02
E85D: 1F       ill  $1F
E85E: 00 1F    brk  #$1F
E860: 00 FF    brk  #$FF
E862: 83       ill  $83
E863: 05 00    ora  $00
E865: 05 00    ora  $00
E867: 00 00    brk  #$00
E869: 05 05    ora  $05
E86B: 05 04    ora  $04
E86D: 04       ill  $04
E86E: 04       ill  $04
E86F: 03       ill  $03
E870: 03       ill  $03
E871: FF       ill  $FF
E872: 84 00    sty  $00
E874: 00 0E    brk  #$0E
E876: 0E 0E 0E asl  $0E0E
E879: 0E 0E 0E asl  $0E0E
E87C: 0E 16 13 asl  $1316
E87F: 12       ill  $12
E880: 11 0F    ora  ($0F),y
E882: 0E 0D 0C asl  $0C0D
E885: 0B       ill  $0B
E886: 0A       asl  a
E887: 09 08    ora  #$08
E889: 07       ill  $07
E88A: FF       ill  $FF
E88B: 8D 87 05 sta  $0587
E88E: 1F       ill  $1F
E88F: 05 1F    ora  $1F
E891: 05 1F    ora  $1F
E893: 05 1F    ora  $1F
E895: 05 1F    ora  $1F
E897: 05 1F    ora  $1F
E899: 05 1F    ora  $1F
E89B: 05 1F    ora  $1F
E89D: 05 1F    ora  $1F
E89F: 05 1F    ora  $1F
E8A1: 05 1F    ora  $1F
E8A3: 05 1F    ora  $1F
E8A5: 05 1F    ora  $1F
E8A7: 05 1F    ora  $1F
E8A9: 05 1F    ora  $1F
E8AB: 05 1F    ora  $1F
E8AD: 05 1F    ora  $1F
E8AF: 05 1F    ora  $1F
E8B1: 05 1F    ora  $1F
E8B3: 05 1F    ora  $1F
E8B5: 05 1F    ora  $1F
E8B7: 05 1F    ora  $1F
E8B9: 05 1F    ora  $1F
E8BB: 05 1F    ora  $1F
E8BD: 05 1F    ora  $1F
E8BF: 05 1F    ora  $1F
E8C1: 05 1F    ora  $1F
E8C3: 05 1F    ora  $1F
E8C5: 05 1F    ora  $1F
E8C7: 05 1F    ora  $1F
E8C9: 05 1F    ora  $1F
E8CB: 05 1F    ora  $1F
E8CD: 05 1F    ora  $1F
E8CF: 05 1F    ora  $1F
E8D1: 05 1F    ora  $1F
E8D3: 05 1F    ora  $1F
E8D5: 05 1F    ora  $1F
E8D7: 05 1F    ora  $1F
E8D9: 05 1F    ora  $1F
E8DB: 05 1F    ora  $1F
E8DD: FF       ill  $FF
E8DE: 0A       asl  a
E8DF: 04       ill  $04
E8E0: 0A       asl  a
E8E1: 04       ill  $04
E8E2: 0A       asl  a
E8E3: 04       ill  $04
E8E4: 0A       asl  a
E8E5: 04       ill  $04
E8E6: 0A       asl  a
E8E7: 04       ill  $04
E8E8: 0A       asl  a
E8E9: 04       ill  $04
E8EA: 0A       asl  a
E8EB: 04       ill  $04
E8EC: 0A       asl  a
E8ED: 04       ill  $04
E8EE: 0A       asl  a
E8EF: 04       ill  $04
E8F0: 0A       asl  a
E8F1: 04       ill  $04
E8F2: 0A       asl  a
E8F3: 04       ill  $04
E8F4: 0A       asl  a
E8F5: 04       ill  $04
E8F6: 0A       asl  a
E8F7: 04       ill  $04
E8F8: 0A       asl  a
E8F9: 04       ill  $04
E8FA: 0A       asl  a
E8FB: 04       ill  $04
E8FC: 0A       asl  a
E8FD: 04       ill  $04
E8FE: 0A       asl  a
E8FF: 04       ill  $04
E900: 0A       asl  a
E901: 04       ill  $04
E902: 0A       asl  a
E903: 04       ill  $04
E904: 0A       asl  a
E905: 04       ill  $04
E906: 0A       asl  a
E907: 04       ill  $04
E908: 0A       asl  a
E909: 04       ill  $04
E90A: 0A       asl  a
E90B: 04       ill  $04
E90C: 0A       asl  a
E90D: 04       ill  $04
E90E: 0A       asl  a
E90F: 04       ill  $04
E910: 0A       asl  a
E911: 04       ill  $04
E912: 0A       asl  a
E913: 04       ill  $04
E914: 0A       asl  a
E915: 04       ill  $04
E916: 0A       asl  a
E917: 04       ill  $04
E918: 0A       asl  a
E919: 04       ill  $04
E91A: 0A       asl  a
E91B: 04       ill  $04
E91C: 0A       asl  a
E91D: 04       ill  $04
E91E: 0A       asl  a
E91F: 04       ill  $04
E920: 0A       asl  a
E921: 04       ill  $04
E922: 0A       asl  a
E923: 04       ill  $04
E924: 0A       asl  a
E925: 04       ill  $04
E926: 0A       asl  a
E927: 04       ill  $04
E928: 0A       asl  a
E929: 04       ill  $04
E92A: 0A       asl  a
E92B: 04       ill  $04
E92C: 0A       asl  a
E92D: 04       ill  $04
E92E: 8B       ill  $8B
E92F: 00 00    brk  #$00
E931: 0D 0D 0D ora  $0D0D
E934: 0C       ill  $0C
E935: 0C       ill  $0C
E936: 0C       ill  $0C
E937: 0B       ill  $0B
E938: 0B       ill  $0B
E939: FF       ill  $FF
E93A: 84 00    sty  $00
E93C: 00 06    brk  #$06
E93E: 06 06    asl  $06
E940: 06 06    asl  $06
E942: 06 06    asl  $06
E944: 06 02    asl  $02
E946: 03       ill  $03
E947: 04       ill  $04
E948: 06 FF    asl  $FF
E94A: 88       dey  
E94B: 0A       asl  a
E94C: 0A       asl  a
E94D: 07       ill  $07
E94E: 05 12    ora  $12
E950: 12       ill  $12
E951: 12       ill  $12
E952: 12       ill  $12
E953: 12       ill  $12
E954: 12       ill  $12
E955: 12       ill  $12
E956: 13       ill  $13
E957: 13       ill  $13
E958: 13       ill  $13
E959: 13       ill  $13
E95A: 13       ill  $13
E95B: 14       ill  $14
E95C: 14       ill  $14
E95D: 14       ill  $14
E95E: 14       ill  $14
E95F: 1A       ill  $1A
E960: 18       clc  
E961: 17       ill  $17
E962: 16 14    asl  $14,x
E964: 13       ill  $13
E965: 12       ill  $12
E966: 11 10    ora  ($10),y
E968: 0F       ill  $0F
E969: 0E 0D 0C asl  $0C0D
E96C: 0B       ill  $0B
E96D: 0A       asl  a
E96E: FF       ill  $FF
E96F: 83       ill  $83
E970: 88       dey  
E971: 1F       ill  $1F
E972: 1F       ill  $1F
E973: 1F       ill  $1F
E974: 1E 1E 1D asl  $1D1E,x
E977: 1C       ill  $1C
E978: 1B       ill  $1B
E979: 1A       ill  $1A
E97A: 19 18 17 ora  $1718,y
E97D: 16 15    asl  $15,x
E97F: 14       ill  $14
E980: 13       ill  $13
E981: 12       ill  $12
E982: 11 10    ora  ($10),y
E984: 0F       ill  $0F
E985: 0E 0D 0C asl  $0C0D
E988: 0B       ill  $0B
E989: 0A       asl  a
E98A: 09 08    ora  #$08
E98C: 07       ill  $07
E98D: 06 05    asl  $05
E98F: 04       ill  $04
E990: FF       ill  $FF
E991: 81 88    sta  ($88,x)
E993: 12       ill  $12
E994: FF       ill  $FF
E995: 83       ill  $83
E996: 86 1F    stx  $1F
E998: 1F       ill  $1F
E999: 1F       ill  $1F
E99A: 1F       ill  $1F
E99B: 0C       ill  $0C
E99C: 0D 0E 0F ora  $0F0E
E99F: 0F       ill  $0F
E9A0: 10 10    bpl  $E9B2
E9A2: 10 11    bpl  $E9B5
E9A4: 11 11    ora  ($11),y
E9A6: 12       ill  $12
E9A7: 12       ill  $12
E9A8: 12       ill  $12
E9A9: 13       ill  $13
E9AA: 13       ill  $13
E9AB: 13       ill  $13
E9AC: 14       ill  $14
E9AD: 14       ill  $14
E9AE: 14       ill  $14
E9AF: 15 15    ora  $15,x
E9B1: 15 16    ora  $16,x
E9B3: 16 16    asl  $16,x
E9B5: 17       ill  $17
E9B6: 17       ill  $17
E9B7: 17       ill  $17
E9B8: 18       clc  
E9B9: 18       clc  
E9BA: 18       clc  
E9BB: 19 19 19 ora  $1919,y
E9BE: 1A       ill  $1A
E9BF: 1A       ill  $1A
E9C0: 1A       ill  $1A
E9C1: 1B       ill  $1B
E9C2: 1B       ill  $1B
E9C3: 1B       ill  $1B
E9C4: 1C       ill  $1C
E9C5: 1C       ill  $1C
E9C6: 1C       ill  $1C
E9C7: 1D 1D 1D ora  $1D1D,x
E9CA: 1E 1E 1E asl  $1E1E,x
E9CD: 1F       ill  $1F
E9CE: 1F       ill  $1F
E9CF: 1F       ill  $1F
E9D0: 1F       ill  $1F
E9D1: 1F       ill  $1F
E9D2: 1F       ill  $1F
E9D3: 1F       ill  $1F
E9D4: 1F       ill  $1F
E9D5: 1F       ill  $1F
E9D6: 1F       ill  $1F
E9D7: FF       ill  $FF
E9D8: 88       dey  
E9D9: 88       dey  
E9DA: 08       php  
E9DB: 09 0A    ora  #$0A
E9DD: 09 0A    ora  #$0A
E9DF: 0B       ill  $0B
E9E0: 0A       asl  a
E9E1: 0B       ill  $0B
E9E2: 0C       ill  $0C
E9E3: 0B       ill  $0B
E9E4: 0C       ill  $0C
E9E5: 0D 0C 0D ora  $0D0C
E9E8: 0E 0D 0E asl  $0E0D
E9EB: 0F       ill  $0F
E9EC: 0E 0F 10 asl  $100F
E9EF: 0F       ill  $0F
E9F0: 10 11    bpl  $EA03
E9F2: 10 11    bpl  $EA05
E9F4: 12       ill  $12
E9F5: 13       ill  $13
E9F6: 11 12    ora  ($12),y
E9F8: 13       ill  $13
E9F9: 14       ill  $14
E9FA: 12       ill  $12
E9FB: 13       ill  $13
E9FC: 14       ill  $14
E9FD: 15 13    ora  $13,x
E9FF: 14       ill  $14
EA00: 15 16    ora  $16,x
EA02: 15 16    ora  $16,x
EA04: 17       ill  $17
EA05: 18       clc  
EA06: 19 17 18 ora  $1817,y
EA09: 19 1A 1B ora  $1B1A,y
EA0C: 19 1A 1B ora  $1B1A,y
EA0F: 1C       ill  $1C
EA10: 1D 1B 1C ora  $1C1B,x
EA13: 1D 1E 1F ora  $1F1E,x
EA16: 1D 1E 1F ora  $1F1E,x
EA19: FF       ill  $FF
EA1A: 84 88    sty  $88
EA1C: 06 0D    asl  $0D
EA1E: 06 0D    asl  $0D
EA20: 06 0D    asl  $0D
EA22: 06 0D    asl  $0D
EA24: 06 0D    asl  $0D
EA26: 06 0D    asl  $0D
EA28: 06 0D    asl  $0D
EA2A: 06 0D    asl  $0D
EA2C: 06 0D    asl  $0D
EA2E: 06 0D    asl  $0D
EA30: 06 0D    asl  $0D
EA32: 06 0D    asl  $0D
EA34: 06 0D    asl  $0D
EA36: 06 0D    asl  $0D
EA38: 06 0D    asl  $0D
EA3A: 06 0D    asl  $0D
EA3C: 06 0D    asl  $0D
EA3E: 06 0D    asl  $0D
EA40: 01 07    ora  ($07,x)
EA42: 01 07    ora  ($07,x)
EA44: 01 07    ora  ($07,x)
EA46: 01 07    ora  ($07,x)
EA48: 01 07    ora  ($07,x)
EA4A: 01 07    ora  ($07,x)
EA4C: 01 07    ora  ($07,x)
EA4E: 01 07    ora  ($07,x)
EA50: 01 07    ora  ($07,x)
EA52: 01 07    ora  ($07,x)
EA54: 01 07    ora  ($07,x)
EA56: 01 07    ora  ($07,x)
EA58: 01 07    ora  ($07,x)
EA5A: 01 07    ora  ($07,x)
EA5C: 01 07    ora  ($07,x)
EA5E: 01 07    ora  ($07,x)
EA60: 01 07    ora  ($07,x)
EA62: 01 07    ora  ($07,x)
EA64: 01 07    ora  ($07,x)
EA66: 01 07    ora  ($07,x)
EA68: 01 07    ora  ($07,x)
EA6A: 01 07    ora  ($07,x)
EA6C: 01 07    ora  ($07,x)
EA6E: 01 07    ora  ($07,x)
EA70: 01 07    ora  ($07,x)
EA72: 01 07    ora  ($07,x)
EA74: 01 07    ora  ($07,x)
EA76: 01 07    ora  ($07,x)
EA78: 01 07    ora  ($07,x)
EA7A: 01 07    ora  ($07,x)
EA7C: 01 07    ora  ($07,x)
EA7E: 01 07    ora  ($07,x)
EA80: 01 07    ora  ($07,x)
EA82: 01 07    ora  ($07,x)
EA84: 01 07    ora  ($07,x)
EA86: 01 07    ora  ($07,x)
EA88: 01 07    ora  ($07,x)
EA8A: 01 07    ora  ($07,x)
EA8C: 01 07    ora  ($07,x)
EA8E: 01 07    ora  ($07,x)
EA90: 01 07    ora  ($07,x)
EA92: 01 07    ora  ($07,x)
EA94: 01 07    ora  ($07,x)
EA96: 01 07    ora  ($07,x)
EA98: 01 07    ora  ($07,x)
EA9A: 01 07    ora  ($07,x)
EA9C: 01 07    ora  ($07,x)
EA9E: 01 07    ora  ($07,x)
EAA0: 01 07    ora  ($07,x)
EAA2: 01 07    ora  ($07,x)
EAA4: 01 07    ora  ($07,x)
EAA6: 01 07    ora  ($07,x)
EAA8: 01 07    ora  ($07,x)
EAAA: 01 07    ora  ($07,x)
EAAC: 01 07    ora  ($07,x)
EAAE: 01 07    ora  ($07,x)
EAB0: 01 07    ora  ($07,x)
EAB2: 01 07    ora  ($07,x)
EAB4: 1F       ill  $1F
EAB5: 1F       ill  $1F
EAB6: 1D 1D 1B ora  $1B1D,x
EAB9: 1B       ill  $1B
EABA: 1A       ill  $1A
EABB: 1A       ill  $1A
EABC: 18       clc  
EABD: 18       clc  
EABE: 17       ill  $17
EABF: 17       ill  $17
EAC0: 16 16    asl  $16,x
EAC2: 14       ill  $14
EAC3: 14       ill  $14
EAC4: 13       ill  $13
EAC5: 13       ill  $13
EAC6: 12       ill  $12
EAC7: 12       ill  $12
EAC8: 11 11    ora  ($11),y
EACA: 10 10    bpl  $EADC
EACC: 0F       ill  $0F
EACD: 0F       ill  $0F
EACE: 0E 0E 0D asl  $0D0E
EAD1: 0D 0C 0C ora  $0C0C
EAD4: 0B       ill  $0B
EAD5: 0B       ill  $0B
EAD6: 0A       asl  a
EAD7: 0A       asl  a
EAD8: 1F       ill  $1F
EAD9: 1E 1F 1E asl  $1E1F,x
EADC: 1F       ill  $1F
EADD: 1E 1F 1E asl  $1E1F,x
EAE0: 1D 1E 1D ora  $1D1E,x
EAE3: 1E 1C 1D asl  $1D1C,x
EAE6: 1C       ill  $1C
EAE7: 1D 1B 1C ora  $1C1B,x
EAEA: 1B       ill  $1B
EAEB: 1C       ill  $1C
EAEC: 1A       ill  $1A
EAED: 1B       ill  $1B
EAEE: 1A       ill  $1A
EAEF: 1B       ill  $1B
EAF0: 19 1A 19 ora  $191A,y
EAF3: 1A       ill  $1A
EAF4: 18       clc  
EAF5: 19 18 19 ora  $1918,y
EAF8: 17       ill  $17
EAF9: 18       clc  
EAFA: 17       ill  $17
EAFB: 18       clc  
EAFC: 16 17    asl  $17,x
EAFE: 16 17    asl  $17,x
EB00: 15 16    ora  $16,x
EB02: 15 16    ora  $16,x
EB04: 14       ill  $14
EB05: 15 14    ora  $14,x
EB07: 15 13    ora  $13,x
EB09: 14       ill  $14
EB0A: 13       ill  $13
EB0B: 14       ill  $14
EB0C: 12       ill  $12
EB0D: 13       ill  $13
EB0E: 12       ill  $12
EB0F: 13       ill  $13
EB10: 11 12    ora  ($12),y
EB12: 11 12    ora  ($12),y
EB14: 10 11    bpl  $EB27
EB16: 10 11    bpl  $EB29
EB18: 0F       ill  $0F
EB19: 10 0F    bpl  $EB2A
EB1B: 10 0E    bpl  $EB2B
EB1D: 0F       ill  $0F
EB1E: 0E 0F 0D asl  $0D0F
EB21: 0E 0D 0E asl  $0E0D
EB24: 0C       ill  $0C
EB25: 0D 0C 0D ora  $0D0C
EB28: 0B       ill  $0B
EB29: 0C       ill  $0C
EB2A: 0B       ill  $0B
EB2B: 0C       ill  $0C
EB2C: 0A       asl  a
EB2D: 0B       ill  $0B
EB2E: 0A       asl  a
EB2F: 0B       ill  $0B
EB30: 09 0A    ora  #$0A
EB32: 09 0A    ora  #$0A
EB34: 08       php  
EB35: 09 08    ora  #$08
EB37: 09 07    ora  #$07
EB39: 08       php  
EB3A: 07       ill  $07
EB3B: 08       php  
EB3C: 06 07    asl  $07
EB3E: 06 07    asl  $07
EB40: 05 06    ora  $06
EB42: 06 06    asl  $06
EB44: 04       ill  $04
EB45: 05 04    ora  $04
EB47: 05 03    ora  $03
EB49: 04       ill  $04
EB4A: 03       ill  $03
EB4B: 04       ill  $04
EB4C: FF       ill  $FF
EB4D: 0A       asl  a
EB4E: 0A       asl  a
EB4F: 0A       asl  a
EB50: 0A       asl  a
EB51: 0A       asl  a
EB52: 0A       asl  a
EB53: 0A       asl  a
EB54: 0A       asl  a
EB55: 0A       asl  a
EB56: 0A       asl  a
EB57: 0A       asl  a
EB58: 0A       asl  a
EB59: 0A       asl  a
EB5A: 0A       asl  a
EB5B: 0A       asl  a
EB5C: 0A       asl  a
EB5D: 0A       asl  a
EB5E: 0A       asl  a
EB5F: 0A       asl  a
EB60: 0A       asl  a
EB61: 0A       asl  a
EB62: 0A       asl  a
EB63: 0A       asl  a
EB64: 0A       asl  a
EB65: 0A       asl  a
EB66: 0A       asl  a
EB67: 0A       asl  a
EB68: 0A       asl  a
EB69: 0A       asl  a
EB6A: 0A       asl  a
EB6B: 0A       asl  a
EB6C: 0A       asl  a
EB6D: 0A       asl  a
EB6E: 0A       asl  a
EB6F: 0A       asl  a
EB70: 0A       asl  a
EB71: 0A       asl  a
EB72: 0A       asl  a
EB73: 0A       asl  a
EB74: 0A       asl  a
EB75: 09 09    ora  #$09
EB77: 09 09    ora  #$09
EB79: 08       php  
EB7A: 08       php  
EB7B: 08       php  
EB7C: 08       php  
EB7D: 08       php  
EB7E: 08       php  
EB7F: 08       php  
EB80: 08       php  
EB81: 08       php  
EB82: 08       php  
EB83: 08       php  
EB84: 08       php  
EB85: 08       php  
EB86: 08       php  
EB87: 08       php  
EB88: 08       php  
EB89: 08       php  
EB8A: 08       php  
EB8B: 08       php  
EB8C: 08       php  
EB8D: 08       php  
EB8E: 08       php  
EB8F: 08       php  
EB90: 08       php  
EB91: 08       php  
EB92: 08       php  
EB93: 08       php  
EB94: 08       php  
EB95: 08       php  
EB96: 08       php  
EB97: 08       php  
EB98: 08       php  
EB99: 08       php  
EB9A: 08       php  
EB9B: 08       php  
EB9C: 08       php  
EB9D: 08       php  
EB9E: 08       php  
EB9F: 08       php  
EBA0: 08       php  
EBA1: 08       php  
EBA2: 08       php  
EBA3: 08       php  
EBA4: 08       php  
EBA5: 08       php  
EBA6: 08       php  
EBA7: 08       php  
EBA8: 08       php  
EBA9: 08       php  
EBAA: 08       php  
EBAB: 08       php  
EBAC: 08       php  
EBAD: 08       php  
EBAE: 08       php  
EBAF: 08       php  
EBB0: 08       php  
EBB1: 08       php  
EBB2: 08       php  
EBB3: 08       php  
EBB4: 08       php  
EBB5: 08       php  
EBB6: 08       php  
EBB7: 08       php  
EBB8: 08       php  
EBB9: 08       php  
EBBA: 08       php  
EBBB: 08       php  
EBBC: 08       php  
EBBD: 08       php  
EBBE: 08       php  
EBBF: 08       php  
EBC0: 08       php  
EBC1: 08       php  
EBC2: 08       php  
EBC3: 08       php  
EBC4: 08       php  
EBC5: 08       php  
EBC6: 08       php  
EBC7: 08       php  
EBC8: 08       php  
EBC9: 08       php  
EBCA: 08       php  
EBCB: 08       php  
EBCC: 08       php  
EBCD: 08       php  
EBCE: 08       php  
EBCF: 08       php  
EBD0: 08       php  
EBD1: 08       php  
EBD2: 08       php  
EBD3: 08       php  
EBD4: 08       php  
EBD5: 08       php  
EBD6: 08       php  
EBD7: 08       php  
EBD8: 08       php  
EBD9: 08       php  
EBDA: 08       php  
EBDB: 08       php  
EBDC: 08       php  
EBDD: 08       php  
EBDE: 08       php  
EBDF: 08       php  
EBE0: 08       php  
EBE1: 08       php  
EBE2: 08       php  
EBE3: 08       php  
EBE4: 08       php  

;Pointers to sprite type handlers

EBE5:
	.byte 	91,93	;Grunt
	.byte	A0,94	;Mommy
	.byte	A0,94	;Daddy
	.byte	A0,94	;Mikie
	.byte	C6,95	;Hulk
	.byte	F8,96	;Spheroid
	.byte	24,98	;Quark
	.byte	57,99	;Enforcer
	.byte   c7,b4   ;Tank
	

EBF5: C7 B4 sta  $B4C7,y
EBF7: 9A       txs  
EBF8: 9A       txs  
EBF9: 40       rti  
EBFA: B7       ill  $B7
EBFB: 47       ill  $47
EBFC: B6 4D    ldx  $4D,y
EBFE: B8       clv  
EBFF: 0D BB 00 ora  $00BB
EC02: 00 7D    brk  #$7D
EC04: 9C       ill  $9C
EC05: 00 00    brk  #$00
EC07: 00 00    brk  #$00
EC09: 00 05    brk  #$05
EC0B: 04       ill  $04
EC0C: 02       ill  $02
EC0D: 00 06    brk  #$06
EC0F: 07       ill  $07
EC10: 03       ill  $03
EC11: 00 01    brk  #$01
EC13: 00 00    brk  #$00
EC15: 0E 0D 07 asl  $070D
EC18: 0B       ill  $0B
EC19: 06 05    asl  $05
EC1B: 09 0A    ora  #$0A
EC1D: 00 00    brk  #$00
EC1F: 01 FF    ora  ($FF,x)
EC21: 01 01    ora  ($01,x)
EC23: FF       ill  $FF
EC24: FF       ill  $FF
EC25: FE 02 00 inc  $0002,x
EC28: 00 FE    brk  #$FE
EC2A: 02       ill  $02
EC2B: 02       ill  $02
EC2C: FE 00 00 inc  $0000,x
EC2F: 02       ill  $02
EC30: FE 02 02 inc  $0202,x
EC33: FE FE FC inc  $FCFE,x
EC36: 04       ill  $04
EC37: 00 00    brk  #$00
EC39: FC       ill  $FC
EC3A: 04       ill  $04
EC3B: 04       ill  $04
EC3C: FC       ill  $FC

;Stick tables

EC3D:
	.byte 00,00,00,00,00,01,01,01,00,ff,ff,ff,00,00,00,00

EC4D:
	.byte 00,00,00,00,00,02,FE,00,00,02,FE,00,00,02,FE,00


EC5D: 00 
EC5E: 00 00    brk  #$00
EC60: FD 00 00 sbc  $0000,x
EC63: 00 00    brk  #$00

EC65: FC       ill  $FC
EC66: 00 04    brk  #$04
EC68: 04       ill  $04
EC69: 03       ill  $03
EC6A: 00 04    brk  #$04
EC6C: 00 00    brk  #$00
EC6E: 00 FD    brk  #$FD
EC70: 00 00    brk  #$00
EC72: 00 00    brk  #$00
EC74: FC       ill  $FC
EC75: 00 FC    brk  #$FC
EC77: 00 00    brk  #$00
EC79: 00 00    brk  #$00
EC7B: 00 04    brk  #$04
EC7D: 05 05    ora  $05
EC7F: 05 FB    ora  $FB
EC81: 00 00    brk  #$00
EC83: 00 00    brk  #$00
EC85: FB       ill  $FB
EC86: 00 00    brk  #$00
EC88: 00 00    brk  #$00
EC8A: FB       ill  $FB
EC8B: 00 00    brk  #$00
EC8D: 00 00    brk  #$00
EC8F: 00 0B    brk  #$0B
EC91: 16 21    asl  $21,x
EC93: 2C 01 00 bit  $0001
EC96: 03       ill  $03
EC97: 02       ill  $02
EC98: 06 07    asl  $07
EC9A: 04       ill  $04
EC9B: 05 00    ora  $00
EC9D: 00 03    brk  #$03
EC9F: FD 03 03 sbc  $0303,x
ECA2: FD FD FB sbc  $FBFD,x
ECA5: 05 00    ora  $00
ECA7: 00 FB    brk  #$FB
ECA9: 05 05    ora  $05
ECAB: FB       ill  $FB
ECAC: 30 65    bmi  $ED13
ECAE: 05 51    ora  $51
ECB0: 5A       ill  $5A
ECB1: 1A       ill  $1A
ECB2: 11 3B    ora  ($3B),y
ECB4: 03       ill  $03
ECB5: 63       ill  $63
ECB6: 0E 17 09 asl  $0917
ECB9: 12       ill  $12
ECBA: 16 18    asl  $18,x
ECBC: 63       ill  $63
ECBD: 03       ill  $03
ECBE: 01 05    ora  ($05,x)
ECC0: 00 02    brk  #$02
ECC2: 04       ill  $04
ECC3: 06 05    asl  $05
ECC5: 17       ill  $17
ECC6: 10 63    bpl  $ED2B
ECC8: 0B       ill  $0B
ECC9: 14       ill  $14
ECCA: 19 1B 01 ora  $011B,y
ECCD: 0E 63 10 asl  $1063
ECD0: 07       ill  $07
ECD1: 0D 0F 11 ora  $110F
ECD4: 04       ill  $04
ECD5: 16 0F    asl  $0F,x
ECD7: 19 0A 13 ora  $130A,y
ECDA: 63       ill  $63
ECDB: 1A       ill  $1A
ECDC: 06 18    asl  $18
ECDE: 11 1B    ora  ($1B),y
ECE0: 0C       ill  $0C
ECE1: 15 1A    ora  $1A,x
ECE3: 63       ill  $63
ECE4: 00 09    brk  #$09
ECE6: 07       ill  $07
ECE7: 0B       ill  $0B
ECE8: 63       ill  $63
ECE9: 08       php  
ECEA: 0A       asl  a
ECEB: 0C       ill  $0C
ECEC: 02       ill  $02
ECED: 12       ill  $12
ECEE: 0D 14 08 ora  $0814
ECF1: 63       ill  $63
ECF2: 13       ill  $13
ECF3: 15 00    ora  $00,x
ECF5: 09 01    ora  #$01
ECF7: 02       ill  $02
ECF8: 03       ill  $03
ECF9: 04       ill  $04
ECFA: 05 06    ora  $06
ECFC: 09 07    ora  #$07
ECFE: 01 02    ora  ($02,x)
ED00: 03       ill  $03
ED01: 04       ill  $04
ED02: 05 06    ora  $06
ED04: 00 07    brk  #$07
ED06: 01 09    ora  ($09,x)
ED08: 03       ill  $03
ED09: 04       ill  $04
ED0A: 05 06    ora  $06
ED0C: 00 07    brk  #$07
ED0E: 09 02    ora  #$02
ED10: 03       ill  $03
ED11: 04       ill  $04
ED12: 05 06    ora  $06
ED14: 00 07    brk  #$07
ED16: 01 02    ora  ($02,x)
ED18: 03       ill  $03
ED19: 04       ill  $04
ED1A: 09 06    ora  #$06
ED1C: 00 07    brk  #$07
ED1E: 01 02    ora  ($02,x)
ED20: 03       ill  $03
ED21: 04       ill  $04
ED22: 05 09    ora  $09
ED24: 00 07    brk  #$07
ED26: 01 02    ora  ($02,x)
ED28: 09 04    ora  #$04
ED2A: 05 06    ora  $06
ED2C: 00 07    brk  #$07
ED2E: 01 02    ora  ($02,x)
ED30: 03       ill  $03
ED31: 09 05    ora  #$05
ED33: 06 


;table of electrode widths
ED34:
	.byte	07,07,07,05,03,06,07,0F

;table of electrode heigts	
ED3C:
	.byte	09,09,09,09,0A,0A,0A,07



ED44: 02       ill  $02
ED45: 03       ill  $03
ED46: 04       ill  $04
ED47: 0A       asl  a
ED48: 10 07    bpl  $ED51
ED4A: 06 01    asl  $01
ED4C: 09 05    ora  #$05
ED4E: 01 91    ora  ($91,x)
ED50: 01 91    ora  ($91,x)
ED52: 1A       ill  $1A
ED53: 1A       ill  $1A
ED54: AA       tax  
ED55: AA       tax  
ED56: 00 01    brk  #$01
ED58: 01 00    ora  ($00,x)
ED5A: 02       ill  $02
ED5B: FE 02 FE inc  $FE02,x
ED5E: 02       ill  $02
ED5F: 02       ill  $02
ED60: FE FE 

;Level data

ED62:
	.byte	00,00,02,04,02
ED67:
	.byte 	12,10,0E,0C,0E
ED6C:
	.byte	00,0A,14,1E,14
ED71:
	.byte	05,05,03,03,01


ED76: 20   
ED77: 20 20 20 jsr  $2020
ED7A: 1E 1E 1E asl  $1E1E,x
ED7D: 1C       ill  $1C
ED7E: 1C       ill  $1C
ED7F: 1C       ill  $1C
ED80: 1C       ill  $1C
ED81: 1A       ill  $1A
ED82: 1A       ill  $1A
ED83: 18       clc  
ED84: 18       clc  
ED85: 18       clc  
ED86: 16 16    asl  $16,x
ED88: 16 14    asl  $14,x
ED8A: 14       ill  $14
ED8B: 14       ill  $14
ED8C: 12       ill  $12
ED8D: 12       ill  $12
ED8E: 12       ill  $12
ED8F: 12       ill  $12
ED90: 12       ill  $12
ED91: 10 10    bpl  $EDA3
ED93: 10 0E    bpl  $EDA3
ED95: 0E 0E 0E asl  $0E0E
ED98: 0C       ill  $0C
ED99: 0C       ill  $0C
ED9A: 0C       ill  $0C
ED9B: 0C       ill  $0C
ED9C: 0C       ill  $0C
ED9D: 0A       asl  a
ED9E: 0A       asl  a
ED9F: 0A       asl  a
EDA0: 0A       asl  a
EDA1: 0A       asl  a
EDA2: 0A       asl  a
EDA3: 0A       asl  a
EDA4: 0A       asl  a
EDA5: 0A       asl  a
EDA6: 0A       asl  a
EDA7: 0A       asl  a
EDA8: 09 09    ora  #$09
EDAA: 09 09    ora  #$09
EDAC: 09 09    ora  #$09
EDAE: 09 09    ora  #$09
EDB0: 09 09    ora  #$09
EDB2: 09 09    ora  #$09
EDB4: 09 09    ora  #$09
EDB6: 09 09    ora  #$09
EDB8: 09 09    ora  #$09
EDBA: 09 09    ora  #$09
EDBC: 16 16    asl  $16,x
EDBE: 16 16    asl  $16,x
EDC0: 14       ill  $14
EDC1: 14       ill  $14
EDC2: 14       ill  $14
EDC3: 14       ill  $14
EDC4: 13       ill  $13
EDC5: 13       ill  $13
EDC6: 12       ill  $12
EDC7: 12       ill  $12
EDC8: 12       ill  $12
EDC9: 12       ill  $12
EDCA: 10 10    bpl  $EDDC
EDCC: 10 0E    bpl  $EDDC
EDCE: 0E 0C 0B asl  $0B0C
EDD1: 0B       ill  $0B
EDD2: 0B       ill  $0B
EDD3: 0B       ill  $0B
EDD4: 0A       asl  a
EDD5: 0A       asl  a
EDD6: 0A       asl  a
EDD7: 0A       asl  a
EDD8: 0A       asl  a
EDD9: 0A       asl  a
EDDA: 09 09    ora  #$09
EDDC: 09 09    ora  #$09
EDDE: 09 09    ora  #$09
EDE0: 09 09    ora  #$09
EDE2: 09 09    ora  #$09
EDE4: 08       php  
EDE5: 08       php  
EDE6: 08       php  
EDE7: 08       php  
EDE8: 08       php  
EDE9: 08       php  
EDEA: 08       php  
EDEB: 08       php  
EDEC: 08       php  
EDED: 08       php  
EDEE: 08       php  
EDEF: 08       php  
EDF0: 08       php  
EDF1: 08       php  
EDF2: 08       php  
EDF3: 08       php  
EDF4: 07       ill  $07
EDF5: 07       ill  $07
EDF6: 07       ill  $07
EDF7: 07       ill  $07
EDF8: 07       ill  $07
EDF9: 07       ill  $07
EDFA: 07       ill  $07
EDFB: 07       ill  $07
EDFC: 07       ill  $07
EDFD: 07       ill  $07
EDFE: 07       ill  $07
EDFF: 07       ill  $07
EE00: 07       ill  $07
EE01: 07       ill  $07
EE02: 00 00    brk  #$00
EE04: 00 00    brk  #$00
EE06: 00 00    brk  #$00
EE08: 00 00    brk  #$00
EE0A: 00 00    brk  #$00
EE0C: 00 00    brk  #$00
EE0E: 00 00    brk  #$00
EE10: 00 00    brk  #$00
EE12: 00 00    brk  #$00
EE14: 00 00    brk  #$00
EE16: 00 01    brk  #$01
EE18: 01 01    ora  ($01,x)
EE1A: 00 02    brk  #$02
EE1C: 03       ill  $03
EE1D: 02       ill  $02
EE1E: 02       ill  $02
EE1F: 00 02    brk  #$02
EE21: 04       ill  $04
EE22: 02       ill  $02
EE23: 04       ill  $04
EE24: 00 02    brk  #$02
EE26: 03       ill  $03
EE27: 03       ill  $03
EE28: 02       ill  $02
EE29: 02       ill  $02
EE2A: 02       ill  $02
EE2B: 04       ill  $04
EE2C: 03       ill  $03
EE2D: 04       ill  $04
EE2E: 01 03    ora  ($03,x)
EE30: 04       ill  $04
EE31: 03       ill  $03
EE32: 03       ill  $03
EE33: 01 03    ora  ($03,x)
EE35: 04       ill  $04
EE36: 03       ill  $03
EE37: 05 02    ora  $02
EE39: 03       ill  $03
EE3A: 04       ill  $04
EE3B: 03       ill  $03
EE3C: 03       ill  $03
EE3D: 02       ill  $02
EE3E: 04       ill  $04
EE3F: 04       ill  $04
EE40: 04       ill  $04
EE41: 07       ill  $07
EE42: 02       ill  $02
EE43: 04       ill  $04
EE44: 06 04    asl  $04
EE46: 05 02    ora  $02
EE48: 00 05    brk  #$05
EE4A: 05 05    ora  $05
EE4C: 05 05    ora  $05
EE4E: 05 05    ora  $05
EE50: 05 05    ora  $05
EE52: 00 04    brk  #$04
EE54: 04       ill  $04
EE55: 04       ill  $04
EE56: 04       ill  $04
EE57: 04       ill  $04
EE58: 04       ill  $04
EE59: 04       ill  $04
EE5A: 04       ill  $04
EE5B: 04       ill  $04
EE5C: 04       ill  $04
EE5D: 04       ill  $04
EE5E: 04       ill  $04
EE5F: 03       ill  $03
EE60: 03       ill  $03
EE61: 03       ill  $03
EE62: 03       ill  $03
EE63: 03       ill  $03
EE64: 03       ill  $03
EE65: 03       ill  $03
EE66: 03       ill  $03
EE67: 03       ill  $03
EE68: 03       ill  $03
EE69: 03       ill  $03
EE6A: 03       ill  $03
EE6B: 03       ill  $03
EE6C: 03       ill  $03
EE6D: 03       ill  $03
EE6E: 03       ill  $03
EE6F: 03       ill  $03
EE70: 03       ill  $03
EE71: 02       ill  $02
EE72: 03       ill  $03
EE73: 02       ill  $02
EE74: 03       ill  $03
EE75: 03       ill  $03
EE76: 02       ill  $02
EE77: 02       ill  $02
EE78: 02       ill  $02
EE79: 02       ill  $02
EE7A: 02       ill  $02
EE7B: 02       ill  $02
EE7C: 02       ill  $02
EE7D: 02       ill  $02
EE7E: 02       ill  $02
EE7F: 02       ill  $02
EE80: 02       ill  $02
EE81: 02       ill  $02
EE82: 02       ill  $02
EE83: 02       ill  $02
EE84: 02       ill  $02
EE85: 02       ill  $02
EE86: 02       ill  $02
EE87: 02       ill  $02
EE88: 02       ill  $02
EE89: 02       ill  $02
EE8A: 02       ill  $02
EE8B: 02       ill  $02
EE8C: 02       ill  $02
EE8D: 02       ill  $02
EE8E: 06 06    asl  $06
EE90: 06 06    asl  $06
EE92: 06 06    asl  $06
EE94: 06 06    asl  $06
EE96: 06 06    asl  $06
EE98: 06 06    asl  $06
EE9A: 06 06    asl  $06
EE9C: 06 05    asl  $05
EE9E: 05 05    ora  $05
EEA0: 05 05    ora  $05
EEA2: 04       ill  $04
EEA3: 04       ill  $04
EEA4: 04       ill  $04
EEA5: 04       ill  $04
EEA6: 04       ill  $04
EEA7: 04       ill  $04
EEA8: 04       ill  $04
EEA9: 04       ill  $04
EEAA: 04       ill  $04
EEAB: 04       ill  $04
EEAC: 04       ill  $04
EEAD: 04       ill  $04
EEAE: 04       ill  $04
EEAF: 04       ill  $04
EEB0: 04       ill  $04
EEB1: 04       ill  $04
EEB2: 04       ill  $04
EEB3: 04       ill  $04
EEB4: 04       ill  $04
EEB5: 04       ill  $04
EEB6: 03       ill  $03
EEB7: 03       ill  $03
EEB8: 03       ill  $03
EEB9: 03       ill  $03
EEBA: 03       ill  $03
EEBB: 03       ill  $03
EEBC: 03       ill  $03
EEBD: 03       ill  $03
EEBE: 03       ill  $03
EEBF: 03       ill  $03
EEC0: 03       ill  $03
EEC1: 03       ill  $03
EEC2: 03       ill  $03
EEC3: 03       ill  $03
EEC4: 03       ill  $03
EEC5: 03       ill  $03
EEC6: 03       ill  $03
EEC7: 03       ill  $03
EEC8: 03       ill  $03
EEC9: 03       ill  $03
EECA: 03       ill  $03
EECB: 03       ill  $03
EECC: 03       ill  $03
EECD: 03       ill  $03
EECE: 03       ill  $03
EECF: 03       ill  $03
EED0: 03       ill  $03
EED1: 03       ill  $03
EED2: 03       ill  $03
EED3: 03       ill  $03
EED4: 00 00    brk  #$00
EED6: 00 00    brk  #$00
EED8: 0F       ill  $0F
EED9: 00 00    brk  #$00
EEDB: 00 00    brk  #$00
EEDD: 0E 00 00 asl  $0000
EEE0: 00 00    brk  #$00
EEE2: 0D 00 00 ora  $0000
EEE5: 00 00    brk  #$00
EEE7: 0C       ill  $0C
EEE8: 00 00    brk  #$00
EEEA: 00 00    brk  #$00
EEEC: 0A       asl  a
EEED: 00 00    brk  #$00
EEEF: 00 00    brk  #$00
EEF1: 09 00    ora  #$00
EEF3: 00 00    brk  #$00
EEF5: 00 08    brk  #$08
EEF7: 00 00    brk  #$00
EEF9: 00 00    brk  #$00
EEFB: 08       php  
EEFC: 00 00    brk  #$00
EEFE: 00 00    brk  #$00
EF00: 07       ill  $07
EF01: 00 00    brk  #$00
EF03: 00 00    brk  #$00
EF05: 07       ill  $07
EF06: 00 00    brk  #$00
EF08: 00 00    brk  #$00
EF0A: 06 00    asl  $00
EF0C: 00 00    brk  #$00
EF0E: 00 06    brk  #$06
EF10: 00 00    brk  #$00
EF12: 00 00    brk  #$00
EF14: 06 00    asl  $00
EF16: 00 00    brk  #$00
EF18: 00 06    brk  #$06

;Number of each item on each level

EF1A:
;Level 1: 15 Grunts, 1 Mommy, 1 Daddy, 5 Electrodes
	.byte 	0F,01,01,00,00,00,00,00,00,00,00,00,00,00,00,05
	
EF2A:
;Level 2: 17 Grunts, 1 Mommy, 1 Daddy, 1 Mikie, 5 Hulks, 1 Spheroid, 8 Enforcers, 1 ??, 13 Electrodes 

	.byte   11,01,01,01,05,01,00,08,00,00,00,00,00,00,01,0D
	
EF3A:
;Level 3: 22 Grunts, 2 Mommy, 2 Daddy, 2 Mikie, 6 Hulks, 3 Spheroids, 8 Enforcers, 3 ??, 12 Electrodes
	.byte	16,02,02,02,06,03,00,08,00,00,00,00,00,00,03,12
	

EF4a:
;Level 4: 34 Grunts, 2 Mommt, 2 Daddy, 2 Mikie, 7 Hulks, 4 Spheroids, 8 Enforcers, 5 ??, 20 Electrodes
	.byte	22,02,02,02,07,04,00,08,00,00,00,00,00,00,05,14
	
EF5a:
;Level 5: 20 Grunts, 14 Mommy, 1 Mikie, 1 Spheroid, 8 Enforcers, 15 Brains, 4 ??, 15 Electrodes
	.byte 	14,0E,00,01,00,01,00,08,00,0F,00,00,00,00,04,0F

EF6A: 
;Level 6: 30 Grunts, 3 Mommy, 3 Daddy, 3 Mikie, 7 Hulks, 4 Spheroids, 8 Enforcers, 2 ??, 20 Electrodes
	.byte 	1E,03,03,03,07,04,00,08,00,00,00,00,00,00,02,14
	
EF7A:
;Level 7: 4 Mommy, 4 Daddy, 4 Mikie, 11 Hulks, 11 Quarks
	.byte	00,04,04,04,0B,00,0B,00,00,00,00,00,00,00,00,00
	
EF8A:
;Level 8: 
	.byte	23,03,02,03,08,05,00,08,00,00,00,00,00,00,06,0C


EF9A: 30 03    bmi  $EF9F
EF9C: 03       ill  $03
EF9D: 03       ill  $03
EF9E: 04       ill  $04
EF9F: 05 00    ora  $00
EFA1: 08       php  
EFA2: 00 00    brk  #$00
EFA4: 00 00    brk  #$00
EFA6: 00 00    brk  #$00
EFA8: 00 00    brk  #$00

EFAA: 18       clc  
EFAB: 00 14    brk  #$14
EFAD: 00 00    brk  #$00
EFAF: 01 00    ora  ($00,x)
EFB1: 08       php  
EFB2: 00 10    brk  #$10
EFB4: 00 00    brk  #$00
EFB6: 00 00    brk  #$00
EFB8: 07       ill  $07
EFB9: 05 23    ora  $23
EFBB: 03       ill  $03
EFBC: 03       ill  $03
EFBD: 03       ill  $03
EFBE: 08       php  
EFBF: 05 00    ora  $00
EFC1: 08       php  
EFC2: 00 00    brk  #$00
EFC4: 00 00    brk  #$00
EFC6: 00 00    brk  #$00
EFC8: 01 08    ora  ($08,x)
EFCA: 00 03    brk  #$03
EFCC: 03       ill  $03
EFCD: 03       ill  $03
EFCE: 0D 00 0D ora  $0D00
EFD1: 00 00    brk  #$00
EFD3: 00 00    brk  #$00
EFD5: 00 00    brk  #$00
EFD7: 00 00    brk  #$00
EFD9: 00 23    brk  #$23
EFDB: 03       ill  $03
EFDC: 03       ill  $03
EFDD: 03       ill  $03
EFDE: 08       php  
EFDF: 05 00    ora  $00
EFE1: 08       php  
EFE2: 00 00    brk  #$00
EFE4: 00 00    brk  #$00
EFE6: 00 00    brk  #$00
EFE8: 00 08    brk  #$08
EFEA: 1A       ill  $1A
EFEB: 05 05    ora  $05
EFED: 05 12    ora  $12
EFEF: 02       ill  $02
EFF0: 00 08    brk  #$08
EFF2: 00 00    brk  #$00
EFF4: 00 00    brk  #$00
EFF6: 00 00    brk  #$00
EFF8: 01 0A    ora  ($0A,x)
EFFA: 1B       ill  $1B
EFFB: 00 00    brk  #$00
EFFD: 16 00    asl  $00,x
EFFF: 01 00    ora  ($00,x)
F001: 08       php  
F002: 00 15    brk  #$15
F004: 00 00    brk  #$00
F006: 00 00    brk  #$00
F008: 07       ill  $07
F009: 05 22    ora  $22
F00B: 03       ill  $03
F00C: 03       ill  $03
F00D: 03       ill  $03
F00E: 04       ill  $04
F00F: 05 00    ora  $00
F011: 08       php  
F012: 00 00    brk  #$00
F014: 00 00    brk  #$00
F016: 00 00    brk  #$00
F018: 02       ill  $02
F019: 0A       asl  a
F01A: 00 03    brk  #$03
F01C: 03       ill  $03
F01D: 03       ill  $03
F01E: 0B       ill  $0B
F01F: 00 11    brk  #$11
F021: 00 00    brk  #$00
F023: 00 00    brk  #$00
F025: 00 00    brk  #$00
F027: 00 00    brk  #$00
F029: 00 21    brk  #$21
F02B: 03       ill  $03
F02C: 03       ill  $03
F02D: 03       ill  $03
F02E: 08       php  
F02F: 05 00    ora  $00
F031: 08       php  
F032: 00 00    brk  #$00
F034: 00 00    brk  #$00
F036: 00 00    brk  #$00
F038: 03       ill  $03
F039: 0F       ill  $0F
F03A: 42       ill  $42
F03B: 03       ill  $03
F03C: 03       ill  $03
F03D: 03       ill  $03
F03E: 03       ill  $03
F03F: 04       ill  $04
F040: 00 08    brk  #$08
F042: 00 00    brk  #$00
F044: 00 00    brk  #$00
F046: 00 00    brk  #$00
F048: 00 00    brk  #$00
F04A: 00 08    brk  #$08
F04C: 08       php  
F04D: 07       ill  $07
F04E: 02       ill  $02
F04F: 02       ill  $02
F050: 00 08    brk  #$08
F052: 00 11    brk  #$11
F054: 00 00    brk  #$00
F056: 00 00    brk  #$00
F058: 07       ill  $07
F059: 0A       asl  a
F05A: 23       ill  $23
F05B: 03       ill  $03
F05C: 03       ill  $03
F05D: 03       ill  $03
F05E: 08       php  
F05F: 05 00    ora  $00
F061: 08       php  
F062: 00 00    brk  #$00
F064: 00 00    brk  #$00
F066: 00 00    brk  #$00
F068: 00 14    brk  #$14
F06A: 00 03    brk  #$03
F06C: 03       ill  $03
F06D: 03       ill  $03
F06E: 0D 00 0C ora  $0C00
F071: 00 00    brk  #$00
F073: 00 00    brk  #$00
F075: 00 00    brk  #$00
F077: 00 00    brk  #$00
F079: 00 23    brk  #$23
F07B: 03       ill  $03
F07C: 03       ill  $03
F07D: 03       ill  $03
F07E: 08       php  
F07F: 05 00    ora  $00
F081: 08       php  
F082: 00 00    brk  #$00
F084: 00 00    brk  #$00
F086: 00 00    brk  #$00
F088: 03       ill  $03
F089: 14       ill  $14
F08A: 00 03    brk  #$03
F08C: 03       ill  $03
F08D: 03       ill  $03
F08E: 0D 06 07 ora  $0706
F091: 08       php  
F092: 00 00    brk  #$00
F094: 00 00    brk  #$00
F096: 00 00    brk  #$00
F098: 00 00    brk  #$00
F09A: 00 16    brk  #$16
F09C: 00 01    brk  #$01
F09E: 01 01    ora  ($01,x)
F0A0: 00 08    brk  #$08
F0A2: 00 14    brk  #$14
F0A4: 00 00    brk  #$00
F0A6: 00 00    brk  #$00
F0A8: 04       ill  $04
F0A9: 14       ill  $14
F0AA: 1E 03 03 asl  $0303,x
F0AD: 03       ill  $03
F0AE: 08       php  
F0AF: 05 00    ora  $00
F0B1: 08       php  
F0B2: 00 00    brk  #$00
F0B4: 00 00    brk  #$00
F0B6: 00 00    brk  #$00
F0B8: 02       ill  $02
F0B9: 14       ill  $14
F0BA: 00 03    brk  #$03
F0BC: 03       ill  $03
F0BD: 03       ill  $03
F0BE: 0D 00 0C ora  $0C00
F0C1: 00 00    brk  #$00
F0C3: 00 00    brk  #$00
F0C5: 00 00    brk  #$00
F0C7: 00 00    brk  #$00
F0C9: 00 23    brk  #$23
F0CB: 03       ill  $03
F0CC: 03       ill  $03
F0CD: 03       ill  $03
F0CE: 08       php  
F0CF: 05 01    ora  $01
F0D1: 08       php  
F0D2: 00 00    brk  #$00
F0D4: 00 00    brk  #$00
F0D6: 00 00    brk  #$00
F0D8: 06 14    asl  $14
F0DA: 3F       ill  $3F
F0DB: 03       ill  $03
F0DC: 03       ill  $03
F0DD: 03       ill  $03
F0DE: 04       ill  $04
F0DF: 05 01    ora  $01
F0E1: 08       php  
F0E2: 00 00    brk  #$00
F0E4: 00 00    brk  #$00
F0E6: 00 00    brk  #$00
F0E8: 00 00    brk  #$00
F0EA: 00 00    brk  #$00
F0EC: 17       ill  $17
F0ED: 00 01    brk  #$01
F0EF: 01 01    ora  ($01,x)
F0F1: 08       php  
F0F2: 00 14    brk  #$14
F0F4: 00 00    brk  #$00
F0F6: 00 00    brk  #$00
F0F8: 07       ill  $07
F0F9: 0A       asl  a
F0FA: 23       ill  $23
F0FB: 03       ill  $03
F0FC: 03       ill  $03
F0FD: 03       ill  $03
F0FE: 08       php  
F0FF: 05 01    ora  $01
F101: 08       php  
F102: 00 00    brk  #$00
F104: 00 00    brk  #$00
F106: 00 00    brk  #$00
F108: 00 14    brk  #$14
F10A: 00 03    brk  #$03
F10C: 03       ill  $03
F10D: 03       ill  $03
F10E: 0C       ill  $0C
F10F: 00 0D    brk  #$0D
F111: 00 00    brk  #$00
F113: 00 00    brk  #$00
F115: 00 00    brk  #$00
F117: 00 00    brk  #$00
F119: 00 23    brk  #$23
F11B: 03       ill  $03
F11C: 03       ill  $03
F11D: 03       ill  $03
F11E: 08       php  
F11F: 05 01    ora  $01
F121: 08       php  
F122: 00 00    brk  #$00
F124: 00 00    brk  #$00
F126: 00 00    brk  #$00
F128: 03       ill  $03
F129: 14       ill  $14
F12A: 1E 03 03 asl  $0303,x
F12D: 03       ill  $03
F12E: 14       ill  $14
F12F: 02       ill  $02
F130: 02       ill  $02
F131: 08       php  
F132: 00 00    brk  #$00
F134: 00 00    brk  #$00
F136: 00 00    brk  #$00
F138: 00 00    brk  #$00
F13A: 00 00    brk  #$00
F13C: 00 17    brk  #$17
F13E: 02       ill  $02
F13F: 01 02    ora  ($02,x)
F141: 08       php  
F142: 00 17    brk  #$17
F144: 00 00    brk  #$00
F146: 00 00    brk  #$00
F148: 04       ill  $04
F149: 0F       ill  $0F
F14A: 23       ill  $23
F14B: 03       ill  $03
F14C: 03       ill  $03
F14D: 03       ill  $03
F14E: 08       php  
F14F: 05 02    ora  $02
F151: 08       php  
F152: 00 00    brk  #$00
F154: 00 00    brk  #$00
F156: 00 00    brk  #$00
F158: 02       ill  $02
F159: 14       ill  $14
F15A: 00 03    brk  #$03
F15C: 03       ill  $03
F15D: 03       ill  $03
F15E: 0C       ill  $0C
F15F: 00 0E    brk  #$0E
F161: 00 00    brk  #$00
F163: 00 00    brk  #$00
F165: 00 00    brk  #$00
F167: 00 00    brk  #$00
F169: 00 23    brk  #$23
F16B: 03       ill  $03
F16C: 03       ill  $03
F16D: 03       ill  $03
F16E: 08       php  
F16F: 05 02    ora  $02
F171: 08       php  
F172: 00 00    brk  #$00
F174: 00 00    brk  #$00
F176: 00 00    brk  #$00
F178: 06 14    asl  $14
F17A: 3D 03 03 and  $0303,x
F17D: 03       ill  $03
F17E: 06 05    asl  $05
F180: 01 08    ora  ($08,x)
F182: 00 00    brk  #$00
F184: 00 00    brk  #$00
F186: 00 00    brk  #$00
F188: 00 00    brk  #$00
F18A: 00 09    brk  #$09
F18C: 09 09    ora  #$09
F18E: 02       ill  $02
F18F: 01 01    ora  ($01,x)
F191: 08       php  
F192: 00 17    brk  #$17
F194: 00 00    brk  #$00
F196: 00 00    brk  #$00
F198: 07       ill  $07
F199: 0A       asl  a

;Score table

F19A
	.word 	0000
	.word	0100
	.word	0000
	.word	0000
	.word	0000
	.word	0000
	.word	1000
	.word	1000
	.word	0150
	.word	0200
	.word	0500
	.word	0100
	.word	0025
	.word 	0025
	.word	0025
	.word	0000
	.word	0000
	

;Pointers to Display Lists

F1BC:
	.byte 00,80,00,80,00,80,00,80,00,80,00,80
	
F1C8:
	.byte 22,22,23,23,24,24,25,25,26,26,27,27

;DL stuff

F1D4:
	.byte 00,10,20,30,40,50,60,70,80,90,A0,B0


F1E0:
	.byte 	4f,6f,8f,af,cf,ef,0f,2f,4f,6f,8f,af

F1EC:
	.byte	19,19,19,19,19,19,1a,1a,1a,1a,1a,1a
	

;Display List entries

;$2253 Score Line
F1F8:
	.byte 	00,60,21,F9,0C	;Data=$2100,Indirect,Pal:7,Width:8,HPOS:12
	.byte   0E,60,21,B9,30	;Data=$210E,Indirect,Pal:5,Width:8,HPOS:48
	.byte   07,60,21,F9,58	;Data=$2107,Indirect,Pal:7,Width:8,HPOS:88
	.byte	15,60,21,B9,78	;Data=$2115,Indirect,Pal:5,Width:8,HPOS:120
	.byte	00,00		;End

;$226C Level line	
F20E:
	.byte 	1C,60,21,FE,3C	;Data=$211C,Indirect,Pal:7,Width:3,HPOS:60
	.byte	1E,60,21,FC,48	;Data=$211E,Indirect,Pal:7,Width:5,HPOS:72
	.byte   23,60,21,FE,5D	;Data=$2123,Indirect,Pal:7,Width:3,HPOS:93
	.byte	00,00		;End



;Top 4 DLL entries

F21F:
	.byte	0F,18,00	;16 lines of $1800
	.byte   07,18,00	;8 lines of $1800
	.byte   07,22,53	;8 lines of $2253
	.byte   07,22,6C	;8 lines of $226C

;Bottom 3 DLL entries

F22B:
	.byte 	8F,18,00	;16 Lines of $1800 with DLI
	.byte	07,18,00	;8 Lines of $1800
	.byte	82,18,00	;3 Lines of $1800 with DLI


F234:	
	.byte	00,AF,80	
	.byte	08,11,AD	
	


F23A: 80       ill  $80
F23B: 4C 00 00 jmp  $0000
F23E: 24 AF    bit  $AF
F240: 80       ill  $80
F241: 08       php  
F242: 35 AD    and  $AD,x
F244: 80       ill  $80
F245: 4C 00 00 jmp  $0000
F248: 48       pha  
F249: CE 80 2D dec  $2D80


F24C:
	.byte 00,00,5A,CE,80,2D,00,00,6C,DD,80,48,00,00,CF,18
	

F25C: 00 4F    brk  #$4F
F25E: 22       ill  $22
F25F: 6C 4F 22 jmp  ($224F)
F262: 76 4F    ror  $4F,x
F264: 18       clc  
F265: 00 4F    brk  #$4F
F267: 22       ill  $22
F268: 80       ill  $80
F269: 4F       ill  $4F
F26A: 22       ill  $22
F26B: 86 4F    stx  $4F
F26D: 22       ill  $22
F26E: 8C 47 18 sty  $1847
F271: 00 86    brk  #$86
F273: 8D 9C A6 sta  $A69C
F276: AE D9 D1 ldx  $D1D9
F279: D6 D8    dec  $D8,x
F27B: D5 41    cmp  $41,x
F27D: 33       ill  $33
F27E: 3B       ill  $3B
F27F: 40       rti  
F280: 3A       ill  $3A
F281: 20 84 00 jsr  $0084
F284: 01 00    ora  ($00,x)
F286: 00 00    brk  #$00
F288: 00 00    brk  #$00
F28A: 1C       ill  $1C
F28B: 04       ill  $04
F28C: 18       clc  
F28D: 19 D6 04 ora  $04D6,y


;Pointer table

F290:

	.byte 	56,00,AA,54,FE,A8,52,FC,A6,50,AC,02,58,AE,04,5A,B0,06,5C,B2,00
	
F2A5:
	.byte	1C,1C,1B,1B,1A,1A,1A,19,19,19,1C,1D,1D,1D,1E,1E,1E,1F,1F,1F,18
	

;Pointers into address table at $F290

F2BA:
	.byte	14,09,08,07,06,05,04,03,02,01,00,0A,0B,0C,0D,0E,0F,10,11,12,13,14



F2D0: D4       ill  $D4
F2D1: E4 F2    cpx  $F2
F2D3: F2       ill  $F2
F2D4: 88       dey  
F2D5: D6 88    dec  $88,x
F2D7: D8       cld  
F2D8: 88       dey  
F2D9: DA       ill  $DA
F2DA: 88       dey  
F2DB: DC       ill  $DC
F2DC: 80       ill  $80
F2DD: D8       cld  
F2DE: 80       ill  $80
F2DF: D6 80    dec  $80,x
F2E1: DA       ill  $DA
F2E2: 80       ill  $80
F2E3: DC       ill  $DC
F2E4: 80       ill  $80
F2E5: DE 80 DE dec  $DE80,x
F2E8: 80       ill  $80
F2E9: DE 80 DE dec  $DE80,x
F2EC: 80       ill  $80
F2ED: DE 80 DE dec  $DE80,x
F2F0: 80       ill  $80
F2F1: DE 80 DE dec  $DE80,x
F2F4: 50 58    bvc  $F34E
F2F6: 60       rts  
F2F7: 68       pla  
F2F8: 70 78    bvs  $F372
F2FA: 80       ill  $80
F2FB: 88       dey  
F2FC: 90 98    bcc  $F296
F2FE: 48       pha  
F2FF: 40       rti  
F300: 38       sec  
F301: 30 28    bmi  $F32B
F303: 20 18 10 jsr  $1018
F306: 08       php  
F307: 00 00    brk  #$00
F309: 02       ill  $02
F30A: 04       ill  $04
F30B: 06 08    asl  $08
F30D: 0A       asl  a
F30E: 0C       ill  $0C
F30F: 0E 10 12 asl  $1210
F312: 14       ill  $14
F313: 00 08    brk  #$08
F315: 10 18    bpl  $F32F
F317: 20 28 30 jsr  $3028
F31A: 38       sec  
F31B: 40       rti  
F31C: 48       pha  

START:

F31D: 78       sei  		;
F31E: D8       cld  		;
F31F: A9 17    lda  #$17	;
F321: 85 01    sta  $01		;Lock into 7800 mode
F323: A9 7F    lda  #$7F	;			
F325: 85 3C    sta  $3C		;Turn off DMA
F327: A2 FF    ldx  #$FF	;Set stack pointer
F329: 9A       txs  		;

F32A: A9 18    lda  #$18	;Set pointer to start of RAM
F32C: 85 B8    sta  $B8		;
F32E: A9 00    lda  #$00	;
F330: 85 B7    sta  $B7		;
F332: A9 00    lda  #$00	;
F334: A2 08    ldx  #$08	;Clear 8 pages
F336: A0 00    ldy  #$00	;
F338: 91 B7    sta  ($B7),y	;Clear RAM
F33A: 88       dey  		;
F33B: D0 FB    bne  $F338	;End of page?
F33D: E6 B8    inc  $B8		;Next page
F33F: CA       dex  		;Count pages
F340: D0 F6    bne  $F338	;Last page?

F342: A9 00    lda  #$00	;Clear Zero page	
F344: A2 C0    ldx  #$C0	;
F346: 95 3F    sta  $3F,x	;	
F348: CA       dex  		;
F349: D0 FB    bne  $F346	;

F34B: A9 00    lda  #$00	;Clear $2000-$203F
F34D: A2 40    ldx  #$40	;	
F34F: 9D FF 1F sta  $1FFF,x	;
F352: CA       dex  		;
F353: D0 FA    bne  $F34F	;

F355: A9 00    lda  #$00	;Clear $3000-$303F	
F357: A2 40    ldx  #$40	;
F359: 9D FF 20 sta  $20FF,x	;
F35C: CA       dex  		;
F35D: D0 FA    bne  $F359	;

;Clear $2200 - $27FF

F35F: A9 22    lda  #$22	;Set pointer to $2200
F361: 85 B8    sta  $B8		;
F363: A9 00    lda  #$00	;
F365: 85 B7    sta  $B7		;
F367: A9 00    lda  #$00	;
F369: A2 06    ldx  #$06	;Clear 6 pages
F36B: A0 00    ldy  #$00	;
F36D: 91 B7    sta  ($B7),y	;Clear RAM
F36F: 88       dey  		;
F370: D0 FB    bne  $F36D	;End of page?
F372: E6 B8    inc  $B8		;Next page
F374: CA       dex  		;
F375: D0 F6    bne  $F36D	;Last page?

;Setup zero page variable

F377: A9 00    lda  #$00	;
F379: 85 6C    sta  NUMPLAYERS	;Set number of players to 1
F37B: 85 69    sta  $69		
F37D: 85 74    sta  $74		
F37F: 85 01    sta  $01		
F381: A9 01    lda  #$01	;
F383: 85 64    sta  SKILL		;Set skill level to 1
F385: A9 01    lda  #$01
F387: 85 67    sta  $67

;

F389: 20 BA D6 jsr  $D6BA

F38C: 20 86 DC jsr  $DC86	;Setup DLL and DLs

F38F: 20 9A DD jsr  $DD9A
F392: 20 86 DC jsr  $DC86
F395: A2 FF    ldx  #$FF
F397: 9A       txs  
F398: A9 01    lda  #$01
F39A: 85 67    sta  $67
F39C: A9 00    lda  #$00
F39E: 85 E3    sta  $E3
F3A0: A9 36    lda  #$36
F3A2: 85 68    sta  $68
F3A4: 20 56 E3 jsr  $E356
F3A7: 20 30 D5 jsr  $D530
F3AA: 20 86 DC jsr  $DC86
F3AD: 20 91 D6 jsr  $D691
F3B0: A9 0F    lda  #$0F
F3B2: 85 63    sta  $63
F3B4: C6 63    dec  $63
F3B6: 10 1D    bpl  $F3D5
F3B8: A2 30    ldx  #$30
F3BA: A9 18    lda  #$18
F3BC: 9D 05 18 sta  $1805,x
F3BF: A9 00    lda  #$00
F3C1: 9D 06 18 sta  $1806,x
F3C4: CA       dex  
F3C5: CA       dex  
F3C6: CA       dex  
F3C7: 10 F1    bpl  $F3BA
F3C9: A9 00    lda  #$00
F3CB: 85 A6    sta  $A6
F3CD: 20 19 F5 jsr  $F519
F3D0: F0 FB    beq  $F3CD
F3D2: 4C 95 F3 jmp  $F395
F3D5: 20 52 F5 jsr  $F552
F3D8: 20 BE F5 jsr  $F5BE
F3DB: 20 08 F6 jsr  $F608
F3DE: A9 1F    lda  #$1F
F3E0: 85 A1    sta  $A1
F3E2: A9 00    lda  #$00
F3E4: 85 A2    sta  $A2
F3E6: A9 02    lda  #$02
F3E8: 85 A3    sta  $A3
F3EA: 20 BB F6 jsr  $F6BB
F3ED: 20 19 F5 jsr  $F519
F3F0: D0 03    bne  $F3F5
F3F2: 4C 7E F4 jmp  $F47E
F3F5: A5 A1    lda  $A1
F3F7: F0 03    beq  $F3FC
F3F9: 4C 7E F4 jmp  $F47E
F3FC: A9 00    lda  #$00
F3FE: 85 A2    sta  $A2
F400: A9 04    lda  #$04
F402: 85 A3    sta  $A3
F404: A9 0F    lda  #$0F
F406: 85 A1    sta  $A1
F408: A5 0C    lda  $0C
F40A: 10 15    bpl  $F421
F40C: A5 0D    lda  $0D
F40E: 10 11    bpl  $F421
F410: AD 82 02 lda  $0282	;Read console switches
F413: 29 01    and  #$01	;mask off reset
F415: D0 11    bne  $F428	;Branch if no reset
F417: 20 38 F5 jsr  $F538
F41A: AD 82 02 lda  $0282	;Read console switched
F41D: 29 01    and  #$01	;mask off reset
F41F: F0 F6    beq  $F417	;Wait for it to be released
F421: A9 01    lda  #$01	
F423: 85 74    sta  $74
F425: 4C 03 90 jmp  $9003

F428: AD 82 02 lda  $0282	;Read console switches
F42B: 29 02    and  #$02	;mask off sel switch
F42D: D0 12    bne  $F441	;Branch if not pushed
F42F: E6 64    inc  SKILL		;next skill level
F431: A5 64    lda  SKILL		;read it 
F433: C9 05    cmp  #$05	;> 5
F435: 30 0A    bmi  $F441	;branch if not
F437: A9 00    lda  #$00	;cycle to first skill level
F439: 85 64    sta  SKILL		;store it
F43B: A5 6C    lda  NUMPLAYERS		;read number of players
F43D: 49 01    eor  #$01	;invert it
F43F: 85 6C    sta  NUMPLAYERS		;store it

F441: AD 80 02 lda  $0280	;Read Joystick
F444: 6A       ror  a		;move left stick to bottom 4 bits
F445: 6A       ror  a		;
F446: 6A       ror  a		;
F447: 6A       ror  a		;
F448: 29 0F    and  #$0F	;Mask it off
F44A: AA       tax  		;
F44B: BD 4D EC lda  $EC4D,x	;Read from stick table
F44E: F0 0D    beq  $F45D	;branch if not pushed up or down
F450: A9 00    lda  #$00	;
F452: 85 6C    sta  NUMPLAYERS		;set number of players to 1
F454: BD 4D EC lda  $EC4D,x	;read stick table
F457: 10 04    bpl  $F45D	;Stick Pushed up?
F459: A9 01    lda  #$01	;set number of players to 2
F45B: 85 6C    sta  NUMPLAYERS		;

F45D: A5 64    lda  SKILL		;Read skill level
F45F: 18       clc  		;
F460: 7D 3D EC adc  $EC3D,x	;change skill lebel
F463: 85 64    sta  SKILL		;
F465: A5 64    lda  SKILL		;
F467: 10 02    bpl  $F46B	;
F469: E6 64    inc  SKILL		;
F46B: C9 05    cmp  #$05	;
F46D: 30 02    bmi  $F471	;
F46F: C6 64    dec  SKILL		;
F471: 20 BE F5 jsr  $F5BE
F474: 20 20 D4 jsr  $D420
F477: 20 BA D6 jsr  $D6BA
F47A: A9 00    lda  #$00
F47C: 85 74    sta  $74
F47E: C6 A1    dec  $A1
F480: 10 04    bpl  $F486
F482: A9 00    lda  #$00
F484: 85 A1    sta  $A1
F486: A5 A2    lda  $A2
F488: D0 04    bne  $F48E
F48A: C6 A3    dec  $A3
F48C: 30 08    bmi  $F496
F48E: C6 A2    dec  $A2
F490: 20 38 F5 jsr  $F538
F493: 4C EA F3 jmp  $F3EA
F496: AD 00 39 lda  $3900
F499: C9 C6    cmp  #$C6
F49B: D0 07    bne  $F4A4
F49D: AD 04 39 lda  $3904
F4A0: C9 FE    cmp  #$FE
F4A2: F0 03    beq  $F4A7
F4A4: 4C 03 F5 jmp  $F503
F4A7: A9 01    lda  #$01
F4A9: 85 69    sta  $69
F4AB: A5 64    lda  SKILL
F4AD: 85 A5    sta  $A5
F4AF: A9 00    lda  #$00
F4B1: 85 64    sta  SKILL
F4B3: 20 41 F6 jsr  $F641
F4B6: A5 64    lda  SKILL
F4B8: 0A       asl  a
F4B9: 0A       asl  a
F4BA: 8D 02 1A sta  $1A02
F4BD: A0 1A    ldy  #$1A
F4BF: A9 00    lda  #$00
F4C1: 8D 0E 1A sta  $1A0E
F4C4: 20 F7 3F jsr  $3FF7
F4C7: 30 25    bmi  $F4EE
F4C9: A9 7F    lda  #$7F	;Turn off DMA
F4CB: 85 3C    sta  $3C		;
F4CD: 20 AE F6 jsr  $F6AE
F4D0: 20 41 F6 jsr  $F641
F4D3: A5 64    lda  SKILL
F4D5: 0A       asl  a
F4D6: 0A       asl  a
F4D7: 8D 02 1A sta  $1A02
F4DA: A0 1A    ldy  #$1A
F4DC: 20 FA 3F jsr  $3FFA
F4DF: A5 0C    lda  $0C
F4E1: 10 08    bpl  $F4EB
F4E3: A5 0D    lda  $0D
F4E5: 30 07    bmi  $F4EE
F4E7: A5 A5    lda  $A5
F4E9: 85 64    sta  SKILL
F4EB: 4C 03 90 jmp  $9003
F4EE: E6 64    inc  SKILL
F4F0: A5 64    lda  SKILL
F4F2: C9 05    cmp  #$05
F4F4: 90 BD    bcc  $F4B3
F4F6: 20 45 F5 jsr  $F545
F4F9: A9 00    lda  #$00
F4FB: 85 A6    sta  $A6
F4FD: 85 69    sta  $69
F4FF: A5 A5    lda  $A5
F501: 85 64    sta  SKILL
F503: A9 01    lda  #$01
F505: 85 E3    sta  $E3
F507: 85 6A    sta  $6A
F509: 85 6B    sta  $6B
F50B: A9 00    lda  #$00
F50D: 85 62    sta  CURPLAYERS
F50F: 4C 07 90 jmp  $9007
F512: A9 00    lda  #$00
F514: 85 E3    sta  $E3
F516: 4C 95 F3 jmp  $F395
F519: AD 82 02 lda  $0282
F51C: 49 FF    eor  #$FF
F51E: 29 03    and  #$03
F520: D0 15    bne  $F537
F522: AD 80 02 lda  $0280
F525: 49 FF    eor  #$FF
F527: D0 0E    bne  $F537
F529: A5 0C    lda  $0C
F52B: 49 FF    eor  #$FF
F52D: 29 80    and  #$80
F52F: D0 06    bne  $F537
F531: A5 0D    lda  $0D
F533: 49 FF    eor  #$FF
F535: 29 80    and  #$80
F537: 60       rts  
F538: 85 24    sta  $24
F53A: A5 28    lda  $28
F53C: 10 FA    bpl  $F538
F53E: 85 24    sta  $24
F540: A5 28    lda  $28
F542: 30 FA    bmi  $F53E
F544: 60       rts  

;Wait for start of next VBLANK

F545: 85 24    sta  $24		;Wait for Sync
F547: A5 28    lda  $28		;
F549: 30 FA    bmi  $F545	;Wait for end of VBLANK
F54B: 85 24    sta  $24		;Wait for Sync
F54D: A5 28    lda  $28		;
F54F: 10 FA    bpl  $F54B	;Wait for start of VBLANK
F551: 60       rts  		;

F552: 20 5A DD jsr  $DD5A
F555: A0 00    ldy  #$00
F557: B9 5A F2 lda  $F25A,y
F55A: 99 0D 18 sta  $180D,y
F55D: C8       iny  
F55E: C0 18    cpy  #$18
F560: D0 F5    bne  $F557
F562: A0 00    ldy  #$00
F564: B9 34 F2 lda  $F234,y
F567: 99 6C 22 sta  $226C,y
F56A: C8       iny  
F56B: C0 29    cpy  #$29
F56D: D0 F5    bne  $F564
F56F: 60       rts  
F570: A9 6F    lda  #$6F
F572: 8D 80 24 sta  $2480
F575: A9 D4    lda  #$D4
F577: 8D 81 24 sta  $2481
F57A: A9 80    lda  #$80
F57C: 8D 82 24 sta  $2482
F57F: A9 3A    lda  #$3A
F581: 8D 83 24 sta  $2483
F584: A9 00    lda  #$00
F586: 8D 85 24 sta  $2485
F589: 60       rts  
F58A: A9 7B    lda  #$7B
F58C: 8D 00 25 sta  $2500
F58F: A9 B7    lda  #$B7
F591: 8D 01 25 sta  $2501
F594: A9 80    lda  #$80
F596: 8D 02 25 sta  $2502
F599: A9 3C    lda  #$3C
F59B: 8D 03 25 sta  $2503
F59E: A9 84    lda  #$84
F5A0: 18       clc  
F5A1: 65 61    adc  $61
F5A3: 8D 04 25 sta  $2504
F5A6: A9 BF    lda  #$BF
F5A8: 8D 05 25 sta  $2505
F5AB: A9 80    lda  #$80
F5AD: 8D 06 25 sta  $2506
F5B0: A9 64    lda  #SKILL
F5B2: 8D 07 25 sta  $2507
F5B5: A9 00    lda  #$00
F5B7: 8D 09 25 sta  $2509
F5BA: 20 91 D6 jsr  $D691
F5BD: 60       rts  

F5BE: A9 84    lda  #$84
F5C0: 18       clc  
F5C1: 65 6C    adc  NUMPLAYERS
F5C3: 8D 04 26 sta  $2604
F5C6: A9 DF    lda  #$DF
F5C8: 8D 05 26 sta  $2605
F5CB: A9 80    lda  #$80
F5CD: 8D 06 26 sta  $2606
F5D0: A9 3A    lda  #$3A
F5D2: 8D 07 26 sta  $2607
F5D5: A9 00    lda  #$00
F5D7: 8D 09 26 sta  $2609
F5DA: A9 7B    lda  #$7B
F5DC: 8D 00 26 sta  $2600
F5DF: A9 D7    lda  #$D7
F5E1: 8D 01 26 sta  $2601
F5E4: A9 80    lda  #$80
F5E6: 8D 02 26 sta  $2602
F5E9: A9 43    lda  #$43
F5EB: 8D 03 26 sta  $2603
F5EE: A6 64    ldx  SKILL
F5F0: BD 72 F2 lda  $F272,x
F5F3: 8D 80 26 sta  $2680
F5F6: BD 77 F2 lda  $F277,x
F5F9: 8D 81 26 sta  $2681
F5FC: A9 80    lda  #$80
F5FE: 8D 82 26 sta  $2682
F601: BD 7C F2 lda  $F27C,x
F604: 8D 83 26 sta  $2683
F607: 60       rts  
F608: A9 C6    lda  #$C6
F60A: 8D 80 27 sta  $2780
F60D: A9 F0    lda  #$F0
F60F: 8D 81 27 sta  $2781
F612: A9 80    lda  #$80
F614: 8D 82 27 sta  $2782
F617: A9 0A    lda  #$0A
F619: 8D 83 27 sta  $2783
F61C: A9 B9    lda  #$B9
F61E: 8D 84 27 sta  $2784
F621: A9 F3    lda  #$F3
F623: 8D 85 27 sta  $2785
F626: A9 80    lda  #$80
F628: 8D 86 27 sta  $2786
F62B: A9 5A    lda  #$5A
F62D: 8D 87 27 sta  $2787
F630: 60       rts  
F631: A9 00    lda  #$00
F633: 8D 0D 18 sta  $180D
F636: A9 26    lda  #$26
F638: 8D 17 18 sta  $1817
F63B: A9 80    lda  #$80
F63D: 8D 18 18 sta  $1818
F640: 60       rts  
F641: A2 0E    ldx  #$0E
F643: BD 81 F2 lda  $F281,x
F646: 9D 00 1A sta  $1A00,x
F649: CA       dex  
F64A: 10 F7    bpl  $F643
F64C: A9 CF    lda  #$CF
F64E: 8D 04 18 sta  $1804
F651: 60       rts  
F652: AD 00 39 lda  $3900
F655: C9 C6    cmp  #$C6
F657: D0 50    bne  $F6A9
F659: AD 04 39 lda  $3904
F65C: C9 FE    cmp  #$FE
F65E: D0 49    bne  $F6A9
F660: 20 45 F5 jsr  $F545
F663: A9 01    lda  #$01
F665: 85 69    sta  $69
F667: A9 7F    lda  #$7F	;Turn off DMA
F669: 85 3C    sta  $3C		;
F66B: 20 AE F6 jsr  $F6AE
F66E: 20 41 F6 jsr  $F641
F671: A5 64    lda  SKILL
F673: 0A       asl  a
F674: 0A       asl  a
F675: 8D 02 1A sta  $1A02
F678: 20 55 D2 jsr  $D255
F67B: A2 03    ldx  #$03
F67D: A0 00    ldy  #$00
F67F: B5 40    lda  $40,x
F681: 99 00 1C sta  $1C00,y
F684: C8       iny  
F685: CA       dex  
F686: 10 F7    bpl  $F67F
F688: A0 1A    ldy  #$1A
F68A: 20 FD 3F jsr  $3FFD
F68D: A5 6C    lda  NUMPLAYERS		
F68F: F0 18    beq  $F6A9
F691: EE 02 1A inc  $1A02
F694: A2 03    ldx  #$03
F696: A0 00    ldy  #$00
F698: B5 44    lda  $44,x
F69A: 99 00 1C sta  $1C00,y
F69D: C8       iny  
F69E: CA       dex  
F69F: 10 F7    bpl  $F698
F6A1: A0 1A    ldy  #$1A
F6A3: 20 FD 3F jsr  $3FFD
F6A6: 20 45 F5 jsr  $F545
F6A9: A9 00    lda  #$00
F6AB: 85 69    sta  $69
F6AD: 60       rts  
F6AE: 20 45 F5 jsr  $F545
F6B1: 20 52 F5 jsr  $F552
F6B4: 20 31 F6 jsr  $F631
F6B7: 20 BE F5 jsr  $F5BE
F6BA: 60       rts  
F6BB: A5 68    lda  $68
F6BD: 29 0F    and  #$0F
F6BF: 85 5F    sta  $5F
F6C1: A5 E5    lda  $E5
F6C3: 0A       asl  a
F6C4: 0A       asl  a
F6C5: 29 F0    and  #$F0
F6C7: 05 5F    ora  $5F
F6C9: 85 68    sta  $68
F6CB: 20 91 D6 jsr  $D691
F6CE: 60       rts  
F6CF: A5 E5    lda  $E5
F6D1: C5 79    cmp  $79
F6D3: D0 01    bne  $F6D6
F6D5: 60       rts  
F6D6: 85 79    sta  $79
F6D8: A5 68    lda  $68
F6DA: 29 0F    and  #$0F
F6DC: 85 5F    sta  $5F
F6DE: A5 E5    lda  $E5
F6E0: 0A       asl  a
F6E1: 0A       asl  a
F6E2: 0A       asl  a
F6E3: 29 F0    and  #$F0
F6E5: 05 5F    ora  $5F
F6E7: 85 68    sta  $68
F6E9: 85 21    sta  $21
F6EB: 49 F0    eor  #$F0
F6ED: 85 22    sta  $22
F6EF: 38       sec  
F6F0: E5 68    sbc  $68
F6F2: 29 F0    and  #$F0
F6F4: 05 5F    ora  $5F
F6F6: 85 23    sta  $23
F6F8: 60       rts  
F6F9: 20 9A DD jsr  $DD9A
F6FC: A9 00    lda  #$00
F6FE: 85 7A    sta  $7A
F700: 85 7B    sta  $7B
F702: A9 37    lda  #$37
F704: 85 68    sta  $68
F706: A5 E5    lda  $E5
F708: 85 79    sta  $79
F70A: A6 7B    ldx  $7B
F70C: BD D0 F2 lda  $F2D0,x
F70F: 85 BA    sta  $BA
F711: BD D2 F2 lda  $F2D2,x
F714: 85 BB    sta  $BB
F716: A0 0F    ldy  #$0F
F718: B1 BA    lda  ($BA),y
F71A: 99 A0 00 sta  $00A0,y
F71D: 88       dey  
F71E: 10 F8    bpl  $F718
F720: A6 7A    ldx  $7A
F722: BD 90 F2 lda  $F290,x
F725: 85 BA    sta  $BA
F727: BD A5 F2 lda  $F2A5,x
F72A: 85 BB    sta  $BB
F72C: C8       iny  
F72D: A5 A1    lda  $A1
F72F: 91 BA    sta  ($BA),y
F731: C8       iny  
F732: A9 1E    lda  #$1E
F734: 91 BA    sta  ($BA),y
F736: A5 A0    lda  $A0
F738: C8       iny  
F739: 91 BA    sta  ($BA),y
F73B: C8       iny  
F73C: BD FE F2 lda  $F2FE,x
F73F: 91 BA    sta  ($BA),y
F741: 18       clc  
F742: 69 08    adc  #$08
F744: 85 B1    sta  $B1
F746: C8       iny  
F747: BD 08 F3 lda  $F308,x
F74A: AA       tax  
F74B: F0 1C    beq  $F769
F74D: A5 AD    lda  $AD
F74F: 91 BA    sta  ($BA),y
F751: C8       iny  
F752: A9 1E    lda  #$1E
F754: 91 BA    sta  ($BA),y
F756: C8       iny  
F757: A5 AC    lda  $AC
F759: 91 BA    sta  ($BA),y
F75B: C8       iny  
F75C: A5 B1    lda  $B1
F75E: 91 BA    sta  ($BA),y
F760: 18       clc  
F761: 69 08    adc  #$08
F763: 85 B1    sta  $B1
F765: C8       iny  
F766: CA       dex  
F767: D0 E4    bne  $F74D
F769: A6 7A    ldx  $7A
F76B: A5 A3    lda  $A3
F76D: 91 BA    sta  ($BA),y
F76F: C8       iny  
F770: A9 1E    lda  #$1E
F772: 91 BA    sta  ($BA),y
F774: A5 A2    lda  $A2
F776: C8       iny  
F777: 91 BA    sta  ($BA),y
F779: C8       iny  
F77A: BD F4 F2 lda  $F2F4,x
F77D: 91 BA    sta  ($BA),y
F77F: A0 00    ldy  #$00
F781: BD 9A F2 lda  $F29A,x
F784: 85 BA    sta  $BA
F786: BD AF F2 lda  $F2AF,x
F789: 85 BB    sta  $BB
F78B: A5 A5    lda  $A5
F78D: 91 BA    sta  ($BA),y
F78F: C8       iny  
F790: A9 1E    lda  #$1E
F792: 91 BA    sta  ($BA),y
F794: A5 A4    lda  $A4
F796: C8       iny  
F797: 91 BA    sta  ($BA),y
F799: C8       iny  
F79A: BD FE F2 lda  $F2FE,x
F79D: 91 BA    sta  ($BA),y
F79F: 18       clc  
F7A0: 69 08    adc  #$08
F7A2: 85 B1    sta  $B1
F7A4: C8       iny  
F7A5: BD 08 F3 lda  $F308,x
F7A8: AA       tax  
F7A9: F0 1C    beq  $F7C7
F7AB: A5 AF    lda  $AF
F7AD: 91 BA    sta  ($BA),y
F7AF: C8       iny  
F7B0: A9 1E    lda  #$1E
F7B2: 91 BA    sta  ($BA),y
F7B4: C8       iny  
F7B5: A5 AE    lda  $AE
F7B7: 91 BA    sta  ($BA),y
F7B9: C8       iny  
F7BA: A5 B1    lda  $B1
F7BC: 91 BA    sta  ($BA),y
F7BE: 18       clc  
F7BF: 69 08    adc  #$08
F7C1: 85 B1    sta  $B1
F7C3: C8       iny  
F7C4: CA       dex  
F7C5: D0 E4    bne  $F7AB
F7C7: A6 7A    ldx  $7A
F7C9: A5 A7    lda  $A7
F7CB: 91 BA    sta  ($BA),y
F7CD: C8       iny  
F7CE: A9 1E    lda  #$1E
F7D0: 91 BA    sta  ($BA),y
F7D2: A5 A6    lda  $A6
F7D4: C8       iny  
F7D5: 91 BA    sta  ($BA),y
F7D7: C8       iny  
F7D8: BD F4 F2 lda  $F2F4,x
F7DB: 91 BA    sta  ($BA),y
F7DD: BD 90 F2 lda  $F290,x
F7E0: 18       clc  
F7E1: 69 56    adc  #$56
F7E3: 85 BA    sta  $BA
F7E5: BD A5 F2 lda  $F2A5,x
F7E8: 69 00    adc  #$00
F7EA: 85 BB    sta  $BB
F7EC: A5 BA    lda  $BA
F7EE: 18       clc  
F7EF: 7D 13 F3 adc  $F313,x
F7F2: 85 BA    sta  $BA
F7F4: A5 BB    lda  $BB
F7F6: 69 00    adc  #$00
F7F8: 85 BB    sta  $BB
F7FA: A0 00    ldy  #$00
F7FC: BD FE F2 lda  $F2FE,x
F7FF: 85 B1    sta  $B1
F801: BD F4 F2 lda  $F2F4,x
F804: 85 B2    sta  $B2
F806: BD 08 F3 lda  $F308,x
F809: AA       tax  
F80A: F0 39    beq  $F845
F80C: A0 00    ldy  #$00
F80E: A5 A9    lda  $A9
F810: 91 BA    sta  ($BA),y
F812: A9 1E    lda  #$1E
F814: C8       iny  
F815: 91 BA    sta  ($BA),y
F817: C8       iny  
F818: A5 A8    lda  $A8
F81A: 91 BA    sta  ($BA),y
F81C: C8       iny  
F81D: A5 B1    lda  $B1
F81F: 91 BA    sta  ($BA),y
F821: C8       iny  
F822: A5 AB    lda  $AB
F824: 91 BA    sta  ($BA),y
F826: A9 1E    lda  #$1E
F828: C8       iny  
F829: 91 BA    sta  ($BA),y
F82B: C8       iny  
F82C: A5 AA    lda  $AA
F82E: 91 BA    sta  ($BA),y
F830: C8       iny  
F831: A5 B2    lda  $B2
F833: 91 BA    sta  ($BA),y
F835: 18       clc  
F836: A5 BA    lda  $BA
F838: 69 56    adc  #$56
F83A: 85 BA    sta  $BA
F83C: A5 BB    lda  $BB
F83E: 69 00    adc  #$00
F840: 85 BB    sta  $BB
F842: CA       dex  
F843: D0 C7    bne  $F80C
F845: A4 7A    ldy  $7A
F847: C8       iny  
F848: C0 0A    cpy  #$0A
F84A: D0 09    bne  $F855
F84C: A5 7B    lda  $7B
F84E: D0 0D    bne  $F85D
F850: A8       tay  
F851: A9 01    lda  #$01
F853: 85 7B    sta  $7B
F855: 84 7A    sty  $7A
F857: 20 5E F8 jsr  $F85E
F85A: 4C 0A F7 jmp  $F70A
F85D: 60       rts  
F85E: A0 03    ldy  #$03
F860: 20 38 F5 jsr  $F538
F863: 20 CF F6 jsr  $F6CF
F866: 20 34 DB jsr  $DB34
F869: 88       dey  
F86A: 10 F4    bpl  $F860
F86C: 60       rts  

;Look for collisions between a sprite and player
;Expects: 
; 
;


F86D: A0 01    ldy  #$01	;First Sprite
F86F: B9 91 1F lda  SPRITE_STATE_1F91,y	;Get sprite enabled flag
F872: C9 01    cmp  #$01	;Is sprite enabled?
F874: D0 2A    bne  $F8A0	;Branch if it isn't
F876: 18       clc  		;
F877: AD 26 1B lda  SPRITE_Y	;Get player y position
F87A: 69 20    adc  #$20	;
F87C: D9 26 1B cmp  SPRITE_Y,y	;Compare against sprite y position
F87F: 90 1F    bcc  $F8A0	;Branch if (player_y + 20) < sprite_y
F881: AD 26 1B lda  SPRITE_Y	;Get player y position
F884: E9 20    sbc  #$20	;
F886: D9 26 1B cmp  SPRITE_Y,y	;Compare against sprite y position
F889: B0 15    bcs  $F8A0	;Branch if (player_y - 20) >= sprite_y
F88B: 18       clc  		;
F88C: AD CF 1A lda  SPRITE_X	;Get player x position
F88F: 69 13    adc  #$13	;
F891: D9 CF 1A cmp  SPRITE_X,y	;Compare against sprite x position
F894: 90 0A    bcc  $F8A0	;Branch if (player_x + 13) < sprite_x
F896: AD CF 1A lda  SPRITE_X	;Get player x position
F899: E9 13    sbc  #$13	;
F89B: D9 CF 1A cmp  SPRITE_X,y	;Compare against sprite x position
F89E: 90 08    bcc  $F8A8	;Branch if (player_x - 13) < sprite_x
F8A0: C8       iny  		;Next sprite
F8A1: C0 54    cpy  #$54	;End of list?
F8A3: 90 CA    bcc  $F86F	;Branch if not
F8A5: A0 00    ldy  #$00	; reset y to 0 meaning "no collision with player" (IMPORTANT - calling routine checks this)
F8A7: 60       rts  

; If we get here, then a collision has occurred with the player. But what type of collision?
F8A8: B9 8C 1E lda  SPRITE_TYPE_1E8C,y	;Get sprite type
F8AB: 29 1F    and  #$1F	;Mask type
F8AD: C9 02    cmp  #$02	;Is sprite dying?
F8AF: 90 09    bcc  $F8BA	;No, it must be active then
F8B1: C9 05    cmp  #$05	;
F8B3: B0 05    bcs  $F8BA	;Branch if 5 or more
F8B5: 84 6B    sty  $6B		;End up here if we hit a player
F8B7: 4C A0 F8 jmp  $F8A0	;Back to collision scan
F8BA: 60       rts  		;End up here if we hit something deadly

F8BB: 86 AE    stx  $AE	
F8BD: A5 C9    lda  $C9	
F8BF: F0 11    beq  $F8D2	
F8C1: 20 6D F8 jsr  $F86D	;Look for collisions
F8C4: C0 00    cpy  #$00	;Did we hit something deadly?
F8C6: D0 23    bne  $F8EB	;Branch if we did
F8C8: A5 C9    lda  $C9		
F8CA: C9 01    cmp  #$01
F8CC: D0 0D    bne  $F8DB
F8CE: A5 5B    lda  $5B
F8D0: F0 09    beq  $F8DB
F8D2: A6 AE    ldx  $AE
F8D4: A9 00    lda  #$00
F8D6: 85 AE    sta  $AE
F8D8: A9 0F    lda  #$0F
F8DA: 60       rts  
F8DB: A4 6A    ldy  $6A
F8DD: C8       iny  
F8DE: C0 54    cpy  #$54
F8E0: 90 02    bcc  $F8E4
F8E2: A0 01    ldy  #$01
F8E4: 84 6A    sty  $6A
F8E6: B9 91 1F lda  SPRITE_STATE_1F91,y
F8E9: F0 F2    beq  $F8DD
F8EB: A2 00    ldx  #$00
F8ED: 86 B7    stx  $B7
F8EF: 20 6E BD jsr  $BD6E
F8F2: C9 0F    cmp  #$0F
F8F4: F0 DC    beq  $F8D2
F8F6: A8       tay  
F8F7: A6 AE    ldx  $AE
F8F9: A9 01    lda  #$01
F8FB: 85 AE    sta  $AE
F8FD: B9 15 EC lda  $EC15,y
F900: 4C 72 D9 jmp  $D972
F903: CE 2B 1C dec  $1C2B
F906: 30 06    bmi  $F90E
F908: AD D4 1B lda  SPRITE_DIRECTION_1BD4
F90B: 4C BA D7 jmp  $D7BA
F90E: A9 00    lda  #$00
F910: 8D 2B 1C sta  $1C2B
F913: 20 6D F8 jsr  $F86D
F916: C0 00    cpy  #$00
F918: F0 1A    beq  $F934
F91A: A2 00    ldx  #$00
F91C: 86 B7    stx  $B7
F91E: 20 6E BD jsr  $BD6E
F921: C9 0F    cmp  #$0F
F923: F0 41    beq  $F966
F925: AA       tax  
F926: A9 03    lda  #$03
F928: 8D 2B 1C sta  $1C2B
F92B: BC 80 F9 ldy  $F980,x
F92E: B9 15 EC lda  $EC15,y
F931: 4C BA D7 jmp  $D7BA
F934: A5 5B    lda  $5B
F936: F0 2E    beq  $F966
F938: A4 6B    ldy  $6B		;Get sprite number of human we hit	
F93A: B9 91 1F lda  SPRITE_STATE_1F91,y	;Look up enable flag
F93D: C9 01    cmp  #$01	;
F93F: D0 2A    bne  $F96B	;Branch if it isn't enabled
F941: B9 8C 1E lda  SPRITE_TYPE_1E8C,y	;Get Sprite type
F944: 29 1F    and  #$1F	;Mask off type
F946: C9 02    cmp  #$02	;
F948: 90 21    bcc  $F96B	;Branch if less the 2
F94A: C9 05    cmp  #$05	;
F94C: B0 1D    bcs  $F96B	;Branch if >= 5
F94E: A2 00    ldx  #$00	;
F950: 86 B7    stx  $B7
F952: 20 6E BD jsr  $BD6E
F955: C9 0F    cmp  #$0F
F957: F0 0D    beq  $F966
F959: A8       tay  
F95A: B9 15 EC lda  $EC15,y
F95D: 4C BA D7 jmp  $D7BA
F960: AD D4 1B lda  SPRITE_DIRECTION_1BD4
F963: 4C BA D7 jmp  $D7BA
F966: A9 0F    lda  #$0F
F968: 4C BA D7 jmp  $D7BA
F96B: C8       iny  
F96C: 84 6B    sty  $6B
F96E: 38       sec  
F96F: AD 06 19 lda  $1906
F972: 69 18    adc  #$18
F974: C5 6B    cmp  $6B
F976: B0 BC    bcs  $F934
F978: AC 06 19 ldy  $1906
F97B: 84 6B    sty  $6B
F97D: 4C 66 F9 jmp  $F966

F980: 02       ill  $02
F981: 03       ill  $03
F982: 01 00    ora  ($00,x)
F984: 05 06    ora  $06
F986: 07       ill  $07
F987: 04       ill  $04
F988: FF       ill  $FF
F989: FF       ill  $FF
F98A: FF       ill  $FF
F98B: FF       ill  $FF
F98C: FF       ill  $FF
F98D: FF       ill  $FF
F98E: FF       ill  $FF
F98F: FF       ill  $FF
F990: FF       ill  $FF
F991: FF       ill  $FF
F992: FF       ill  $FF
F993: FF       ill  $FF
F994: FF       ill  $FF
F995: FF       ill  $FF
F996: FF       ill  $FF
F997: FF       ill  $FF
F998: FF       ill  $FF
F999: FF       ill  $FF
F99A: FF       ill  $FF
F99B: FF       ill  $FF
F99C: FF       ill  $FF
F99D: FF       ill  $FF
F99E: FF       ill  $FF
F99F: FF       ill  $FF
F9A0: FF       ill  $FF
F9A1: FF       ill  $FF
F9A2: FF       ill  $FF
F9A3: FF       ill  $FF
F9A4: FF       ill  $FF
F9A5: FF       ill  $FF
F9A6: FF       ill  $FF
F9A7: FF       ill  $FF
F9A8: FF       ill  $FF
F9A9: FF       ill  $FF
F9AA: FF       ill  $FF
F9AB: FF       ill  $FF
F9AC: FF       ill  $FF
F9AD: FF       ill  $FF
F9AE: FF       ill  $FF
F9AF: FF       ill  $FF
F9B0: FF       ill  $FF
F9B1: FF       ill  $FF
F9B2: FF       ill  $FF
F9B3: FF       ill  $FF
F9B4: FF       ill  $FF
F9B5: FF       ill  $FF
F9B6: FF       ill  $FF
F9B7: FF       ill  $FF
F9B8: FF       ill  $FF
F9B9: FF       ill  $FF
F9BA: FF       ill  $FF
F9BB: FF       ill  $FF
F9BC: FF       ill  $FF
F9BD: FF       ill  $FF
F9BE: FF       ill  $FF
F9BF: FF       ill  $FF
F9C0: FF       ill  $FF
F9C1: FF       ill  $FF
F9C2: FF       ill  $FF
F9C3: FF       ill  $FF
F9C4: FF       ill  $FF
F9C5: FF       ill  $FF
F9C6: FF       ill  $FF
F9C7: FF       ill  $FF
F9C8: FF       ill  $FF
F9C9: FF       ill  $FF
F9CA: FF       ill  $FF
F9CB: FF       ill  $FF
F9CC: FF       ill  $FF
F9CD: FF       ill  $FF
F9CE: FF       ill  $FF
F9CF: FF       ill  $FF
F9D0: FF       ill  $FF
F9D1: FF       ill  $FF
F9D2: FF       ill  $FF
F9D3: FF       ill  $FF
F9D4: FF       ill  $FF
F9D5: FF       ill  $FF
F9D6: FF       ill  $FF
F9D7: FF       ill  $FF
F9D8: FF       ill  $FF
F9D9: FF       ill  $FF
F9DA: FF       ill  $FF
F9DB: FF       ill  $FF
F9DC: FF       ill  $FF
F9DD: FF       ill  $FF
F9DE: FF       ill  $FF
F9DF: FF       ill  $FF
F9E0: FF       ill  $FF
F9E1: FF       ill  $FF
F9E2: FF       ill  $FF
F9E3: FF       ill  $FF
F9E4: FF       ill  $FF
F9E5: FF       ill  $FF
F9E6: FF       ill  $FF
F9E7: FF       ill  $FF
F9E8: FF       ill  $FF
F9E9: FF       ill  $FF
F9EA: FF       ill  $FF
F9EB: FF       ill  $FF
F9EC: FF       ill  $FF
F9ED: FF       ill  $FF
F9EE: FF       ill  $FF
F9EF: FF       ill  $FF
F9F0: FF       ill  $FF
F9F1: FF       ill  $FF
F9F2: FF       ill  $FF
F9F3: FF       ill  $FF
F9F4: FF       ill  $FF
F9F5: FF       ill  $FF
F9F6: FF       ill  $FF
F9F7: FF       ill  $FF
F9F8: FF       ill  $FF
F9F9: FF       ill  $FF
F9FA: FF       ill  $FF
F9FB: FF       ill  $FF
F9FC: FF       ill  $FF
F9FD: FF       ill  $FF
F9FE: FF       ill  $FF
F9FF: FF       ill  $FF
FA00: FF       ill  $FF
FA01: FF       ill  $FF
FA02: FF       ill  $FF
FA03: FF       ill  $FF
FA04: FF       ill  $FF
FA05: FF       ill  $FF
FA06: FF       ill  $FF
FA07: FF       ill  $FF
FA08: FF       ill  $FF
FA09: FF       ill  $FF
FA0A: FF       ill  $FF
FA0B: FF       ill  $FF
FA0C: FF       ill  $FF
FA0D: FF       ill  $FF
FA0E: FF       ill  $FF
FA0F: FF       ill  $FF
FA10: FF       ill  $FF
FA11: FF       ill  $FF
FA12: FF       ill  $FF
FA13: FF       ill  $FF
FA14: FF       ill  $FF
FA15: FF       ill  $FF
FA16: FF       ill  $FF
FA17: FF       ill  $FF
FA18: FF       ill  $FF
FA19: FF       ill  $FF
FA1A: FF       ill  $FF
FA1B: FF       ill  $FF
FA1C: FF       ill  $FF
FA1D: FF       ill  $FF
FA1E: FF       ill  $FF
FA1F: FF       ill  $FF
FA20: FF       ill  $FF
FA21: FF       ill  $FF
FA22: FF       ill  $FF
FA23: FF       ill  $FF
FA24: FF       ill  $FF
FA25: FF       ill  $FF
FA26: FF       ill  $FF
FA27: FF       ill  $FF
FA28: FF       ill  $FF
FA29: FF       ill  $FF
FA2A: FF       ill  $FF
FA2B: FF       ill  $FF
FA2C: FF       ill  $FF
FA2D: FF       ill  $FF
FA2E: FF       ill  $FF
FA2F: FF       ill  $FF
FA30: FF       ill  $FF
FA31: FF       ill  $FF
FA32: FF       ill  $FF
FA33: FF       ill  $FF
FA34: FF       ill  $FF
FA35: FF       ill  $FF
FA36: FF       ill  $FF
FA37: FF       ill  $FF
FA38: FF       ill  $FF
FA39: FF       ill  $FF
FA3A: FF       ill  $FF
FA3B: FF       ill  $FF
FA3C: FF       ill  $FF
FA3D: FF       ill  $FF
FA3E: FF       ill  $FF
FA3F: FF       ill  $FF
FA40: FF       ill  $FF
FA41: FF       ill  $FF
FA42: FF       ill  $FF
FA43: FF       ill  $FF
FA44: FF       ill  $FF
FA45: FF       ill  $FF
FA46: FF       ill  $FF
FA47: FF       ill  $FF
FA48: FF       ill  $FF
FA49: FF       ill  $FF
FA4A: FF       ill  $FF
FA4B: FF       ill  $FF
FA4C: FF       ill  $FF
FA4D: FF       ill  $FF
FA4E: FF       ill  $FF
FA4F: FF       ill  $FF
FA50: FF       ill  $FF
FA51: FF       ill  $FF
FA52: FF       ill  $FF
FA53: FF       ill  $FF
FA54: FF       ill  $FF
FA55: FF       ill  $FF
FA56: FF       ill  $FF
FA57: FF       ill  $FF
FA58: FF       ill  $FF
FA59: FF       ill  $FF
FA5A: FF       ill  $FF
FA5B: FF       ill  $FF
FA5C: FF       ill  $FF
FA5D: FF       ill  $FF
FA5E: FF       ill  $FF
FA5F: FF       ill  $FF
FA60: FF       ill  $FF
FA61: FF       ill  $FF
FA62: FF       ill  $FF
FA63: FF       ill  $FF
FA64: FF       ill  $FF
FA65: FF       ill  $FF
FA66: FF       ill  $FF
FA67: FF       ill  $FF
FA68: FF       ill  $FF
FA69: FF       ill  $FF
FA6A: FF       ill  $FF
FA6B: FF       ill  $FF
FA6C: FF       ill  $FF
FA6D: FF       ill  $FF
FA6E: FF       ill  $FF
FA6F: FF       ill  $FF
FA70: FF       ill  $FF
FA71: FF       ill  $FF
FA72: FF       ill  $FF
FA73: FF       ill  $FF
FA74: FF       ill  $FF
FA75: FF       ill  $FF
FA76: FF       ill  $FF
FA77: FF       ill  $FF
FA78: FF       ill  $FF
FA79: FF       ill  $FF
FA7A: FF       ill  $FF
FA7B: FF       ill  $FF
FA7C: FF       ill  $FF
FA7D: FF       ill  $FF
FA7E: FF       ill  $FF
FA7F: FF       ill  $FF
FA80: FF       ill  $FF
FA81: FF       ill  $FF
FA82: FF       ill  $FF
FA83: FF       ill  $FF
FA84: FF       ill  $FF
FA85: FF       ill  $FF
FA86: FF       ill  $FF
FA87: FF       ill  $FF
FA88: FF       ill  $FF
FA89: FF       ill  $FF
FA8A: FF       ill  $FF
FA8B: FF       ill  $FF
FA8C: FF       ill  $FF
FA8D: FF       ill  $FF
FA8E: FF       ill  $FF
FA8F: FF       ill  $FF
FA90: FF       ill  $FF
FA91: FF       ill  $FF
FA92: FF       ill  $FF
FA93: FF       ill  $FF
FA94: FF       ill  $FF
FA95: FF       ill  $FF
FA96: FF       ill  $FF
FA97: FF       ill  $FF
FA98: FF       ill  $FF
FA99: FF       ill  $FF
FA9A: FF       ill  $FF
FA9B: FF       ill  $FF
FA9C: FF       ill  $FF
FA9D: FF       ill  $FF
FA9E: FF       ill  $FF
FA9F: FF       ill  $FF
FAA0: FF       ill  $FF
FAA1: FF       ill  $FF
FAA2: FF       ill  $FF
FAA3: FF       ill  $FF
FAA4: FF       ill  $FF
FAA5: FF       ill  $FF
FAA6: FF       ill  $FF
FAA7: FF       ill  $FF
FAA8: FF       ill  $FF
FAA9: FF       ill  $FF
FAAA: FF       ill  $FF
FAAB: FF       ill  $FF
FAAC: FF       ill  $FF
FAAD: FF       ill  $FF
FAAE: FF       ill  $FF
FAAF: FF       ill  $FF
FAB0: FF       ill  $FF
FAB1: FF       ill  $FF
FAB2: FF       ill  $FF
FAB3: FF       ill  $FF
FAB4: FF       ill  $FF
FAB5: FF       ill  $FF
FAB6: FF       ill  $FF
FAB7: FF       ill  $FF
FAB8: FF       ill  $FF
FAB9: FF       ill  $FF
FABA: FF       ill  $FF
FABB: FF       ill  $FF
FABC: FF       ill  $FF
FABD: FF       ill  $FF
FABE: FF       ill  $FF
FABF: FF       ill  $FF
FAC0: FF       ill  $FF
FAC1: FF       ill  $FF
FAC2: FF       ill  $FF
FAC3: FF       ill  $FF
FAC4: FF       ill  $FF
FAC5: FF       ill  $FF
FAC6: FF       ill  $FF
FAC7: FF       ill  $FF
FAC8: FF       ill  $FF
FAC9: FF       ill  $FF
FACA: FF       ill  $FF
FACB: FF       ill  $FF
FACC: FF       ill  $FF
FACD: FF       ill  $FF
FACE: FF       ill  $FF
FACF: FF       ill  $FF
FAD0: FF       ill  $FF
FAD1: FF       ill  $FF
FAD2: FF       ill  $FF
FAD3: FF       ill  $FF
FAD4: FF       ill  $FF
FAD5: FF       ill  $FF
FAD6: FF       ill  $FF
FAD7: FF       ill  $FF
FAD8: FF       ill  $FF
FAD9: FF       ill  $FF
FADA: FF       ill  $FF
FADB: FF       ill  $FF
FADC: FF       ill  $FF
FADD: FF       ill  $FF
FADE: FF       ill  $FF
FADF: FF       ill  $FF
FAE0: FF       ill  $FF
FAE1: FF       ill  $FF
FAE2: FF       ill  $FF
FAE3: FF       ill  $FF
FAE4: FF       ill  $FF
FAE5: FF       ill  $FF
FAE6: FF       ill  $FF
FAE7: FF       ill  $FF
FAE8: FF       ill  $FF
FAE9: FF       ill  $FF
FAEA: FF       ill  $FF
FAEB: FF       ill  $FF
FAEC: FF       ill  $FF
FAED: FF       ill  $FF
FAEE: FF       ill  $FF
FAEF: FF       ill  $FF
FAF0: FF       ill  $FF
FAF1: FF       ill  $FF
FAF2: FF       ill  $FF
FAF3: FF       ill  $FF
FAF4: FF       ill  $FF
FAF5: FF       ill  $FF
FAF6: FF       ill  $FF
FAF7: FF       ill  $FF
FAF8: FF       ill  $FF
FAF9: FF       ill  $FF
FAFA: FF       ill  $FF
FAFB: FF       ill  $FF
FAFC: FF       ill  $FF
FAFD: FF       ill  $FF
FAFE: FF       ill  $FF
FAFF: FF       ill  $FF
FB00: FF       ill  $FF
FB01: FF       ill  $FF
FB02: FF       ill  $FF
FB03: FF       ill  $FF
FB04: FF       ill  $FF
FB05: FF       ill  $FF
FB06: FF       ill  $FF
FB07: FF       ill  $FF
FB08: FF       ill  $FF
FB09: FF       ill  $FF
FB0A: FF       ill  $FF
FB0B: FF       ill  $FF
FB0C: FF       ill  $FF
FB0D: FF       ill  $FF
FB0E: FF       ill  $FF
FB0F: FF       ill  $FF
FB10: FF       ill  $FF
FB11: FF       ill  $FF
FB12: FF       ill  $FF
FB13: FF       ill  $FF
FB14: FF       ill  $FF
FB15: FF       ill  $FF
FB16: FF       ill  $FF
FB17: FF       ill  $FF
FB18: FF       ill  $FF
FB19: FF       ill  $FF
FB1A: FF       ill  $FF
FB1B: FF       ill  $FF
FB1C: FF       ill  $FF
FB1D: FF       ill  $FF
FB1E: FF       ill  $FF
FB1F: FF       ill  $FF
FB20: FF       ill  $FF
FB21: FF       ill  $FF
FB22: FF       ill  $FF
FB23: FF       ill  $FF
FB24: FF       ill  $FF
FB25: FF       ill  $FF
FB26: FF       ill  $FF
FB27: FF       ill  $FF
FB28: FF       ill  $FF
FB29: FF       ill  $FF
FB2A: FF       ill  $FF
FB2B: FF       ill  $FF
FB2C: FF       ill  $FF
FB2D: FF       ill  $FF
FB2E: FF       ill  $FF
FB2F: FF       ill  $FF
FB30: FF       ill  $FF
FB31: FF       ill  $FF
FB32: FF       ill  $FF
FB33: FF       ill  $FF
FB34: FF       ill  $FF
FB35: FF       ill  $FF
FB36: FF       ill  $FF
FB37: FF       ill  $FF
FB38: FF       ill  $FF
FB39: FF       ill  $FF
FB3A: FF       ill  $FF
FB3B: FF       ill  $FF
FB3C: FF       ill  $FF
FB3D: FF       ill  $FF
FB3E: FF       ill  $FF
FB3F: FF       ill  $FF
FB40: FF       ill  $FF
FB41: FF       ill  $FF
FB42: FF       ill  $FF
FB43: FF       ill  $FF
FB44: FF       ill  $FF
FB45: FF       ill  $FF
FB46: FF       ill  $FF
FB47: FF       ill  $FF
FB48: FF       ill  $FF
FB49: FF       ill  $FF
FB4A: FF       ill  $FF
FB4B: FF       ill  $FF
FB4C: FF       ill  $FF
FB4D: FF       ill  $FF
FB4E: FF       ill  $FF
FB4F: FF       ill  $FF
FB50: FF       ill  $FF
FB51: FF       ill  $FF
FB52: FF       ill  $FF
FB53: FF       ill  $FF
FB54: FF       ill  $FF
FB55: FF       ill  $FF
FB56: FF       ill  $FF
FB57: FF       ill  $FF
FB58: FF       ill  $FF
FB59: FF       ill  $FF
FB5A: FF       ill  $FF
FB5B: FF       ill  $FF
FB5C: FF       ill  $FF
FB5D: FF       ill  $FF
FB5E: FF       ill  $FF
FB5F: FF       ill  $FF
FB60: FF       ill  $FF
FB61: FF       ill  $FF
FB62: FF       ill  $FF
FB63: FF       ill  $FF
FB64: FF       ill  $FF
FB65: FF       ill  $FF
FB66: FF       ill  $FF
FB67: FF       ill  $FF
FB68: FF       ill  $FF
FB69: FF       ill  $FF
FB6A: FF       ill  $FF
FB6B: FF       ill  $FF
FB6C: FF       ill  $FF
FB6D: FF       ill  $FF
FB6E: FF       ill  $FF
FB6F: FF       ill  $FF
FB70: FF       ill  $FF
FB71: FF       ill  $FF
FB72: FF       ill  $FF
FB73: FF       ill  $FF
FB74: FF       ill  $FF
FB75: FF       ill  $FF
FB76: FF       ill  $FF
FB77: FF       ill  $FF
FB78: FF       ill  $FF
FB79: FF       ill  $FF
FB7A: FF       ill  $FF
FB7B: FF       ill  $FF
FB7C: FF       ill  $FF
FB7D: FF       ill  $FF
FB7E: FF       ill  $FF
FB7F: FF       ill  $FF
FB80: FF       ill  $FF
FB81: FF       ill  $FF
FB82: FF       ill  $FF
FB83: FF       ill  $FF
FB84: FF       ill  $FF
FB85: FF       ill  $FF
FB86: FF       ill  $FF
FB87: FF       ill  $FF
FB88: FF       ill  $FF
FB89: FF       ill  $FF
FB8A: FF       ill  $FF
FB8B: FF       ill  $FF
FB8C: FF       ill  $FF
FB8D: FF       ill  $FF
FB8E: FF       ill  $FF
FB8F: FF       ill  $FF
FB90: FF       ill  $FF
FB91: FF       ill  $FF
FB92: FF       ill  $FF
FB93: FF       ill  $FF
FB94: FF       ill  $FF
FB95: FF       ill  $FF
FB96: FF       ill  $FF
FB97: FF       ill  $FF
FB98: FF       ill  $FF
FB99: FF       ill  $FF
FB9A: FF       ill  $FF
FB9B: FF       ill  $FF
FB9C: FF       ill  $FF
FB9D: FF       ill  $FF
FB9E: FF       ill  $FF
FB9F: FF       ill  $FF
FBA0: FF       ill  $FF
FBA1: FF       ill  $FF
FBA2: FF       ill  $FF
FBA3: FF       ill  $FF
FBA4: FF       ill  $FF
FBA5: FF       ill  $FF
FBA6: FF       ill  $FF
FBA7: FF       ill  $FF
FBA8: FF       ill  $FF
FBA9: FF       ill  $FF
FBAA: FF       ill  $FF
FBAB: FF       ill  $FF
FBAC: FF       ill  $FF
FBAD: FF       ill  $FF
FBAE: FF       ill  $FF
FBAF: FF       ill  $FF
FBB0: FF       ill  $FF
FBB1: FF       ill  $FF
FBB2: FF       ill  $FF
FBB3: FF       ill  $FF
FBB4: FF       ill  $FF
FBB5: FF       ill  $FF
FBB6: FF       ill  $FF
FBB7: FF       ill  $FF
FBB8: FF       ill  $FF
FBB9: FF       ill  $FF
FBBA: FF       ill  $FF
FBBB: FF       ill  $FF
FBBC: FF       ill  $FF
FBBD: FF       ill  $FF
FBBE: FF       ill  $FF
FBBF: FF       ill  $FF
FBC0: FF       ill  $FF
FBC1: FF       ill  $FF
FBC2: FF       ill  $FF
FBC3: FF       ill  $FF
FBC4: FF       ill  $FF
FBC5: FF       ill  $FF
FBC6: FF       ill  $FF
FBC7: FF       ill  $FF
FBC8: FF       ill  $FF
FBC9: FF       ill  $FF
FBCA: FF       ill  $FF
FBCB: FF       ill  $FF
FBCC: FF       ill  $FF
FBCD: FF       ill  $FF
FBCE: FF       ill  $FF
FBCF: FF       ill  $FF
FBD0: FF       ill  $FF
FBD1: FF       ill  $FF
FBD2: FF       ill  $FF
FBD3: FF       ill  $FF
FBD4: FF       ill  $FF
FBD5: FF       ill  $FF
FBD6: FF       ill  $FF
FBD7: FF       ill  $FF
FBD8: FF       ill  $FF
FBD9: FF       ill  $FF
FBDA: FF       ill  $FF
FBDB: FF       ill  $FF
FBDC: FF       ill  $FF
FBDD: FF       ill  $FF
FBDE: FF       ill  $FF
FBDF: FF       ill  $FF
FBE0: FF       ill  $FF
FBE1: FF       ill  $FF
FBE2: FF       ill  $FF
FBE3: FF       ill  $FF
FBE4: FF       ill  $FF
FBE5: FF       ill  $FF
FBE6: FF       ill  $FF
FBE7: FF       ill  $FF
FBE8: FF       ill  $FF
FBE9: FF       ill  $FF
FBEA: FF       ill  $FF
FBEB: FF       ill  $FF
FBEC: FF       ill  $FF
FBED: FF       ill  $FF
FBEE: FF       ill  $FF
FBEF: FF       ill  $FF
FBF0: FF       ill  $FF
FBF1: FF       ill  $FF
FBF2: FF       ill  $FF
FBF3: FF       ill  $FF
FBF4: FF       ill  $FF
FBF5: FF       ill  $FF
FBF6: FF       ill  $FF
FBF7: FF       ill  $FF
FBF8: FF       ill  $FF
FBF9: FF       ill  $FF
FBFA: FF       ill  $FF
FBFB: FF       ill  $FF
FBFC: FF       ill  $FF
FBFD: FF       ill  $FF
FBFE: FF       ill  $FF
FBFF: FF       ill  $FF
FC00: FF       ill  $FF
FC01: FF       ill  $FF
FC02: FF       ill  $FF
FC03: FF       ill  $FF
FC04: FF       ill  $FF
FC05: FF       ill  $FF
FC06: FF       ill  $FF
FC07: FF       ill  $FF
FC08: FF       ill  $FF
FC09: FF       ill  $FF
FC0A: FF       ill  $FF
FC0B: FF       ill  $FF
FC0C: FF       ill  $FF
FC0D: FF       ill  $FF
FC0E: FF       ill  $FF
FC0F: FF       ill  $FF
FC10: FF       ill  $FF
FC11: FF       ill  $FF
FC12: FF       ill  $FF
FC13: FF       ill  $FF
FC14: FF       ill  $FF
FC15: FF       ill  $FF
FC16: FF       ill  $FF
FC17: FF       ill  $FF
FC18: FF       ill  $FF
FC19: FF       ill  $FF
FC1A: FF       ill  $FF
FC1B: FF       ill  $FF
FC1C: FF       ill  $FF
FC1D: FF       ill  $FF
FC1E: FF       ill  $FF
FC1F: FF       ill  $FF
FC20: FF       ill  $FF
FC21: FF       ill  $FF
FC22: FF       ill  $FF
FC23: FF       ill  $FF
FC24: FF       ill  $FF
FC25: FF       ill  $FF
FC26: FF       ill  $FF
FC27: FF       ill  $FF
FC28: FF       ill  $FF
FC29: FF       ill  $FF
FC2A: FF       ill  $FF
FC2B: FF       ill  $FF
FC2C: FF       ill  $FF
FC2D: FF       ill  $FF
FC2E: FF       ill  $FF
FC2F: FF       ill  $FF
FC30: FF       ill  $FF
FC31: FF       ill  $FF
FC32: FF       ill  $FF
FC33: FF       ill  $FF
FC34: FF       ill  $FF
FC35: FF       ill  $FF
FC36: FF       ill  $FF
FC37: FF       ill  $FF
FC38: FF       ill  $FF
FC39: FF       ill  $FF
FC3A: FF       ill  $FF
FC3B: FF       ill  $FF
FC3C: FF       ill  $FF
FC3D: FF       ill  $FF
FC3E: FF       ill  $FF
FC3F: FF       ill  $FF
FC40: FF       ill  $FF
FC41: FF       ill  $FF
FC42: FF       ill  $FF
FC43: FF       ill  $FF
FC44: FF       ill  $FF
FC45: FF       ill  $FF
FC46: FF       ill  $FF
FC47: FF       ill  $FF
FC48: FF       ill  $FF
FC49: FF       ill  $FF
FC4A: FF       ill  $FF
FC4B: FF       ill  $FF
FC4C: FF       ill  $FF
FC4D: FF       ill  $FF
FC4E: FF       ill  $FF
FC4F: FF       ill  $FF
FC50: FF       ill  $FF
FC51: FF       ill  $FF
FC52: FF       ill  $FF
FC53: FF       ill  $FF
FC54: FF       ill  $FF
FC55: FF       ill  $FF
FC56: FF       ill  $FF
FC57: FF       ill  $FF
FC58: FF       ill  $FF
FC59: FF       ill  $FF
FC5A: FF       ill  $FF
FC5B: FF       ill  $FF
FC5C: FF       ill  $FF
FC5D: FF       ill  $FF
FC5E: FF       ill  $FF
FC5F: FF       ill  $FF
FC60: FF       ill  $FF
FC61: FF       ill  $FF
FC62: FF       ill  $FF
FC63: FF       ill  $FF
FC64: FF       ill  $FF
FC65: FF       ill  $FF
FC66: FF       ill  $FF
FC67: FF       ill  $FF
FC68: FF       ill  $FF
FC69: FF       ill  $FF
FC6A: FF       ill  $FF
FC6B: FF       ill  $FF
FC6C: FF       ill  $FF
FC6D: FF       ill  $FF
FC6E: FF       ill  $FF
FC6F: FF       ill  $FF
FC70: FF       ill  $FF
FC71: FF       ill  $FF
FC72: FF       ill  $FF
FC73: FF       ill  $FF
FC74: FF       ill  $FF
FC75: FF       ill  $FF
FC76: FF       ill  $FF
FC77: FF       ill  $FF
FC78: FF       ill  $FF
FC79: FF       ill  $FF
FC7A: FF       ill  $FF
FC7B: FF       ill  $FF
FC7C: FF       ill  $FF
FC7D: FF       ill  $FF
FC7E: FF       ill  $FF
FC7F: FF       ill  $FF

;Page to find graphics data on

FC80:
.byte C0,C0,C0,C0,C0,C0,C0,A0,A0,A0,C0,A0,C0,A0,A0,C0,A0



FC91:
.byte 00,10,11,1A,22,2A,2E,2F,30,31,32,53,52,58,59


FCA0: 3A 

FCA1: 4A eor  $4A3A,y
FCA2: 10 11    bpl  $FCB5
FCA4: 12       ill  $12
FCA5: 00 00    brk  #$00
FCA7: 08       php  
FCA8: 08       php  
FCA9: 08       php  
FCAA: 00 0C    brk  #$0C
FCAC: 0C       ill  $0C
FCAD: 0C       ill  $0C
FCAE: 00 04    brk  #$04
FCB0: 00 00    brk  #$00
FCB2: 13       ill  $13
FCB3: 1D 21 2B ora  $2B21,x
FCB6: 2F       ill  $2F
FCB7: 2B       ill  $2B
FCB8: 2B       ill  $2B
FCB9: 2F       ill  $2F
FCBA: 2F       ill  $2F
FCBB: 25 33    and  $33
FCBD: 37       ill  $37
FCBE: 3B       ill  $3B
FCBF: 3F       ill  $3F
FCC0: 3B       ill  $3B
FCC1: 3B       ill  $3B
FCC2: 3F       ill  $3F
FCC3: 3F       ill  $3F
FCC4: 43       ill  $43
FCC5: 47       ill  $47
FCC6: 4B       ill  $4B
FCC7: 4F       ill  $4F
FCC8: 4B       ill  $4B
FCC9: 4B       ill  $4B
FCCA: 4F       ill  $4F
FCCB: 4F       ill  $4F
FCCC: 53       ill  $53
FCCD: 57       ill  $57
FCCE: 5B       ill  $5B
FCCF: 5F       ill  $5F
FCD0: 63       ill  $63
FCD1: 6A       ror  a
FCD2: 77       ill  $77
FCD3: 7F       ill  $7F
FCD4: 8B       ill  $8B
FCD5: 95 9F    sta  $9F,x
FCD7: AA       tax  
FCD8: 9F       ill  $9F
FCD9: 9F       ill  $9F
FCDA: AA       tax  
FCDB: AA       tax  
FCDC: B5 B5    lda  $B5,x
FCDE: B5 B5    lda  $B5,x
FCE0: B5 B6    lda  $B6,x
FCE2: B7       ill  $B7
FCE3: B8       clv  
FCE4: B5 B7    lda  $B7,x
FCE6: B6 B8    ldx  $B8,y
FCE8: B5 B9    lda  $B9,x
FCEA: B9 B5 BA lda  $BAB5,y
FCED: BD C0 C3 lda  $C3C0,x
FCF0: C6 C9    dec  $C9
FCF2: CC CF D2 cpy  $D2CF
FCF5: D6 D7    dec  $D7,x
FCF7: D8       cld  
FCF8: D9 DA E0 cmp  $E0DA,y
FCFB: FC       ill  $FC
FCFC: 00 02    brk  #$02
FCFE: 00 04    brk  #$04
FD00: 06 08    asl  $08
FD02: 06 0A    asl  $0A
FD04: 0C       ill  $0C
FD05: 0E 0C 10 asl  $100C
FD08: 12       ill  $12
FD09: 14       ill  $14
FD0A: 12       ill  $12
FD0B: 16 18    asl  $18,x
FD0D: 1C       ill  $1C
FD0E: 20 22 24 jsr  $2422
FD11: 22       ill  $22
FD12: 26 C9    rol  $C9
FD14: CB       ill  $CB
FD15: CD CF D1 cmp  $D1CF
FD18: D3       ill  $D3
FD19: 28       plp  
FD1A: 2A       rol  a
FD1B: 28       plp  
FD1C: 2C 2E 30 bit  $302E
FD1F: 2E 32 70 rol  $7032
FD22: 73       ill  $73
FD23: 76 79    ror  $79,x
FD25: 7C       ill  $7C
FD26: 7F       ill  $7F
FD27: 34       ill  $34
FD28: 36 34    rol  $34,x
FD2A: 38       sec  
FD2B: 3A       ill  $3A
FD2C: 3C       ill  $3C
FD2D: 3A       ill  $3A
FD2E: 3E 40 42 rol  $4240,x
FD31: 40       rti  
FD32: 44       ill  $44
FD33: 46 48    lsr  $48
FD35: 46 4A    lsr  $4A
FD37: 4C 4E 4C jmp  $4C4E
FD3A: 50 52    bvc  $FD8E
FD3C: 54       ill  $54
FD3D: 52       ill  $52
FD3E: 56 58    lsr  $58,x
FD40: 5A       ill  $5A
FD41: 58       cli  
FD42: 5C       ill  $5C
FD43: 5E 60 5E lsr  $5E60,x
FD46: 62       ill  $62
FD47: 64       ill  $64
FD48: 66 64    ror  $64
FD4A: 68       pla  
FD4B: 6A       ror  a
FD4C: 6C 6A 6E jmp  ($6E6A)
FD4F: 82       ill  $82
FD50: 84 82    sty  $82
FD52: 86 88    stx  $88
FD54: 8A       txa  
FD55: 88       dey  
FD56: 8C 8E 90 sty  $908E
FD59: 8E 92 94 stx  $9492
FD5C: 96 94    stx  $94,y
FD5E: 98       tya  
FD5F: 9A       txs  
FD60: 9D A0 A3 sta  $A3A0,x
FD63: A6 A9    ldx  $A9
FD65: 73       ill  $73
FD66: 57       ill  $57
FD67: 57       ill  $57
FD68: 5A       ill  $5A
FD69: 5A       ill  $5A
FD6A: 5D 5D 60 eor  $605D,x
FD6D: 60       rts  
FD6E: 63       ill  $63
FD6F: 63       ill  $63
FD70: 66 66    ror  $66
FD72: 69 47    adc  #$47
FD74: 49 4B    eor  #$4B
FD76: 4D 4F 51 eor  $514F
FD79: 53       ill  $53
FD7A: 55 6C    eor  $6C,x
FD7C: 6F       ill  $6F
FD7D: 72       ill  $72
FD7E: 75 78    adc  $78,x
FD80: 7B       ill  $7B
FD81: 7E 81 84 ror  $8481,x
FD84: 87       ill  $87
FD85: 8A       txa  
FD86: 8D AC AE sta  $AEAC
FD89: AC B0 D5 ldy  $D5B0
FD8C: D7       ill  $D7
FD8D: D9 DB DD cmp  $DDDB,y
FD90: DF       ill  $DF
FD91: B2       ill  $B2
FD92: B4 B2    ldy  $B2,x
FD94: B6 D5    ldx  $D5,y
FD96: D7       ill  $D7
FD97: D9 DB DD cmp  $DDDB,y
FD9A: DF       ill  $DF
FD9B: B8       clv  
FD9C: BA       tsx  
FD9D: B8       clv  
FD9E: BC D5 D7 ldy  $D7D5,x
FDA1: D9 DB DD cmp  $DDDB,y
FDA4: DF       ill  $DF
FDA5: E3       ill  $E3
FDA6: BE C0 BE ldx  $BEC0,y
FDA9: C2       ill  $C2
FDAA: D5 D7    cmp  $D7,x
FDAC: D9 DB DD cmp  $DDDB,y
FDAF: DF       ill  $DF
FDB0: E1 C4    sbc  ($C4,x)
FDB2: C5 C6    cmp  $C6
FDB4: C7       ill  $C7
FDB5: C8       iny  
FDB6: 1B       ill  $1B
FDB7: 2C 2E 1D bit  $1D2E
FDBA: 30 32    bmi  $FDEE
FDBC: 1F       ill  $1F
FDBD: 2C 2E 21 bit  $212E
FDC0: 34       ill  $34
FDC1: 2E 23 34 rol  $3423
FDC4: 36 24    rol  $24,x
FDC6: 37       ill  $37
FDC7: 39 26 3B and  $3B26,y
FDCA: 3D 28 3F and  $3F28,x
FDCD: 43       ill  $43
FDCE: E5 E7    sbc  $E7
FDD0: E9 EB    sbc  #$EB
FDD2: 90 92    bcc  $FD66
FDD4: 94 96    sty  $96,x
FDD6: 98       tya  
FDD7: 9A       txs  
FDD8: 9C       ill  $9C
FDD9: 9E       ill  $9E
FDDA: A0 A2    ldy  #$A2
FDDC: A4 A6    ldy  $A6
FDDE: A8       tay  
FDDF: AA       tax  
FDE0: AC AE B0 ldy  $B0AE
FDE3: B2       ill  $B2
FDE4: B4 B6    ldy  $B6,x
FDE6: B8       clv  
FDE7: BA       tsx  
FDE8: BC BE C0 ldy  $C0BE,x
FDEB: C2       ill  $C2
FDEC: C4 C6    cpy  $C6
FDEE: C8       iny  
FDEF: CA       dex  
FDF0: CC CE D0 cpy  $D0CE
FDF3: D2       ill  $D2
FDF4: D4       ill  $D4
FDF5: D6 D8    dec  $D8,x
FDF7: DA       ill  $DA
FDF8: DC       ill  $DC
FDF9: 0B       ill  $0B
FDFA: 0B       ill  $0B
FDFB: 0B       ill  $0B
FDFC: 0B       ill  $0B
FDFD: 0B       ill  $0B
FDFE: 0B       ill  $0B
FDFF: 0B       ill  $0B
FE00: 0B       ill  $0B
FE01: 0B       ill  $0B
FE02: 0B       ill  $0B
FE03: 0B       ill  $0B
FE04: 0B       ill  $0B
FE05: 0B       ill  $0B
FE06: 0B       ill  $0B
FE07: 0B       ill  $0B
FE08: 0B       ill  $0B
FE09: 0B       ill  $0B
FE0A: 0B       ill  $0B
FE0B: 0B       ill  $0B
FE0C: 0B       ill  $0B
FE0D: 0B       ill  $0B
FE0E: 0B       ill  $0B
FE0F: 0B       ill  $0B
FE10: 0B       ill  $0B
FE11: 0B       ill  $0B
FE12: 0B       ill  $0B
FE13: 0B       ill  $0B
FE14: 0B       ill  $0B
FE15: 0B       ill  $0B
FE16: 0B       ill  $0B
FE17: 0B       ill  $0B
FE18: 0B       ill  $0B
FE19: 0B       ill  $0B
FE1A: 0B       ill  $0B
FE1B: 0A       asl  a
FE1C: 0A       asl  a
FE1D: 0A       asl  a
FE1E: 0A       asl  a
FE1F: 0A       asl  a
FE20: 0A       asl  a
FE21: 0A       asl  a
FE22: 0A       asl  a
FE23: 0D 0D 0D ora  $0D0D
FE26: 0D 0E 09 ora  $090E
FE29: 0A       asl  a
FE2A: 10 0D    bpl  $FE39
FE2C: 0D 0D 0D ora  $0D0D
FE2F: 0D 0D 0D ora  $0D0D
FE32: 0D 00 00 ora  $0000
FE35: 00 00    brk  #$00
FE37: 00 07    brk  #$07
FE39: 07       ill  $07
FE3A: 01 00    ora  ($00,x)
FE3C: 07       ill  $07
FE3D: 07       ill  $07
FE3E: 01 00    ora  ($00,x)
FE40: 07       ill  $07
FE41: 07       ill  $07
FE42: 00 00    brk  #$00
FE44: 00 00    brk  #$00
FE46: 00 00    brk  #$00
FE48: 00 00    brk  #$00
FE4A: 00 07    brk  #$07
FE4C: 0F       ill  $0F
FE4D: 0F       ill  $0F
FE4E: 0B       ill  $0B
FE4F: 0B       ill  $0B
FE50: 0B       ill  $0B
FE51: 0B       ill  $0B
FE52: 05 

;Sprite width table
FE53:
	.byte	1C,1C,1E,1E,1E,1E,1E,1E,1E,1E,1E,1E,1E,1E,1E,1E
	.byte	3E,5E,5E,5F,5F,5E,5E,5F,5F,BD,7E,7E,7E,7E,7E,7E
	.byte	7E,7E,3E,3E,3E,3F,3E,3E,3F,3F,9E,9E,9E,9E,3D,7D
	.BYTE	7E,FD,DE,DE,DE,DE,DE,DE,DE,DE,BF,BF,BF,BF,BF,BF
	.byte	BF,BF,BF,BF,BF,BF,BF,BF,BF,BF,BE,BE,BE,BE,BF,BE
	.BYTE	BE,BC,BE,BE,BE,BE,BE,BE,BE,BF
	
FEAD: 04       ill  $04
FEAE: 04       ill  $04
FEAF: 04       ill  $04
FEB0: 04       ill  $04
FEB1: 04       ill  $04
FEB2: 04       ill  $04
FEB3: 04       ill  $04
FEB4: 04       ill  $04
FEB5: 04       ill  $04
FEB6: 04       ill  $04
FEB7: 04       ill  $04
FEB8: 04       ill  $04
FEB9: 04       ill  $04
FEBA: 04       ill  $04
FEBB: 04       ill  $04
FEBC: 04       ill  $04
FEBD: 06 04    asl  $04
FEBF: 04       ill  $04
FEC0: 04       ill  $04
FEC1: 04       ill  $04
FEC2: 04       ill  $04
FEC3: 04       ill  $04
FEC4: 04       ill  $04
FEC5: 04       ill  $04
FEC6: 01 04    ora  ($04,x)
FEC8: 04       ill  $04
FEC9: 04       ill  $04
FECA: 04       ill  $04
FECB: 04       ill  $04
FECC: 04       ill  $04
FECD: 04       ill  $04
FECE: 04       ill  $04
FECF: 04       ill  $04
FED0: 04       ill  $04
FED1: 04       ill  $04
FED2: 04       ill  $04
FED3: 04       ill  $04
FED4: 04       ill  $04
FED5: 04       ill  $04
FED6: 04       ill  $04
FED7: 06 06    asl  $06
FED9: 06 06    asl  $06
FEDB: 0B       ill  $0B
FEDC: 06 07    asl  $07
FEDE: 09 06    ora  #$06
FEE0: 06 06    asl  $06
FEE2: 06 06    asl  $06
FEE4: 06 06    asl  $06
FEE6: 06 00    asl  $00
FEE8: 00 00    brk  #$00
FEEA: 00 00    brk  #$00
FEEC: 03       ill  $03
FEED: 03       ill  $03
FEEE: 03       ill  $03
FEEF: 00 03    brk  #$03
FEF1: 03       ill  $03
FEF2: 03       ill  $03
FEF3: 00 01    brk  #$01
FEF5: 01 00    ora  ($00,x)
FEF7: 00 00    brk  #$00
FEF9: 00 00    brk  #$00
FEFB: 00 00    brk  #$00
FEFD: 00 00    brk  #$00
FEFF: 05 05    ora  $05
FF01: 05 08    ora  $08
FF03: 08       php  
FF04: 05 07    ora  $07
FF06: 04       ill  $04
FF07: FF       ill  $FF
FF08: FF       ill  $FF
FF09: FF       ill  $FF
FF0A: FF       ill  $FF
FF0B: FF       ill  $FF
FF0C: FF       ill  $FF
FF0D: FF       ill  $FF
FF0E: FF       ill  $FF
FF0F: FF       ill  $FF
FF10: FF       ill  $FF
FF11: FF       ill  $FF
FF12: FF       ill  $FF
FF13: FF       ill  $FF
FF14: FF       ill  $FF
FF15: FF       ill  $FF
FF16: FF       ill  $FF
FF17: FF       ill  $FF
FF18: FF       ill  $FF
FF19: FF       ill  $FF
FF1A: FF       ill  $FF
FF1B: FF       ill  $FF
FF1C: FF       ill  $FF
FF1D: FF       ill  $FF
FF1E: FF       ill  $FF
FF1F: FF       ill  $FF
FF20: FF       ill  $FF
FF21: FF       ill  $FF
FF22: FF       ill  $FF
FF23: FF       ill  $FF
FF24: FF       ill  $FF
FF25: FF       ill  $FF
FF26: FF       ill  $FF
FF27: FF       ill  $FF
FF28: FF       ill  $FF
FF29: FF       ill  $FF
FF2A: FF       ill  $FF
FF2B: FF       ill  $FF
FF2C: FF       ill  $FF
FF2D: FF       ill  $FF
FF2E: FF       ill  $FF
FF2F: FF       ill  $FF
FF30: FF       ill  $FF
FF31: FF       ill  $FF
FF32: FF       ill  $FF
FF33: FF       ill  $FF
FF34: FF       ill  $FF
FF35: FF       ill  $FF
FF36: FF       ill  $FF
FF37: FF       ill  $FF
FF38: FF       ill  $FF
FF39: FF       ill  $FF
FF3A: FF       ill  $FF
FF3B: FF       ill  $FF
FF3C: FF       ill  $FF
FF3D: FF       ill  $FF
FF3E: FF       ill  $FF
FF3F: FF       ill  $FF
FF40: FF       ill  $FF
FF41: FF       ill  $FF
FF42: FF       ill  $FF
FF43: FF       ill  $FF
FF44: FF       ill  $FF
FF45: FF       ill  $FF
FF46: FF       ill  $FF
FF47: FF       ill  $FF
FF48: FF       ill  $FF
FF49: FF       ill  $FF
FF4A: FF       ill  $FF
FF4B: FF       ill  $FF
FF4C: FF       ill  $FF
FF4D: FF       ill  $FF
FF4E: FF       ill  $FF
FF4F: FF       ill  $FF
FF50: FF       ill  $FF
FF51: FF       ill  $FF
FF52: FF       ill  $FF
FF53: FF       ill  $FF
FF54: FF       ill  $FF
FF55: FF       ill  $FF
FF56: FF       ill  $FF
FF57: FF       ill  $FF
FF58: FF       ill  $FF
FF59: FF       ill  $FF
FF5A: FF       ill  $FF
FF5B: FF       ill  $FF
FF5C: FF       ill  $FF
FF5D: FF       ill  $FF
FF5E: FF       ill  $FF
FF5F: FF       ill  $FF
FF60: FF       ill  $FF
FF61: FF       ill  $FF
FF62: FF       ill  $FF
FF63: FF       ill  $FF
FF64: FF       ill  $FF
FF65: FF       ill  $FF
FF66: FF       ill  $FF
FF67: FF       ill  $FF
FF68: FF       ill  $FF
FF69: FF       ill  $FF
FF6A: FF       ill  $FF
FF6B: FF       ill  $FF
FF6C: FF       ill  $FF
FF6D: FF       ill  $FF
FF6E: FF       ill  $FF
FF6F: FF       ill  $FF
FF70: FF       ill  $FF
FF71: FF       ill  $FF
FF72: FF       ill  $FF
FF73: FF       ill  $FF
FF74: FF       ill  $FF
FF75: FF       ill  $FF
FF76: FF       ill  $FF
FF77: FF       ill  $FF
FF78: FF       ill  $FF
FF79: FF       ill  $FF
FF7A: FF       ill  $FF
FF7B: FF       ill  $FF
FF7C: FF       ill  $FF
FF7D: FF       ill  $FF
FF7E: FF       ill  $FF
FF7F: FF       ill  $FF
FF80: 07       ill  $07
FF81: F0 8F    beq  $FF12
FF83: F5 9B    sbc  $9B,x
FF85: 31 5E    and  ($5E),y
FF87: FF       ill  $FF
FF88: FC       ill  $FC
FF89: C3       ill  $C3
FF8A: 15 B5    ora  $B5,x
FF8C: A8       tay  
FF8D: 69 E3    adc  #$E3
FF8F: D5 9F    cmp  $9F,x
FF91: 4C DB 56 jmp  $56DB
FF94: 1B       ill  $1B
FF95: 8B       ill  $8B
FF96: B0 E0    bcs  $FF78
FF98: BB       ill  $BB
FF99: C9 73    cmp  #$73
FF9B: CA       dex  
FF9C: 5D DF 72 eor  $72DF,x
FF9F: E3       ill  $E3
FFA0: 24 6B    bit  $6B
FFA2: 94 C9    sty  $C9,x
FFA4: E0 42    cpx  #$42
FFA6: D1 7B    cmp  ($7B),y
FFA8: 68       pla  
FFA9: AE 81 54 ldx  $5481
FFAC: 2F       ill  $2F
FFAD: 52       ill  $52
FFAE: 20 28 8C jsr  $8C28
FFB1: 3B       ill  $3B
FFB2: 50 B3    bvc  $FF67
FFB4: AC F9 26 ldy  $26F9
FFB7: 04       ill  $04
FFB8: A8       tay  
FFB9: 4B       ill  $4B
FFBA: 36 F9    rol  $F9,x
FFBC: 21 6C    and  ($6C,x)
FFBE: 69 CD    adc  #$CD
FFC0: 88       dey  
FFC1: 9A       txs  
FFC2: 77       ill  $77
FFC3: 28       plp  
FFC4: 5B       ill  $5B
FFC5: A6 23    ldx  $23
FFC7: E6 15    inc  $15
FFC9: B9 00 FB lda  $FB00,y
FFCC: 9D AF 7A sta  $7AAF,x
FFCF: 1C       ill  $1C
FFD0: 07       ill  $07
FFD1: E3       ill  $E3
FFD2: 70 F9    bvs  $FFCD
FFD4: 2B       ill  $2B
FFD5: FE 4A 96 inc  $964A,x
FFD8: 77       ill  $77
FFD9: 06 79    asl  $79
FFDB: 41 18    eor  ($18,x)
FFDD: 29 32    and  #$32
FFDF: 53       ill  $53
FFE0: CF       ill  $CF
FFE1: 03       ill  $03
FFE2: 34       ill  $34
FFE3: 48       pha  
FFE4: 5F       ill  $5F
FFE5: FF       ill  $FF
FFE6: 66 FF    ror  $FF
FFE8: AF       ill  $AF
FFE9: 31 81    and  ($81),y
FFEB: BB       ill  $BB
FFEC: 88       dey  
FFED: 1D 14 B7 ora  $B714,x
FFF0: 94 34    sty  $34,x
FFF2: 76 CD    ror  $CD,x
FFF4: 39 12 76 and  $7612,y
FFF7: 98       tya  
FFF8: FF       ill  $FF
FFF9: 87       ill  $87

NMI:
	.byte 6B,D5
RESET:
	.byte 1D,F3
IRQ:
	.byte D6,FF
	
